Microsoft (R) COFF/PE Dumper Version 14.27.29111.0
Copyright (C) Microsoft Corporation.  All rights reserved.


Dump of file lib\The_Forge\win\RendererDX12.lib

File Type: LIBRARY

Archive member name at 8: /               
5F8B82B2 time/date Sun Oct 18 01:48:02 2020
         uid
         gid
       0 mode
   5536C size
correct header end

    4186 public symbols

    A8B62 __imp_agsSetDisplayMode
    A8B62 agsSetDisplayMode
    A8BD4 __imp_agsInit
    A8BD4 agsInit
    A8C3C __imp_agsDriverExtensionsDX12_SetMarker
    A8C3C agsDriverExtensionsDX12_SetMarker
    A8CBE __imp_agsDriverExtensionsDX12_SetDepthBounds
    A8CBE agsDriverExtensionsDX12_SetDepthBounds
    A8D46 __imp_agsDriverExtensionsDX12_PushMarker
    A8D46 agsDriverExtensionsDX12_PushMarker
    A8DCA __imp_agsDriverExtensionsDX12_PopMarker
    A8DCA agsDriverExtensionsDX12_PopMarker
    A8E4C __imp_agsDriverExtensionsDX12_DestroyDevice
    A8E4C agsDriverExtensionsDX12_DestroyDevice
    A8ED2 __imp_agsDriverExtensionsDX12_DestroyCommandList
    A8ED2 agsDriverExtensionsDX12_DestroyCommandList
    A8F5E __imp_agsDriverExtensionsDX12_Destroy
    A8F5E agsDriverExtensionsDX12_Destroy
    A8FDE __imp_agsDriverExtensionsDX12_CreateGraphicsPipelineState
    A8FDE agsDriverExtensionsDX12_CreateGraphicsPipelineState
    A9072 __imp_agsDriverExtensionsDX12_CreateFromDevice
    A9072 agsDriverExtensionsDX12_CreateFromDevice
    A90FC __imp_agsDriverExtensionsDX12_CreateDevice
    A90FC agsDriverExtensionsDX12_CreateDevice
    A9182 __imp_agsDriverExtensionsDX12_CreateCommandList
    A9182 agsDriverExtensionsDX12_CreateCommandList
    A920C __imp_agsDriverExtensionsDX11_WriteBreadcrumb
    A920C agsDriverExtensionsDX11_WriteBreadcrumb
    A9294 __imp_agsDriverExtensionsDX11_SetViewBroadcastMasks
    A9294 agsDriverExtensionsDX11_SetViewBroadcastMasks
    A9322 __imp_agsDriverExtensionsDX11_SetMaxAsyncCompileThreadCount
    A9322 agsDriverExtensionsDX11_SetMaxAsyncCompileThreadCount
    A93B8 __imp_agsDriverExtensionsDX11_SetDiskShaderCacheEnabled
    A93B8 agsDriverExtensionsDX11_SetDiskShaderCacheEnabled
    A944A __imp_agsDriverExtensionsDX11_SetDepthBounds
    A944A agsDriverExtensionsDX11_SetDepthBounds
    A94D2 __imp_agsDriverExtensionsDX11_SetClipRects
    A94D2 agsDriverExtensionsDX11_SetClipRects
    A9558 __imp_agsDriverExtensionsDX11_NumPendingAsyncCompileJobs
    A9558 agsDriverExtensionsDX11_NumPendingAsyncCompileJobs
    A95EC __imp_agsDriverExtensionsDX11_NotifyResourceEndWrites
    A95EC agsDriverExtensionsDX11_NotifyResourceEndWrites
    A967C __imp_agsDriverExtensionsDX11_NotifyResourceEndAllAccess
    A967C agsDriverExtensionsDX11_NotifyResourceEndAllAccess
    A9710 __imp_agsDriverExtensionsDX11_NotifyResourceBeginAllAccess
    A9710 agsDriverExtensionsDX11_NotifyResourceBeginAllAccess
    A97A6 __imp_agsDriverExtensionsDX11_MultiDrawInstancedIndirectCountIndirect
    A97A6 agsDriverExtensionsDX11_MultiDrawInstancedIndirectCountIndirect
    A9846 __imp_agsDriverExtensionsDX11_MultiDrawInstancedIndirect
    A9846 agsDriverExtensionsDX11_MultiDrawInstancedIndirect
    A98DA __imp_agsDriverExtensionsDX11_MultiDrawIndexedInstancedIndirectCountIndirect
    A98DA agsDriverExtensionsDX11_MultiDrawIndexedInstancedIndirectCountIndirect
    A9982 __imp_agsDriverExtensionsDX11_MultiDrawIndexedInstancedIndirect
    A9982 agsDriverExtensionsDX11_MultiDrawIndexedInstancedIndirect
    A9A1C __imp_agsDriverExtensionsDX11_IASetPrimitiveTopology
    A9A1C agsDriverExtensionsDX11_IASetPrimitiveTopology
    A9AAC __imp_agsDriverExtensionsDX11_GetMaxClipRects
    A9AAC agsDriverExtensionsDX11_GetMaxClipRects
    A9B34 __imp_agsDriverExtensionsDX11_EndUAVOverlap
    A9B34 agsDriverExtensionsDX11_EndUAVOverlap
    A9BBA __imp_agsDriverExtensionsDX11_DestroyDevice
    A9BBA agsDriverExtensionsDX11_DestroyDevice
    A9C40 __imp_agsDriverExtensionsDX11_Destroy
    A9C40 agsDriverExtensionsDX11_Destroy
    A9CC0 __imp_agsDriverExtensionsDX11_CreateTexture3D
    A9CC0 agsDriverExtensionsDX11_CreateTexture3D
    A9D48 __imp_agsDriverExtensionsDX11_CreateTexture2D
    A9D48 agsDriverExtensionsDX11_CreateTexture2D
    A9DD0 __imp_agsDriverExtensionsDX11_CreateTexture1D
    A9DD0 agsDriverExtensionsDX11_CreateTexture1D
    A9E58 __imp_agsDriverExtensionsDX11_CreateFromDevice
    A9E58 agsDriverExtensionsDX11_CreateFromDevice
    A9EE2 __imp_agsDriverExtensionsDX11_CreateDevice
    A9EE2 agsDriverExtensionsDX11_CreateDevice
    A9F68 __imp_agsDriverExtensionsDX11_CreateBuffer
    A9F68 agsDriverExtensionsDX11_CreateBuffer
    A9FEE __imp_agsDriverExtensionsDX11_BeginUAVOverlap
    A9FEE agsDriverExtensionsDX11_BeginUAVOverlap
    AA076 __imp_agsDeInit
    AA076 agsDeInit
    AA0E0 __imp_agsCheckDriverVersion
    AA0E0 agsCheckDriverVersion
    AA156 amd_ags_x64_NULL_THUNK_DATA
    AA2B8 __NULL_IMPORT_DESCRIPTOR
    AA3F2 __IMPORT_DESCRIPTOR_amd_ags_x64
    AA62C ??_C@_0BA@HEBEPDDD@StringFromGUID2?$AA@
    AA62C ??_C@_0BA@KEGHFGIH@ShellExecuteExA?$AA@
    AA62C ??_C@_0BA@LIPPODFA@ShellExecuteExW?$AA@
    AA62C ??_C@_0BB@GLNAEDBD@RegQueryValueExW?$AA@
    AA62C ??_C@_0BB@JLFMFIGE@SHGetFolderPathW?$AA@
    AA62C ??_C@_0BB@LAECONPA@CryptMsgGetParam?$AA@
    AA62C ??_C@_0BB@NLOOICEF@CryptQueryObject?$AA@
    AA62C ??_C@_0BD@DLOBKKPI@CloseServiceHandle?$AA@
    AA62C ??_C@_0BD@EECOCLLK@CertGetNameStringA?$AA@
    AA62C ??_C@_0BD@JAIOBB@NVIDIA?5CORPORATION?$AA@
    AA62C ??_C@_0BD@LGPNDMDB@NVIDIA?5Corporation?$AA@
    AA62C ??_C@_0BD@PMIABNOP@QueryServiceStatus?$AA@
    AA62C ??_C@_0BE@BCOGDMN@CryptDecodeObjectEx?$AA@
    AA62C ??_C@_0BE@DGEHNIME@QueryServiceConfigW?$AA@
    AA62C ??_C@_0BE@EKHPPEOE@D3DKMTEnumAdapters2?$AA@
    AA62C ??_C@_0BF@EPMGKKHC@CreateProcessAsUserW?$AA@
    AA62C ??_C@_0BF@FAFEKMCA@1?42?4840?4113549?41?49?46?$AA@
    AA62C ??_C@_0BF@FDFOBPKF@CreateProcessAsUserA?$AA@
    AA62C ??_C@_0BF@GADNDGCJ@SetupDiGetClassDevsW?$AA@
    AA62C ??_C@_0BF@HLHJPPOD@1?42?4840?4113549?41?49?45?$AA@
    AA62C ??_C@_0BG@KAOJENPF@NVIDIA?5Subordinate?5CA?$AA@
    AA62C ??_C@_0BG@MMMDBMKC@1?43?46?41?44?41?4311?43?43?41?$AA@
    AA62C ??_C@_0BH@KJKPNIBA@D3DKMTQueryAdapterInfo?$AA@
    AA62C ??_C@_0BK@HOONEKAK@SetupDiGetDevicePropertyW?$AA@
    AA62C ??_C@_0BL@FFHIDOLI@CertFindCertificateInStore?$AA@
    AA62C ??_C@_0BL@PJJPAKMH@CertFreeCertificateContext?$AA@
    AA62C ??_C@_0BM@NCADCKIN@SetupDiEnumDeviceInterfaces?$AA@
    AA62C ??_C@_0BN@PLKAPGAL@SetupDiDestroyDeviceInfoList?$AA@
    AA62C ??_C@_0BO@MCDINODJ@NVIDIA?5Subordinate?5CA?52016?5v2?$AA@
    AA62C ??_C@_0CA@BDKKJNHL@NVIDIA?5Corporation?9PE?9Prod?9Sha2?$AA@
    AA62C ??_C@_0CA@DIIHMOLI@NVIDIA?5Corporation?9PE?9Prod?9Sha1?$AA@
    AA62C ??_C@_0CA@OHHIPOBB@SetupGetInfDriverStoreLocationW?$AA@
    AA62C ??_C@_0CB@HFCPLGMB@NVIDIA?5Corporation?5PE?5Sign?5v2016@
    AA62C ??_C@_0CB@IFFDCBBP@SetupDiGetDeviceInterfaceDetailW@
    AA62C ??_C@_0CB@PPBIDAOP@Microsoft?5Code?5Verification?5Root@
    AA62C ??_C@_0CC@HHLJOEOH@SetupDiGetDeviceRegistryProperty@
    AA62C ??_C@_0CC@JMLNMNCC@CertGetIssuerCertificateFromStor@
    AA62C ??_C@_0CF@CFMHKGMG@NVIDIA?5Subordinate?5CA?52018?9Prod?9@
    AA62C ??_C@_0CF@JFEPLJGK@NVIDIA?5Subordinate?5CA?52019?9Prod?9@
    AA62C ??_C@_0CF@LOGCOKKJ@NVIDIA?5Subordinate?5CA?52019?9Prod?9@
    AA62C ??_C@_0CF@OOKPFAF@NVIDIA?5Subordinate?5CA?52018?9Prod?9@
    AA62C ??_C@_0CG@LPPENLBG@VeriSign?5Class?53?5Code?5Signing?520@
    AA62C ??_C@_0CH@OBCMPLDG@Microsoft?5Digital?5Media?5Authorit@
    AA62C ??_C@_0CI@PDPDCEKH@Symantec?5Class?53?5SHA256?5Code?5Sig@
    AA62C ??_C@_0CN@GDCOIKJB@Symantec?5Class?53?5SHA256?5Code?5Sig@
    AA62C ??_C@_0DA@IFBOBDMC@VeriSign?5Universal?5Root?5Certific@
    AA62C ??_C@_0DN@CMAHBHCF@VeriSign?5Class?53?5Public?5Primary?5@
    AA62C ??_C@_0M@HLOHPNFA@RegCloseKey?$AA@
    AA62C ??_C@_0N@NDJOABJF@OpenServiceW?$AA@
    AA62C ??_C@_0O@COHOBMLB@RegOpenKeyExW?$AA@
    AA62C ??_C@_0O@GLENPJE@RegEnumValueW?$AA@
    AA62C ??_C@_0O@MKDCBNNB@CryptMsgClose?$AA@
    AA62C ??_C@_0O@MOHFGHHE@ShellExecuteA?$AA@
    AA62C ??_C@_0O@NCONNCKD@ShellExecuteW?$AA@
    AA62C ??_C@_0P@CBOPOJKE@WinVerifyTrust?$AA@
    AA62C ??_C@_0P@FADIKHJH@CertCloseStore?$AA@
    AA62C ??_C@_0P@LEIGFCJD@OpenSCManagerW?$AA@
    AA62C ??_C@_11LOCGONAA@?$AA?$AA@
    AA62C ??_C@_13FPGAJAPJ@?$AA?2?$AA?$AA@
    AA62C ??_C@_13HOIJIPNN@?$AA?5?$AA?$AA@
    AA62C ??_C@_13NEIAEHFG@?$AA?$CC?$AA?$AA@
    AA62C ??_C@_15DCJHMPDG@?$AAn?$AAv?$AA?$AA@
    AA62C ??_C@_19BHIGINDB@?$AA?4?$AAd?$AAl?$AAl?$AA?$AA@
    AA62C ??_C@_19DKJJGBOC@?$AA?4?$AAs?$AAy?$AAs?$AA?$AA@
    AA62C ??_C@_1BC@CALJKBMN@?$AAC?$AAr?$AAy?$AAp?$AAt?$AAS?$AAv?$AAc?$AA?$AA@
    AA62C ??_C@_1BC@KIKDLGKB@?$AAV?$AAE?$AAN?$AA_?$AA1?$AA0?$AAD?$AAE?$AA?$AA@
    AA62C ??_C@_1BE@BCGFHNLP@?$AAg?$AAd?$AAi?$AA3?$AA2?$AA?4?$AAd?$AAl?$AAl?$AA?$AA@
    AA62C ??_C@_1BE@CFDBIGMC@?$AAO?$AAl?$AAe?$AA3?$AA2?$AA?4?$AAd?$AAl?$AAl?$AA?$AA@
    AA62C ??_C@_1BE@PDIEBDGK@?$AAs?$AAy?$AAs?$AAt?$AAe?$AAm?$AA3?$AA2?$AA?2?$AA?$AA@
    AA62C ??_C@_1BI@MIELKEKL@?$AAc?$AAr?$AAy?$AAp?$AAt?$AA3?$AA2?$AA?4?$AAd?$AAl?$AAl?$AA?$AA@
    AA62C ??_C@_1BI@MOCHHHAE@?$AA0?$AAx?$AA0?$AA0?$AA0?$AA0?$AA0?$AA0?$AA0?$AA0?$AA?6?$AA?$AA@
    AA62C ??_C@_1BI@NBDNPACJ@?$AAn?$AAv?$AAl?$AAd?$AAu?$AAm?$AAd?$AA?4?$AAd?$AAl?$AAl?$AA?$AA@
    AA62C ??_C@_1BI@ODIMJCCA@?$AAS?$AAh?$AAe?$AAl?$AAl?$AA3?$AA2?$AA?4?$AAd?$AAl?$AAl?$AA?$AA@
    AA62C ??_C@_1BK@BDAIHEB@?$AAn?$AAv?$AAl?$AAd?$AAu?$AAm?$AAd?$AAx?$AA?4?$AAd?$AAl?$AAl?$AA?$AA@
    AA62C ??_C@_1BK@BIGILECK@?$AAA?$AAd?$AAv?$AAa?$AAp?$AAi?$AA3?$AA2?$AA?4?$AAd?$AAl?$AAl?$AA?$AA@
    AA62C ??_C@_1BK@DJNBDBNL@?$AAw?$AAi?$AAn?$AAt?$AAr?$AAu?$AAs?$AAt?$AA?4?$AAd?$AAl?$AAl?$AA?$AA@
    AA62C ??_C@_1BK@KFAMPLIB@?$AAS?$AAe?$AAt?$AAu?$AAp?$AAa?$AAp?$AAi?$AA?4?$AAd?$AAl?$AAl?$AA?$AA@
    AA62C ??_C@_1BK@LGKOBNBJ@?$AA?6?$AA?$CK?$AA?$CK?$AA?$CK?$AA?5?$AAE?$AAr?$AAr?$AAo?$AAr?$AA?3?$AA?5?$AA?$AA@
    AA62C ??_C@_1CC@HIKAIHFI@?$AAO?$AAp?$AAe?$AAn?$AAG?$AAL?$AAD?$AAr?$AAi?$AAv?$AAe?$AAr?$AAN?$AAa?$AAm?$AAe?$AA?$AA@
    AA62C ??_C@_1CG@BLOGGIKH@?$AAU?$AAs?$AAe?$AAr?$AAM?$AAo?$AAd?$AAe?$AAD?$AAr?$AAi?$AAv?$AAe?$AAr?$AAN?$AAa?$AAm?$AAe?$AA?$AA@
    AA62C ??_C@_1CG@HMPMFHA@?$AAC?$AAu?$AAr?$AAr?$AAe?$AAn?$AAt?$AAB?$AAu?$AAi?$AAl?$AAd?$AAN?$AAu?$AAm?$AAb?$AAe?$AAr?$AA?$AA@
    AA62C ??_C@_1CI@KEDLBJIA@?$AAO?$AAp?$AAe?$AAn?$AAG?$AAL?$AAD?$AAr?$AAi?$AAv?$AAe?$AAr?$AAN?$AAa?$AAm?$AAe?$AAW?$AAo?$AAw?$AA?$AA@
    AA62C ??_C@_1CK@LONCKOLI@?$AAD?$AAr?$AAi?$AAv?$AAe?$AAr?$AAS?$AAu?$AAp?$AAp?$AAo?$AAr?$AAt?$AAM?$AAo?$AAd?$AAu?$AAl?$AAe?$AAs?$AA?$AA@
    AA62C ??_C@_1CM@BOJFJANK@?$AAU?$AAs?$AAe?$AAr?$AAM?$AAo?$AAd?$AAe?$AAD?$AAr?$AAi?$AAv?$AAe?$AAr?$AAN?$AAa?$AAm?$AAe?$AAW?$AAo?$AAw?$AA?$AA@
    AA62C ??_C@_1CM@ICHMMDGI@?$AA?2?$AAS?$AAy?$AAs?$AAt?$AAe?$AAm?$AAR?$AAo?$AAo?$AAt?$AA?2?$AAs?$AAy?$AAs?$AAt?$AAe?$AAm?$AA3?$AA2?$AA?2?$AA?$AA@
    AA62C ??_C@_1DA@CKLKMNJC@?$AAD?$AAr?$AAi?$AAv?$AAe?$AAr?$AAS?$AAu?$AAp?$AAp?$AAo?$AAr?$AAt?$AAM?$AAo?$AAd?$AAu?$AAl?$AAe?$AAs?$AAW?$AAo?$AAw?$AA?$AA@
    AA62C ??_C@_1DA@KCHHIAKC@?$AAU?$AAs?$AAe?$AAr?$AAM?$AAo?$AAd?$AAe?$AAD?$AAL?$AAi?$AAs?$AAt?$AAD?$AAr?$AAi?$AAv?$AAe?$AAr?$AAN?$AAa?$AAm?$AAe?$AA?$AA@
    AA62C ??_C@_1DG@JJIPMOCJ@?$AAU?$AAs?$AAe?$AAr?$AAM?$AAo?$AAd?$AAe?$AAD?$AAL?$AAi?$AAs?$AAt?$AAD?$AAr?$AAi?$AAv?$AAe?$AAr?$AAN?$AAa?$AAm?$AAe?$AAW?$AAo?$AAw?$AA?$AA@
    AA62C ??_C@_1EA@CDBLFBM@?$AAS?$AAO?$AAF?$AAT?$AAW?$AAA?$AAR?$AAE?$AA?2?$AAK?$AAh?$AAr?$AAo?$AAn?$AAo?$AAs?$AA?2?$AAO?$AAp?$AAe?$AAn?$AAC?$AAL?$AA?2?$AAV?$AAe?$AAn?$AAd?$AAo?$AAr?$AAs?$AA?$AA@
    AA62C ??_C@_1EA@PJLIFJCK@?$AAS?$AAO?$AAF?$AAT?$AAW?$AAA?$AAR?$AAE?$AA?2?$AAK?$AAh?$AAr?$AAo?$AAn?$AAo?$AAs?$AA?2?$AAV?$AAu?$AAl?$AAk?$AAa?$AAn?$AA?2?$AAD?$AAr?$AAi?$AAv?$AAe?$AAr?$AAs?$AA?$AA@
    AA62C ??_C@_1EG@IIBJNMMA@?$AAS?$AAO?$AAF?$AAT?$AAW?$AAA?$AAR?$AAE?$AA?2?$AAN?$AAV?$AAI?$AAD?$AAI?$AAA?$AA?5?$AAC?$AAo?$AAr?$AAp?$AAo?$AAr?$AAa?$AAt?$AAi?$AAo?$AAn?$AA?2?$AAG?$AAl?$AAo?$AAb@
    AA62C ??_C@_1EI@MCIPCDJC@?$AA?$CK?$AA?$CK?$AA?$CK?$AA?5?$AAS?$AAi?$AAg?$AAn?$AAa?$AAt?$AAu?$AAr?$AAe?$AA?5?$AAo?$AAv?$AAe?$AAr?$AAr?$AAi?$AAd?$AAe?$AA?5?$AAd?$AAe?$AAt?$AAe?$AAc?$AAt?$AAe?$AAd?$AA?4@
    AA62C ??_C@_1EO@OGPNDOKP@?$AAS?$AAY?$AAS?$AAT?$AAE?$AAM?$AA?2?$AAC?$AAo?$AAn?$AAt?$AAr?$AAo?$AAl?$AAS?$AAe?$AAt?$AA0?$AA0?$AA1?$AA?2?$AAS?$AAe?$AAr?$AAv?$AAi?$AAc?$AAe?$AAs?$AA?2?$AAn?$AAv@
    AA62C ??_C@_1FA@HAOOOOND@?$AAS?$AAY?$AAS?$AAT?$AAE?$AAM?$AA?2?$AAC?$AAu?$AAr?$AAr?$AAe?$AAn?$AAt?$AAC?$AAo?$AAn?$AAt?$AAr?$AAo?$AAl?$AAS?$AAe?$AAt?$AA?2?$AAC?$AAo?$AAn?$AAt?$AAr?$AAo?$AAl@
    AA62C ??_C@_1FK@EDIIEKBJ@?$AAS?$AAO?$AAF?$AAT?$AAW?$AAA?$AAR?$AAE?$AA?2?$AAM?$AAi?$AAc?$AAr?$AAo?$AAs?$AAo?$AAf?$AAt?$AA?2?$AAW?$AAi?$AAn?$AAd?$AAo?$AAw?$AAs?$AA?5?$AAN?$AAT?$AA?2?$AAC?$AAu@
    AA62C ??_C@_1IE@HKOKLDFE@?$AA?$CK?$AA?$CK?$AA?$CK?$AA?5?$AAW?$AAA?$AAR?$AAN?$AAI?$AAN?$AAG?$AA?5?$AA?9?$AA?5?$AAP?$AAE?$AA?5?$AAS?$AAI?$AAG?$AAN?$AAA?$AAT?$AAU?$AAR?$AAE?$AA?5?$AAV?$AAE?$AAR?$AAI?$AAF@
    AA62C StringCbCatW
    AA62C StringCbCopyW
    AA62C StringCchCatW
    AA62C StringCchCopyNW
    AA62C StringCchCopyW
    AA62C nvCreateProcessA
    AA62C nvCreateProcessAsUserA
    AA62C nvCreateProcessAsUserW
    AA62C nvCreateProcessW
    AA62C nvDetectDisplayDriverModuleLocationW
    AA62C nvDetectDisplayDriverModuleRegistrationW
    AA62C nvGetDisplayDriverRegkeyW
    AA62C nvGetDisplayDriverStoreW
    AA62C nvGetDriverRegkeyW
    AA62C nvGetDriverStoreW
    AA62C nvGetSystemDirectoryW
    AA62C nvGetSystemModuleHandleA
    AA62C nvGetSystemModuleHandleW
    AA62C nvLoadDisplayDriverModuleExA
    AA62C nvLoadDisplayDriverModuleExW
    AA62C nvLoadLibraryExA
    AA62C nvLoadLibraryExW
    AA62C nvLoadLibraryFromTrustedLocationExA
    AA62C nvLoadLibraryFromTrustedLocationExW
    AA62C nvLoadSignedLibraryExA
    AA62C nvLoadSignedLibraryExW
    AA62C nvLoadSystemLibraryExA
    AA62C nvLoadSystemLibraryExW
    AA62C nvReleaseSecureLoadLibraryResources
    AA62C nvSafeLocalFree
    AA62C nvShellExecuteA
    AA62C nvShellExecuteExA
    AA62C nvShellExecuteExW
    AA62C nvShellExecuteW
    AA62C nvVerifyFileSignatureA
    AA62C nvVerifyFileSignatureW
    C4526 ?$TSS0@?1??GetInstance@CSingletonCriticalSection@@SAAEAV2@XZ@4HA
    C4526 ??0CAutoCriticalSection@@QEAA@XZ
    C4526 ??0CSingletonCriticalSection@@AEAA@XZ
    C4526 ??1CAutoCriticalSection@@UEAA@XZ
    C4526 ??1CSingletonCriticalSection@@UEAA@XZ
    C4526 ??_7CAutoCriticalSection@@6B@
    C4526 ??_7CSingletonCriticalSection@@6B@
    C4526 ??_C@_0BF@OFPFEMKN@nvapi_QueryInterface?$AA@
    C4526 ??_C@_0BI@KKGAPHLL@nvapi_pepQueryInterface?$AA@
    C4526 ??_C@_1BI@FHCKDKLA@?$AAn?$AAv?$AAa?$AAp?$AAi?$AA6?$AA4?$AA?4?$AAd?$AAl?$AAl?$AA?$AA@
    C4526 ??_C@_1BO@KNDEFKBK@?$AAn?$AAv?$AAp?$AAo?$AAw?$AAe?$AAr?$AAa?$AAp?$AAi?$AA?4?$AAd?$AAl?$AAl?$AA?$AA@
    C4526 ??_GCAutoCriticalSection@@UEAAPEAXI@Z
    C4526 ??_GCSingletonCriticalSection@@UEAAPEAXI@Z
    C4526 ??_R0?AVCAutoCriticalSection@@@8
    C4526 ??_R0?AVCSingletonCriticalSection@@@8
    C4526 ??_R1A@?0A@EA@CAutoCriticalSection@@8
    C4526 ??_R1A@?0A@EA@CSingletonCriticalSection@@8
    C4526 ??_R2CAutoCriticalSection@@8
    C4526 ??_R2CSingletonCriticalSection@@8
    C4526 ??_R3CAutoCriticalSection@@8
    C4526 ??_R3CSingletonCriticalSection@@8
    C4526 ??_R4CAutoCriticalSection@@6B@
    C4526 ??_R4CSingletonCriticalSection@@6B@
    C4526 ??__Fs_Cs@?1??GetInstance@CSingletonCriticalSection@@SAAEAV1@XZ@YAXXZ
    C4526 ?EnterCS@CSingletonCriticalSection@@QEAAXXZ
    C4526 ?GetInstance@CSingletonCriticalSection@@SAAEAV1@XZ
    C4526 ?LeaveCS@CSingletonCriticalSection@@QEAAXXZ
    C4526 ?LoadModule@@YA?AW4_NvAPI_Status@@W4_NVAPI_MODULE_ID@@W4_NV_DRIVER_TYPE@@@Z
    C4526 ?Module_InitializeHelper@@YA?AW4_NvAPI_Status@@PEAUHINSTANCE__@@W4_NVAPI_MODULE_ID@@W4_NV_DRIVER_TYPE@@@Z
    C4526 ?NvAPI_InitializeEx@@YA?AW4_NvAPI_Status@@W4_NV_DRIVER_TYPE@@@Z
    C4526 ?NvAPI_PCF_Initialize@@YA?AW4_NvAPI_Status@@XZ
    C4526 ?NvAPI_PCF_Unload@@YA?AW4_NvAPI_Status@@XZ
    C4526 ?NvAPI_Power_Unload@@YA?AW4_NvAPI_Status@@XZ
    C4526 ?NvAPI_UnloadEx@@YA?AW4_NvAPI_Status@@W4_NV_DRIVER_TYPE@@@Z
    C4526 ?NvAPI_UnloadHelper@@YA?AW4_NvAPI_Status@@W4_NV_DRIVER_TYPE@@_N@Z
    C4526 ?ValidateModuleHandle@@YA?AW4_NvAPI_Status@@W4_NVAPI_MODULE_ID@@W4_NV_DRIVER_TYPE@@@Z
    C4526 ?drvDetails@@3PAU_NV_DRIVER_DETAILS@@A
    C4526 ?g_module_RefCount@@3PAKA
    C4526 ?g_module_numApiInUse@@3PAJA
    C4526 ?g_nvapi_HModule@@3PAPEAUHINSTANCE__@@A
    C4526 ?g_nvapi_InitUwp@@3_NA
    C4526 ?g_nvapi_callReturn@@3P6AXK_KW4_NvAPI_Status@@@ZEA
    C4526 ?g_nvapi_callStart@@3P6AXKPEA_K@ZEA
    C4526 ?g_nvapi_lpNvAPI_gpuQueryInterface@@3P6APEAXK@ZEA
    C4526 ?g_nvapi_lpNvAPI_pepQueryInterface@@3P6APEAXK@ZEA
    C4526 ?g_nvapi_moduleUnloadPending@@3PA_NA
    C4526 ?initInterface@@3P6A?AW4_NvAPI_Status@@XZEA
    C4526 ?initInterfaceEx@@3P6A?AW4_NvAPI_Status@@W4_NV_DRIVER_TYPE@@@ZEA
    C4526 ?nvapi_vtbl@@3PAP6A_JXZA
    C4526 ?s_Cs@?1??GetInstance@CSingletonCriticalSection@@SAAEAV2@XZ@4V2@A
    C4526 NvAPI_CreateDisplayFromUnAttachedDisplay
    C4526 NvAPI_D3D10_SetDepthBoundsTest
    C4526 NvAPI_D3D11_AliasMSAATexture2DAsNonMSAA
    C4526 NvAPI_D3D11_BeginUAVOverlap
    C4526 NvAPI_D3D11_BeginUAVOverlapEx
    C4526 NvAPI_D3D11_CheckFeatureSupport
    C4526 NvAPI_D3D11_CopyTileMappings
    C4526 NvAPI_D3D11_CreateDevice
    C4526 NvAPI_D3D11_CreateDeviceAndSwapChain
    C4526 NvAPI_D3D11_CreateDomainShaderEx
    C4526 NvAPI_D3D11_CreateFastGeometryShader
    C4526 NvAPI_D3D11_CreateFastGeometryShaderExplicit
    C4526 NvAPI_D3D11_CreateGeometryShaderEx_2
    C4526 NvAPI_D3D11_CreateHullShaderEx
    C4526 NvAPI_D3D11_CreateImplicitMSAATexture2D
    C4526 NvAPI_D3D11_CreateMetaCommand
    C4526 NvAPI_D3D11_CreateMultiGPUDevice
    C4526 NvAPI_D3D11_CreatePixelShaderEx_2
    C4526 NvAPI_D3D11_CreateRasterizerState
    C4526 NvAPI_D3D11_CreateShadingRateResourceView
    C4526 NvAPI_D3D11_CreateTiledTexture2DArray
    C4526 NvAPI_D3D11_CreateVertexShaderEx
    C4526 NvAPI_D3D11_DecompressView
    C4526 NvAPI_D3D11_EndUAVOverlap
    C4526 NvAPI_D3D11_EnumerateMetaCommands
    C4526 NvAPI_D3D11_ExecuteMetaCommand
    C4526 NvAPI_D3D11_InitializeMetaCommand
    C4526 NvAPI_D3D11_IsNvShaderExtnOpCodeSupported
    C4526 NvAPI_D3D11_MultiDrawIndexedInstancedIndirect
    C4526 NvAPI_D3D11_MultiDrawInstancedIndirect
    C4526 NvAPI_D3D11_MultiGPU_GetCaps
    C4526 NvAPI_D3D11_MultiGPU_Init
    C4526 NvAPI_D3D11_RSGetPixelShadingRateSampleOrder
    C4526 NvAPI_D3D11_RSSetExclusiveScissorRects
    C4526 NvAPI_D3D11_RSSetPixelShadingRateSampleOrder
    C4526 NvAPI_D3D11_RSSetShadingRateResourceView
    C4526 NvAPI_D3D11_RSSetViewportsPixelShadingRates
    C4526 NvAPI_D3D11_ResolveSubresourceRegion
    C4526 NvAPI_D3D11_SetDepthBoundsTest
    C4526 NvAPI_D3D11_SetNvShaderExtnSlot
    C4526 NvAPI_D3D11_SetNvShaderExtnSlotLocalThread
    C4526 NvAPI_D3D11_TiledResourceBarrier
    C4526 NvAPI_D3D11_TiledTexture2DArrayGetDesc
    C4526 NvAPI_D3D11_UpdateTileMappings
    C4526 NvAPI_D3D12_CopyTileMappings
    C4526 NvAPI_D3D12_CreateCommittedImplicitMSAATexture2D
    C4526 NvAPI_D3D12_CreateComputePipelineState
    C4526 NvAPI_D3D12_CreateGraphicsPipelineState
    C4526 NvAPI_D3D12_CreateHeap
    C4526 NvAPI_D3D12_CreateMetaCommand
    C4526 NvAPI_D3D12_CreateReservedResource
    C4526 NvAPI_D3D12_EnumerateMetaCommands
    C4526 NvAPI_D3D12_ExecuteMetaCommand
    C4526 NvAPI_D3D12_InitializeMetaCommand
    C4526 NvAPI_D3D12_IsNvShaderExtnOpCodeSupported
    C4526 NvAPI_D3D12_Mosaic_GetCompanionAllocations
    C4526 NvAPI_D3D12_Mosaic_GetViewportAndGpuPartitions
    C4526 NvAPI_D3D12_QueryModifiedWSupport
    C4526 NvAPI_D3D12_QuerySinglePassStereoSupport
    C4526 NvAPI_D3D12_ReservedResourceGetDesc
    C4526 NvAPI_D3D12_ResolveSubresourceRegion
    C4526 NvAPI_D3D12_ResourceAliasingBarrier
    C4526 NvAPI_D3D12_SetDepthBoundsTestValues
    C4526 NvAPI_D3D12_SetModifiedWMode
    C4526 NvAPI_D3D12_SetNvShaderExtnSlotSpace
    C4526 NvAPI_D3D12_SetNvShaderExtnSlotSpaceLocalThread
    C4526 NvAPI_D3D12_SetSinglePassStereoMode
    C4526 NvAPI_D3D12_UpdateTileMappings
    C4526 NvAPI_D3D12_UseDriverHeapPriorities
    C4526 NvAPI_D3D1x_BindSwapBarrier
    C4526 NvAPI_D3D1x_CreateSwapChain
    C4526 NvAPI_D3D1x_DisableShaderDiskCache
    C4526 NvAPI_D3D1x_GetGraphicsCapabilities
    C4526 NvAPI_D3D1x_JoinSwapGroup
    C4526 NvAPI_D3D1x_Present
    C4526 NvAPI_D3D1x_QueryFrameCount
    C4526 NvAPI_D3D1x_QueryMaxSwapGroup
    C4526 NvAPI_D3D1x_QuerySwapGroup
    C4526 NvAPI_D3D1x_ResetFrameCount
    C4526 NvAPI_D3D9_AliasSurfaceAsTexture
    C4526 NvAPI_D3D9_BindSwapBarrier
    C4526 NvAPI_D3D9_ClearRT
    C4526 NvAPI_D3D9_CreateSwapChain
    C4526 NvAPI_D3D9_GetSurfaceHandle
    C4526 NvAPI_D3D9_JoinSwapGroup
    C4526 NvAPI_D3D9_Present
    C4526 NvAPI_D3D9_QueryFrameCount
    C4526 NvAPI_D3D9_QueryMaxSwapGroup
    C4526 NvAPI_D3D9_QuerySwapGroup
    C4526 NvAPI_D3D9_RegisterResource
    C4526 NvAPI_D3D9_ResetFrameCount
    C4526 NvAPI_D3D9_StretchRectEx
    C4526 NvAPI_D3D9_UnregisterResource
    C4526 NvAPI_D3D9_VideoSetStereoInfo
    C4526 NvAPI_D3D_BeginResourceRendering
    C4526 NvAPI_D3D_ConfigureAnsel
    C4526 NvAPI_D3D_CreateLateLatchObject
    C4526 NvAPI_D3D_EndResourceRendering
    C4526 NvAPI_D3D_GetCurrentSLIState
    C4526 NvAPI_D3D_GetObjectHandleForResource
    C4526 NvAPI_D3D_ImplicitSLIControl
    C4526 NvAPI_D3D_InitializeNvGazeHandler
    C4526 NvAPI_D3D_InitializeSMPAssist
    C4526 NvAPI_D3D_InitializeVRSHelper
    C4526 NvAPI_D3D_IsGSyncActive
    C4526 NvAPI_D3D_IsGSyncCapable
    C4526 NvAPI_D3D_QueryLateLatchSupport
    C4526 NvAPI_D3D_QueryModifiedWSupport
    C4526 NvAPI_D3D_QueryMultiViewSupport
    C4526 NvAPI_D3D_QuerySMPAssistSupport
    C4526 NvAPI_D3D_QuerySinglePassStereoSupport
    C4526 NvAPI_D3D_RegisterDevice
    C4526 NvAPI_D3D_SetFPSIndicatorState
    C4526 NvAPI_D3D_SetModifiedWMode
    C4526 NvAPI_D3D_SetMultiViewMode
    C4526 NvAPI_D3D_SetResourceHint
    C4526 NvAPI_D3D_SetSinglePassStereoMode
    C4526 NvAPI_DISP_DeleteCustomDisplay
    C4526 NvAPI_DISP_EnumCustomDisplay
    C4526 NvAPI_DISP_GetAssociatedUnAttachedNvidiaDisplayHandle
    C4526 NvAPI_DISP_GetDisplayConfig
    C4526 NvAPI_DISP_GetDisplayIdByDisplayName
    C4526 NvAPI_DISP_GetGDIPrimaryDisplayId
    C4526 NvAPI_DISP_GetMonitorCapabilities
    C4526 NvAPI_DISP_GetMonitorColorCapabilities
    C4526 NvAPI_DISP_GetTiming
    C4526 NvAPI_DISP_RevertCustomDisplayTrial
    C4526 NvAPI_DISP_SaveCustomDisplay
    C4526 NvAPI_DISP_SetDisplayConfig
    C4526 NvAPI_DISP_TryCustomDisplay
    C4526 NvAPI_DRS_CreateApplication
    C4526 NvAPI_DRS_CreateProfile
    C4526 NvAPI_DRS_CreateSession
    C4526 NvAPI_DRS_DeleteApplication
    C4526 NvAPI_DRS_DeleteApplicationEx
    C4526 NvAPI_DRS_DeleteProfile
    C4526 NvAPI_DRS_DeleteProfileSetting
    C4526 NvAPI_DRS_DestroySession
    C4526 NvAPI_DRS_EnumApplications
    C4526 NvAPI_DRS_EnumAvailableSettingIds
    C4526 NvAPI_DRS_EnumAvailableSettingValues
    C4526 NvAPI_DRS_EnumProfiles
    C4526 NvAPI_DRS_EnumSettings
    C4526 NvAPI_DRS_FindApplicationByName
    C4526 NvAPI_DRS_FindProfileByName
    C4526 NvAPI_DRS_GetApplicationInfo
    C4526 NvAPI_DRS_GetBaseProfile
    C4526 NvAPI_DRS_GetCurrentGlobalProfile
    C4526 NvAPI_DRS_GetNumProfiles
    C4526 NvAPI_DRS_GetProfileInfo
    C4526 NvAPI_DRS_GetSetting
    C4526 NvAPI_DRS_GetSettingIdFromName
    C4526 NvAPI_DRS_GetSettingNameFromId
    C4526 NvAPI_DRS_LoadSettings
    C4526 NvAPI_DRS_LoadSettingsFromFile
    C4526 NvAPI_DRS_RestoreAllDefaults
    C4526 NvAPI_DRS_RestoreProfileDefault
    C4526 NvAPI_DRS_RestoreProfileDefaultSetting
    C4526 NvAPI_DRS_SaveSettings
    C4526 NvAPI_DRS_SaveSettingsToFile
    C4526 NvAPI_DRS_SetCurrentGlobalProfile
    C4526 NvAPI_DRS_SetProfileInfo
    C4526 NvAPI_DRS_SetSetting
    C4526 NvAPI_DisableHWCursor
    C4526 NvAPI_Disp_ColorControl
    C4526 NvAPI_Disp_GetHdrCapabilities
    C4526 NvAPI_Disp_HdrColorControl
    C4526 NvAPI_Disp_InfoFrameControl
    C4526 NvAPI_EnableCurrentMosaicTopology
    C4526 NvAPI_EnableHWCursor
    C4526 NvAPI_EnumLogicalGPUs
    C4526 NvAPI_EnumNvidiaDisplayHandle
    C4526 NvAPI_EnumNvidiaUnAttachedDisplayHandle
    C4526 NvAPI_EnumPhysicalGPUs
    C4526 NvAPI_EnumTCCPhysicalGPUs
    C4526 NvAPI_GPU_ClientIllumDevicesGetControl
    C4526 NvAPI_GPU_ClientIllumDevicesGetInfo
    C4526 NvAPI_GPU_ClientIllumDevicesSetControl
    C4526 NvAPI_GPU_ClientIllumZonesGetControl
    C4526 NvAPI_GPU_ClientIllumZonesGetInfo
    C4526 NvAPI_GPU_ClientIllumZonesSetControl
    C4526 NvAPI_GPU_GetAGPAperture
    C4526 NvAPI_GPU_GetActiveOutputs
    C4526 NvAPI_GPU_GetAllClockFrequencies
    C4526 NvAPI_GPU_GetAllDisplayIds
    C4526 NvAPI_GPU_GetAllOutputs
    C4526 NvAPI_GPU_GetBoardInfo
    C4526 NvAPI_GPU_GetBusId
    C4526 NvAPI_GPU_GetBusSlotId
    C4526 NvAPI_GPU_GetBusType
    C4526 NvAPI_GPU_GetConnectedDisplayIds
    C4526 NvAPI_GPU_GetConnectedOutputs
    C4526 NvAPI_GPU_GetConnectedOutputsWithLidState
    C4526 NvAPI_GPU_GetConnectedSLIOutputs
    C4526 NvAPI_GPU_GetConnectedSLIOutputsWithLidState
    C4526 NvAPI_GPU_GetCurrentAGPRate
    C4526 NvAPI_GPU_GetCurrentPCIEDownstreamWidth
    C4526 NvAPI_GPU_GetCurrentPstate
    C4526 NvAPI_GPU_GetDynamicPstatesInfoEx
    C4526 NvAPI_GPU_GetECCConfigurationInfo
    C4526 NvAPI_GPU_GetECCErrorInfo
    C4526 NvAPI_GPU_GetECCStatusInfo
    C4526 NvAPI_GPU_GetEDID
    C4526 NvAPI_GPU_GetFullName
    C4526 NvAPI_GPU_GetGPUType
    C4526 NvAPI_GPU_GetGpuCoreCount
    C4526 NvAPI_GPU_GetHDCPSupportStatus
    C4526 NvAPI_GPU_GetIRQ
    C4526 NvAPI_GPU_GetIllumination
    C4526 NvAPI_GPU_GetLogicalGpuInfo
    C4526 NvAPI_GPU_GetMemoryInfo
    C4526 NvAPI_GPU_GetOutputType
    C4526 NvAPI_GPU_GetPCIIdentifiers
    C4526 NvAPI_GPU_GetPerfDecreaseInfo
    C4526 NvAPI_GPU_GetPhysicalFrameBufferSize
    C4526 NvAPI_GPU_GetPstates20
    C4526 NvAPI_GPU_GetPstatesInfoEx
    C4526 NvAPI_GPU_GetQuadroStatus
    C4526 NvAPI_GPU_GetScanoutCompositionParameter
    C4526 NvAPI_GPU_GetScanoutConfiguration
    C4526 NvAPI_GPU_GetScanoutConfigurationEx
    C4526 NvAPI_GPU_GetScanoutIntensityState
    C4526 NvAPI_GPU_GetScanoutWarpingState
    C4526 NvAPI_GPU_GetShaderSubPipeCount
    C4526 NvAPI_GPU_GetSystemType
    C4526 NvAPI_GPU_GetTachReading
    C4526 NvAPI_GPU_GetThermalSettings
    C4526 NvAPI_GPU_GetVbiosOEMRevision
    C4526 NvAPI_GPU_GetVbiosRevision
    C4526 NvAPI_GPU_GetVbiosVersionString
    C4526 NvAPI_GPU_GetVirtualFrameBufferSize
    C4526 NvAPI_GPU_QueryIlluminationSupport
    C4526 NvAPI_GPU_QueryWorkstationFeatureSupport
    C4526 NvAPI_GPU_ResetECCErrorInfo
    C4526 NvAPI_GPU_SetECCConfiguration
    C4526 NvAPI_GPU_SetEDID
    C4526 NvAPI_GPU_SetIllumination
    C4526 NvAPI_GPU_SetScanoutCompositionParameter
    C4526 NvAPI_GPU_SetScanoutIntensity
    C4526 NvAPI_GPU_SetScanoutWarping
    C4526 NvAPI_GPU_ValidateOutputCombination
    C4526 NvAPI_GPU_WorkstationFeatureQuery
    C4526 NvAPI_GPU_WorkstationFeatureSetup
    C4526 NvAPI_GSync_AdjustSyncDelay
    C4526 NvAPI_GSync_EnumSyncDevices
    C4526 NvAPI_GSync_GetControlParameters
    C4526 NvAPI_GSync_GetStatusParameters
    C4526 NvAPI_GSync_GetSyncStatus
    C4526 NvAPI_GSync_GetTopology
    C4526 NvAPI_GSync_QueryCapabilities
    C4526 NvAPI_GSync_SetControlParameters
    C4526 NvAPI_GSync_SetSyncStateSettings
    C4526 NvAPI_GetAssociatedDisplayOutputId
    C4526 NvAPI_GetAssociatedNvidiaDisplayHandle
    C4526 NvAPI_GetAssociatedNvidiaDisplayName
    C4526 NvAPI_GetCurrentMosaicTopology
    C4526 NvAPI_GetDisplayDriverVersion
    C4526 NvAPI_GetDisplayPortInfo
    C4526 NvAPI_GetErrorMessage
    C4526 NvAPI_GetHDMISupportInfo
    C4526 NvAPI_GetInterfaceVersionString
    C4526 NvAPI_GetLogicalGPUFromDisplay
    C4526 NvAPI_GetLogicalGPUFromPhysicalGPU
    C4526 NvAPI_GetPhysicalGPUFromUnAttachedDisplay
    C4526 NvAPI_GetPhysicalGPUsFromDisplay
    C4526 NvAPI_GetPhysicalGPUsFromLogicalGPU
    C4526 NvAPI_GetSupportedMosaicTopologies
    C4526 NvAPI_GetSupportedViews
    C4526 NvAPI_GetUnAttachedAssociatedDisplayName
    C4526 NvAPI_GetVBlankCounter
    C4526 NvAPI_GetView
    C4526 NvAPI_GetViewEx
    C4526 NvAPI_I2CRead
    C4526 NvAPI_I2CWrite
    C4526 NvAPI_Initialize
    C4526 NvAPI_Mosaic_EnableCurrentTopo
    C4526 NvAPI_Mosaic_EnumDisplayGrids
    C4526 NvAPI_Mosaic_EnumDisplayModes
    C4526 NvAPI_Mosaic_GetCurrentTopo
    C4526 NvAPI_Mosaic_GetDisplayViewportsByResolution
    C4526 NvAPI_Mosaic_GetOverlapLimits
    C4526 NvAPI_Mosaic_GetSupportedTopoInfo
    C4526 NvAPI_Mosaic_GetTopoGroup
    C4526 NvAPI_Mosaic_SetCurrentTopo
    C4526 NvAPI_Mosaic_SetDisplayGrids
    C4526 NvAPI_Mosaic_ValidateDisplayGrids
    C4526 NvAPI_OGL_ExpertModeDefaultsGet
    C4526 NvAPI_OGL_ExpertModeDefaultsSet
    C4526 NvAPI_OGL_ExpertModeGet
    C4526 NvAPI_OGL_ExpertModeSet
    C4526 NvAPI_SYS_GetChipSetInfo
    C4526 NvAPI_SYS_GetDisplayIdFromGpuAndOutputId
    C4526 NvAPI_SYS_GetDriverAndBranchVersion
    C4526 NvAPI_SYS_GetGpuAndOutputIdFromDisplayId
    C4526 NvAPI_SYS_GetLidAndDockInfo
    C4526 NvAPI_SYS_GetPhysicalGpuFromDisplayId
    C4526 NvAPI_SetCurrentMosaicTopology
    C4526 NvAPI_SetDisplayPort
    C4526 NvAPI_SetRefreshRateOverride
    C4526 NvAPI_SetView
    C4526 NvAPI_SetViewEx
    C4526 NvAPI_Stereo_Activate
    C4526 NvAPI_Stereo_CaptureJpegImage
    C4526 NvAPI_Stereo_CapturePngImage
    C4526 NvAPI_Stereo_CreateConfigurationProfileRegistryKey
    C4526 NvAPI_Stereo_CreateHandleFromIUnknown
    C4526 NvAPI_Stereo_Deactivate
    C4526 NvAPI_Stereo_Debug_WasLastDrawStereoized
    C4526 NvAPI_Stereo_DecreaseConvergence
    C4526 NvAPI_Stereo_DecreaseSeparation
    C4526 NvAPI_Stereo_DeleteConfigurationProfileRegistryKey
    C4526 NvAPI_Stereo_DeleteConfigurationProfileValue
    C4526 NvAPI_Stereo_DestroyHandle
    C4526 NvAPI_Stereo_Disable
    C4526 NvAPI_Stereo_Enable
    C4526 NvAPI_Stereo_GetConvergence
    C4526 NvAPI_Stereo_GetDefaultProfile
    C4526 NvAPI_Stereo_GetEyeSeparation
    C4526 NvAPI_Stereo_GetFrustumAdjustMode
    C4526 NvAPI_Stereo_GetSeparation
    C4526 NvAPI_Stereo_GetStereoSupport
    C4526 NvAPI_Stereo_GetSurfaceCreationMode
    C4526 NvAPI_Stereo_IncreaseConvergence
    C4526 NvAPI_Stereo_IncreaseSeparation
    C4526 NvAPI_Stereo_InitActivation
    C4526 NvAPI_Stereo_IsActivated
    C4526 NvAPI_Stereo_IsEnabled
    C4526 NvAPI_Stereo_IsWindowedModeSupported
    C4526 NvAPI_Stereo_ReverseStereoBlitControl
    C4526 NvAPI_Stereo_SetActiveEye
    C4526 NvAPI_Stereo_SetConfigurationProfileValue
    C4526 NvAPI_Stereo_SetConvergence
    C4526 NvAPI_Stereo_SetDefaultProfile
    C4526 NvAPI_Stereo_SetDriverMode
    C4526 NvAPI_Stereo_SetFrustumAdjustMode
    C4526 NvAPI_Stereo_SetNotificationMessage
    C4526 NvAPI_Stereo_SetSeparation
    C4526 NvAPI_Stereo_SetSurfaceCreationMode
    C4526 NvAPI_Stereo_Trigger_Activation
    C4526 NvAPI_Unload
    C4526 NvAPI_VIO_Close
    C4526 NvAPI_VIO_EnumDataFormats
    C4526 NvAPI_VIO_EnumDevices
    C4526 NvAPI_VIO_EnumSignalFormats
    C4526 NvAPI_VIO_GetCSC
    C4526 NvAPI_VIO_GetCapabilities
    C4526 NvAPI_VIO_GetConfig
    C4526 NvAPI_VIO_GetGamma
    C4526 NvAPI_VIO_GetPCIInfo
    C4526 NvAPI_VIO_GetSyncDelay
    C4526 NvAPI_VIO_IsFrameLockModeCompatible
    C4526 NvAPI_VIO_IsRunning
    C4526 NvAPI_VIO_Open
    C4526 NvAPI_VIO_QueryTopology
    C4526 NvAPI_VIO_SetCSC
    C4526 NvAPI_VIO_SetConfig
    C4526 NvAPI_VIO_SetGamma
    C4526 NvAPI_VIO_SetSyncDelay
    C4526 NvAPI_VIO_Start
    C4526 NvAPI_VIO_Status
    C4526 NvAPI_VIO_Stop
    C4526 NvAPI_VIO_SyncFormatDetect
   14EB9C DxcCreateInstance2
   14EB9C __imp_DxcCreateInstance2
   14EC0E DxcCreateInstance
   14EC0E __imp_DxcCreateInstance
   14EC80 dxcompiler_NULL_THUNK_DATA
   14EF1A __IMPORT_DESCRIPTOR_dxcompiler
   14F150 PIXReportCounter
   14F150 __imp_PIXReportCounter
   14F1C8 PIXNotifyWakeFromFenceSignal
   14F1C8 __imp_PIXNotifyWakeFromFenceSignal
   14F24C PIXGetThreadInfo
   14F24C __imp_PIXGetThreadInfo
   14F2C4 PIXGetCaptureState
   14F2C4 __imp_PIXGetCaptureState
   14F33E PIXEventsReplaceBlock
   14F33E __imp_PIXEventsReplaceBlock
   14F3BC PIXEndCapture
   14F3BC __imp_PIXEndCapture
   14F432 PIXBeginCapture1
   14F432 __imp_PIXBeginCapture1
   14F4AA ?PIXSetMarkerOnCommandList@@YAXPEAUID3D12GraphicsCommandList@@_KPEBD@Z
   14F4AA __imp_?PIXSetMarkerOnCommandList@@YAXPEAUID3D12GraphicsCommandList@@_KPEBD@Z
   14F558 ?PIXEndEventOnCommandList@@YAXPEAUID3D12GraphicsCommandList@@@Z
   14F558 __imp_?PIXEndEventOnCommandList@@YAXPEAUID3D12GraphicsCommandList@@@Z
   14F600 ?PIXBeginEventOnCommandList@@YAXPEAUID3D12GraphicsCommandList@@_KPEBD@Z
   14F600 __imp_?PIXBeginEventOnCommandList@@YAXPEAUID3D12GraphicsCommandList@@_KPEBD@Z
   14F6B0 WinPixEventRuntime_NULL_THUNK_DATA
   14F962 __IMPORT_DESCRIPTOR_WinPixEventRuntime
   14FBB8 ??$?0$$V@?$_Compressed_pair@V?$allocator@I@std@@V?$_Vector_val@U?$_Simple_types@I@std@@@2@$00@std@@QEAA@U_Zero_then_variadic_args_t@1@@Z
   14FBB8 ??$?0$$V@?$_Compressed_pair@V?$allocator@Ubasisu_slice_info@basist@@@std@@V?$_Vector_val@U?$_Simple_types@Ubasisu_slice_info@basist@@@std@@@2@$00@std@@QEAA@U_Zero_then_variadic_args_t@1@@Z
   14FBB8 ??$?0$$V@?$_Compressed_pair@V?$allocator@Uetc1_selector_palette_entry@basist@@@std@@V?$_Vector_val@U?$_Simple_types@Uetc1_selector_palette_entry@basist@@@std@@@2@$00@std@@QEAA@U_Zero_then_variadic_args_t@1@@Z
   14FBB8 ??$?0V?$move_iterator@PEAPEAUBuffer@@@eastl@@@?$vector@PEAUBuffer@@Vallocator_forge@eastl@@@eastl@@QEAA@V?$move_iterator@PEAPEAUBuffer@@@1@0AEBVallocator_forge@1@@Z
   14FBB8 ??$?GPEAPEAUBuffer@@PEAPEAU0@@eastl@@YA_JAEBV?$move_iterator@PEAPEAUBuffer@@@0@0@Z
   14FBB8 ??$?HDVallocator_forge@eastl@@@eastl@@YA?AV?$basic_string@DVallocator_forge@eastl@@@0@$$QEAV10@AEBV10@@Z
   14FBB8 ??$?HDVallocator_forge@eastl@@@eastl@@YA?AV?$basic_string@DVallocator_forge@eastl@@@0@$$QEAV10@PEBD@Z
   14FBB8 ??$?HDVallocator_forge@eastl@@@eastl@@YA?AV?$basic_string@DVallocator_forge@eastl@@@0@AEBV10@PEBD@Z
   14FBB8 ??$?HDVallocator_forge@eastl@@@eastl@@YA?AV?$basic_string@DVallocator_forge@eastl@@@0@PEBDAEBV10@@Z
   14FBB8 ??$CharStringUninitializedCopy@D@eastl@@YAPEADPEBD0PEAD@Z
   14FBB8 ??$CharStrlen@D@eastl@@YA_KPEBD@Z
   14FBB8 ??$DoInit@V?$move_iterator@PEAPEAUBuffer@@@eastl@@@?$vector@PEAUBuffer@@Vallocator_forge@eastl@@@eastl@@IEAAXV?$move_iterator@PEAPEAUBuffer@@@1@0U?$integral_constant@_N$0A@@1@@Z
   14FBB8 ??$DoInitFromIterator@V?$move_iterator@PEAPEAUBuffer@@@eastl@@@?$vector@PEAUBuffer@@Vallocator_forge@eastl@@@eastl@@IEAAXV?$move_iterator@PEAPEAUBuffer@@@1@0Uforward_iterator_tag@1@@Z
   14FBB8 ??$DoInsertValueEnd@AEAPEAUBuffer@@@?$vector@PEAUBuffer@@Vallocator_forge@eastl@@@eastl@@IEAAXAEAPEAUBuffer@@@Z
   14FBB8 ??$DoInsertValueEnd@AEBQEAUBuffer@@@?$vector@PEAUBuffer@@Vallocator_forge@eastl@@@eastl@@IEAAXAEBQEAUBuffer@@@Z
   14FBB8 ??$DoInsertValueEnd@UUpdateRequest@@@?$vector@UUpdateRequest@@Vallocator_forge@eastl@@@eastl@@IEAAX$$QEAUUpdateRequest@@@Z
   14FBB8 ??$DoRealloc@PEAPEAUBuffer@@@?$vector@PEAUBuffer@@Vallocator_forge@eastl@@@eastl@@IEAAPEAPEAUBuffer@@_KPEAPEAU2@1Ushould_move_tag@01@@Z
   14FBB8 ??$_Deallocate@$0BA@$0A@@std@@YAXPEAX_K@Z
   14FBB8 ??$_Destroy_range@V?$allocator@E@std@@@std@@YAXPEAEQEAEAEAV?$allocator@E@0@@Z
   14FBB8 ??$_Destroy_range@V?$allocator@F@std@@@std@@YAXPEAFQEAFAEAV?$allocator@F@0@@Z
   14FBB8 ??$_Destroy_range@V?$allocator@H@std@@@std@@YAXPEAHQEAHAEAV?$allocator@H@0@@Z
   14FBB8 ??$_Destroy_range@V?$allocator@I@std@@@std@@YAXPEAIQEAIAEAV?$allocator@I@0@@Z
   14FBB8 ??$_Destroy_range@V?$allocator@Ubasisu_slice_info@basist@@@std@@@std@@YAXPEAUbasisu_slice_info@basist@@QEAU12@AEAV?$allocator@Ubasisu_slice_info@basist@@@0@@Z
   14FBB8 ??$_Destroy_range@V?$allocator@Ublock_preds@basisu_transcoder_state@basist@@@std@@@std@@YAXPEAUblock_preds@basisu_transcoder_state@basist@@QEAU123@AEAV?$allocator@Ublock_preds@basisu_transcoder_state@basist@@@0@@Z
   14FBB8 ??$_Destroy_range@V?$allocator@Uendpoint@basist@@@std@@@std@@YAXPEAUendpoint@basist@@QEAU12@AEAV?$allocator@Uendpoint@basist@@@0@@Z
   14FBB8 ??$_Destroy_range@V?$allocator@Uetc1_selector_palette_entry@basist@@@std@@@std@@YAXPEAUetc1_selector_palette_entry@basist@@QEAU12@AEAV?$allocator@Uetc1_selector_palette_entry@basist@@@0@@Z
   14FBB8 ??$_Destroy_range@V?$allocator@Uselector@basist@@@std@@@std@@YAXPEAUselector@basist@@QEAU12@AEAV?$allocator@Uselector@basist@@@0@@Z
   14FBB8 ??$addressof@UShaderMacro@@@eastl@@YAPEAUShaderMacro@@AEAU1@@Z
   14FBB8 ??$allocate_memory@Vallocator_forge@eastl@@@eastl@@YAPEAXAEAVallocator_forge@0@_K11@Z
   14FBB8 ??$copy@V?$generic_iterator@PEAPEAUBuffer@@X@eastl@@V12@@eastl@@YA?AV?$generic_iterator@PEAPEAUBuffer@@X@0@V10@00@Z
   14FBB8 ??$copy@V?$generic_iterator@PEAUUpdateRequest@@X@eastl@@V12@@eastl@@YA?AV?$generic_iterator@PEAUUpdateRequest@@X@0@V10@00@Z
   14FBB8 ??$copy@V?$generic_iterator@V?$move_iterator@PEAPEAUBuffer@@@eastl@@X@eastl@@V?$generic_iterator@PEAPEAUBuffer@@X@2@@eastl@@YA?AV?$generic_iterator@PEAPEAUBuffer@@X@0@V?$generic_iterator@V?$move_iterator@PEAPEAUBuffer@@@eastl@@X@0@0V10@@Z
   14FBB8 ??$cp_swap@PEAPEAUBuffer@@@eastl@@YAXAEAPEAPEAUBuffer@@0@Z
   14FBB8 ??$cp_swap@PEAUUpdateRequest@@@eastl@@YAXAEAPEAUUpdateRequest@@0@Z
   14FBB8 ??$destruct@PEAPEAUBuffer@@@eastl@@YAXPEAPEAUBuffer@@0@Z
   14FBB8 ??$destruct@PEAUShaderMacro@@@eastl@@YAXPEAUShaderMacro@@0@Z
   14FBB8 ??$destruct@PEAUUpdateRequest@@@eastl@@YAXPEAUUpdateRequest@@0@Z
   14FBB8 ??$destruct_impl@PEAPEAUBuffer@@@eastl@@YAXPEAPEAUBuffer@@0U?$integral_constant@_N$00@0@@Z
   14FBB8 ??$destruct_impl@PEAUShaderMacro@@@eastl@@YAXPEAUShaderMacro@@0U?$integral_constant@_N$00@0@@Z
   14FBB8 ??$destruct_impl@PEAUUpdateRequest@@@eastl@@YAXPEAUUpdateRequest@@0U?$integral_constant@_N$00@0@@Z
   14FBB8 ??$distance@V?$move_iterator@PEAPEAUBuffer@@@eastl@@@eastl@@YA_JV?$move_iterator@PEAPEAUBuffer@@@0@0@Z
   14FBB8 ??$distance_impl@V?$move_iterator@PEAPEAUBuffer@@@eastl@@@eastl@@YA_JV?$move_iterator@PEAPEAUBuffer@@@0@0Urandom_access_iterator_tag@0@@Z
   14FBB8 ??$emplace_back@AEAPEAUBuffer@@@?$vector@PEAUBuffer@@Vallocator_forge@eastl@@@eastl@@QEAAAEAPEAUBuffer@@AEAPEAU2@@Z
   14FBB8 ??$emplace_back@UUpdateRequest@@@?$vector@UUpdateRequest@@Vallocator_forge@eastl@@@eastl@@QEAAAEAUUpdateRequest@@$$QEAU2@@Z
   14FBB8 ??$find@PEBDD@eastl@@YAPEBDPEBD0AEBD@Z
   14FBB8 ??$forward@AEAPEAUBuffer@@@eastl@@YAAEAPEAUBuffer@@AEAPEAU1@@Z
   14FBB8 ??$forward@AEBQEAUBuffer@@@eastl@@YAAEBQEAUBuffer@@AEBQEAU1@@Z
   14FBB8 ??$forward@UUpdateRequest@@@eastl@@YA$$QEAUUpdateRequest@@AEAU1@@Z
   14FBB8 ??$max@I@Vectormath@@YAIAEBI0@Z
   14FBB8 ??$max@M@Vectormath@@YAMAEBM0@Z
   14FBB8 ??$max@_K@Vectormath@@YA_KAEB_K0@Z
   14FBB8 ??$max@_K@eastl@@YA_K_K0@Z
   14FBB8 ??$max_alt@_K@eastl@@YA_K_K0@Z
   14FBB8 ??$min@M@Vectormath@@YAMAEBM0@Z
   14FBB8 ??$min@_K@Vectormath@@YA_KAEB_K0@Z
   14FBB8 ??$move@AEAPEAPEAUBuffer@@@eastl@@YA$$QEAPEAPEAUBuffer@@AEAPEAPEAU1@@Z
   14FBB8 ??$move@AEAPEAUUpdateRequest@@@eastl@@YA$$QEAPEAUUpdateRequest@@AEAPEAU1@@Z
   14FBB8 ??$move@AEAULayout@?$basic_string@DVallocator_forge@eastl@@@eastl@@@eastl@@YA$$QEAULayout@?$basic_string@DVallocator_forge@eastl@@@0@AEAU120@@Z
   14FBB8 ??$move@AEAURawLayout@?$basic_string@DVallocator_forge@eastl@@@eastl@@@eastl@@YA$$QEAURawLayout@?$basic_string@DVallocator_forge@eastl@@@0@AEAU120@@Z
   14FBB8 ??$move@AEAV?$basic_string@DVallocator_forge@eastl@@@eastl@@@eastl@@YA$$QEAV?$basic_string@DVallocator_forge@eastl@@@0@AEAV10@@Z
   14FBB8 ??$move_and_copy_chooser@$0A@PEAPEAUBuffer@@PEAPEAU1@@eastl@@YAPEAPEAUBuffer@@PEAPEAU1@00@Z
   14FBB8 ??$move_and_copy_chooser@$0A@PEAUUpdateRequest@@PEAU1@@eastl@@YAPEAUUpdateRequest@@PEAU1@00@Z
   14FBB8 ??$move_and_copy_unwrapper@$0A@PEAPEAUBuffer@@V?$generic_iterator@PEAPEAUBuffer@@X@eastl@@@eastl@@YA?AV?$generic_iterator@PEAPEAUBuffer@@X@0@PEAPEAUBuffer@@0V10@@Z
   14FBB8 ??$move_and_copy_unwrapper@$0A@PEAUUpdateRequest@@V?$generic_iterator@PEAUUpdateRequest@@X@eastl@@@eastl@@YA?AV?$generic_iterator@PEAUUpdateRequest@@X@0@PEAUUpdateRequest@@0V10@@Z
   14FBB8 ??$move_and_copy_unwrapper@$0A@V?$move_iterator@PEAPEAUBuffer@@@eastl@@V?$generic_iterator@PEAPEAUBuffer@@X@2@@eastl@@YA?AV?$generic_iterator@PEAPEAUBuffer@@X@0@V?$move_iterator@PEAPEAUBuffer@@@0@0V10@@Z
   14FBB8 ??$move_or_copy@PEAUBuffer@@@?$move_and_copy_helper@Urandom_access_iterator_tag@eastl@@$0A@$00@eastl@@SAPEAPEAUBuffer@@PEBQEAU2@0PEAPEAU2@@Z
   14FBB8 ??$move_or_copy@UUpdateRequest@@@?$move_and_copy_helper@Urandom_access_iterator_tag@eastl@@$0A@$00@eastl@@SAPEAUUpdateRequest@@PEBU2@0PEAU2@@Z
   14FBB8 ??$search@PEBDPEBD@eastl@@YAPEBDPEBD000@Z
   14FBB8 ??$swap@PEAPEAUBuffer@@@eastl@@YAXAEAPEAPEAUBuffer@@0@Z
   14FBB8 ??$swap@PEAPEAUBuffer@@Vallocator_forge@eastl@@@eastl@@YAXAEAV?$compressed_pair@PEAPEAUBuffer@@Vallocator_forge@eastl@@@0@0@Z
   14FBB8 ??$swap@PEAUUpdateRequest@@@eastl@@YAXAEAPEAUUpdateRequest@@0@Z
   14FBB8 ??$swap@PEAUUpdateRequest@@Vallocator_forge@eastl@@@eastl@@YAXAEAV?$compressed_pair@PEAUUpdateRequest@@Vallocator_forge@eastl@@@0@0@Z
   14FBB8 ??$swap@URawLayout@?$basic_string@DVallocator_forge@eastl@@@eastl@@@eastl@@YAXAEAURawLayout@?$basic_string@DVallocator_forge@eastl@@@0@0@Z
   14FBB8 ??$swap@UUpdateRequest@@Vallocator_forge@eastl@@@eastl@@YAXAEAV?$vector@UUpdateRequest@@Vallocator_forge@eastl@@@0@0@Z
   14FBB8 ??$uninitialized_copy_impl@V?$generic_iterator@V?$move_iterator@PEAPEAUBuffer@@@eastl@@X@eastl@@V?$generic_iterator@PEAPEAUBuffer@@X@2@@Internal@eastl@@YA?AV?$generic_iterator@PEAPEAUBuffer@@X@1@V?$generic_iterator@V?$move_iterator@PEAPEAUBuffer@@@eastl@@X@1@0V21@U?$integral_constant@_N$00@1@@Z
   14FBB8 ??$uninitialized_copy_ptr@V?$move_iterator@PEAPEAUBuffer@@@eastl@@V12@PEAPEAUBuffer@@@eastl@@YAPEAPEAUBuffer@@V?$move_iterator@PEAPEAUBuffer@@@0@0PEAPEAU1@@Z
   14FBB8 ??$uninitialized_default_fill_n@PEAPEAUBuffer@@_K@eastl@@YAXPEAPEAUBuffer@@_K@Z
   14FBB8 ??$uninitialized_default_fill_n@PEAUShaderMacro@@_K@eastl@@YAXPEAUShaderMacro@@_K@Z
   14FBB8 ??$uninitialized_default_fill_n_impl@PEAPEAUBuffer@@_K@Internal@eastl@@YAXPEAPEAUBuffer@@_KU?$integral_constant@_N$00@1@@Z
   14FBB8 ??$uninitialized_default_fill_n_impl@PEAUShaderMacro@@_K@Internal@eastl@@YAXPEAUShaderMacro@@_KU?$integral_constant@_N$0A@@1@@Z
   14FBB8 ??$uninitialized_move_impl@V?$generic_iterator@PEAPEAUBuffer@@X@eastl@@V12@@Internal@eastl@@YA?AV?$generic_iterator@PEAPEAUBuffer@@X@1@V21@00U?$integral_constant@_N$00@1@@Z
   14FBB8 ??$uninitialized_move_impl@V?$generic_iterator@PEAUUpdateRequest@@X@eastl@@V12@@Internal@eastl@@YA?AV?$generic_iterator@PEAUUpdateRequest@@X@1@V21@00U?$integral_constant@_N$00@1@@Z
   14FBB8 ??$uninitialized_move_ptr@PEAPEAUBuffer@@PEAPEAU1@PEAPEAU1@@eastl@@YAPEAPEAUBuffer@@PEAPEAU1@00@Z
   14FBB8 ??$uninitialized_move_ptr@PEAUUpdateRequest@@PEAU1@PEAU1@@eastl@@YAPEAUUpdateRequest@@PEAU1@00@Z
   14FBB8 ??$uninitialized_move_ptr_if_noexcept@PEAPEAUBuffer@@PEAPEAU1@PEAPEAU1@@eastl@@YAPEAPEAUBuffer@@PEAPEAU1@00@Z
   14FBB8 ??$uninitialized_move_ptr_if_noexcept@PEAUUpdateRequest@@PEAU1@PEAU1@@eastl@@YAPEAUUpdateRequest@@PEAU1@00@Z
   14FBB8 ??$unwrap_iterator@PEAPEAUBuffer@@@eastl@@YAPEAPEAUBuffer@@PEAPEAU1@@Z
   14FBB8 ??$unwrap_iterator@PEAUUpdateRequest@@@eastl@@YAPEAUUpdateRequest@@PEAU1@@Z
   14FBB8 ??$unwrap_iterator@V?$generic_iterator@PEAPEAUBuffer@@X@eastl@@@eastl@@YAPEAPEAUBuffer@@V?$generic_iterator@PEAPEAUBuffer@@X@0@@Z
   14FBB8 ??$unwrap_iterator@V?$generic_iterator@PEAUUpdateRequest@@X@eastl@@@eastl@@YAPEAUUpdateRequest@@V?$generic_iterator@PEAUUpdateRequest@@X@0@@Z
   14FBB8 ??$unwrap_iterator@V?$generic_iterator@V?$move_iterator@PEAPEAUBuffer@@@eastl@@X@eastl@@@eastl@@YA?AV?$move_iterator@PEAPEAUBuffer@@@0@V?$generic_iterator@V?$move_iterator@PEAPEAUBuffer@@@eastl@@X@0@@Z
   14FBB8 ??$unwrap_iterator@V?$move_iterator@PEAPEAUBuffer@@@eastl@@@eastl@@YAPEAPEAUBuffer@@V?$move_iterator@PEAPEAUBuffer@@@0@@Z
   14FBB8 ??0?$VectorBase@PEAUBuffer@@Vallocator_forge@eastl@@@eastl@@QEAA@AEBVallocator_forge@1@@Z
   14FBB8 ??0?$VectorBase@PEAUBuffer@@Vallocator_forge@eastl@@@eastl@@QEAA@XZ
   14FBB8 ??0?$VectorBase@UShaderMacro@@Vallocator_forge@eastl@@@eastl@@QEAA@_KAEBVallocator_forge@1@@Z
   14FBB8 ??0?$VectorBase@UUpdateRequest@@Vallocator_forge@eastl@@@eastl@@QEAA@XZ
   14FBB8 ??0?$_Vector_val@U?$_Simple_types@I@std@@@std@@QEAA@XZ
   14FBB8 ??0?$_Vector_val@U?$_Simple_types@Ubasisu_slice_info@basist@@@std@@@std@@QEAA@XZ
   14FBB8 ??0?$_Vector_val@U?$_Simple_types@Uetc1_selector_palette_entry@basist@@@std@@@std@@QEAA@XZ
   14FBB8 ??0?$allocator@I@std@@QEAA@XZ
   14FBB8 ??0?$allocator@Ubasisu_slice_info@basist@@@std@@QEAA@XZ
   14FBB8 ??0?$allocator@Uetc1_selector_palette_entry@basist@@@std@@QEAA@XZ
   14FBB8 ??0?$basic_string@DVallocator_forge@eastl@@@eastl@@QEAA@$$QEAV01@@Z
   14FBB8 ??0?$basic_string@DVallocator_forge@eastl@@@eastl@@QEAA@AEBV01@@Z
   14FBB8 ??0?$basic_string@DVallocator_forge@eastl@@@eastl@@QEAA@PEBDAEBVallocator_forge@1@@Z
   14FBB8 ??0?$basic_string@DVallocator_forge@eastl@@@eastl@@QEAA@UCtorDoNotInitialize@01@_KAEBVallocator_forge@1@@Z
   14FBB8 ??0?$basic_string@DVallocator_forge@eastl@@@eastl@@QEAA@XZ
   14FBB8 ??0?$compressed_pair@PEAPEAUBuffer@@Vallocator_forge@eastl@@@eastl@@QEAA@QEAPEAUBuffer@@AEBVallocator_forge@1@@Z
   14FBB8 ??0?$compressed_pair@PEAUShaderMacro@@Vallocator_forge@eastl@@@eastl@@QEAA@AEBVallocator_forge@1@@Z
   14FBB8 ??0?$compressed_pair@PEAUUpdateRequest@@Vallocator_forge@eastl@@@eastl@@QEAA@QEAUUpdateRequest@@AEBVallocator_forge@1@@Z
   14FBB8 ??0?$compressed_pair@ULayout@?$basic_string@DVallocator_forge@eastl@@@eastl@@Vallocator_forge@3@@eastl@@QEAA@AEBVallocator_forge@1@@Z
   14FBB8 ??0?$compressed_pair_imp@PEAPEAUBuffer@@Vallocator_forge@eastl@@$01@eastl@@QEAA@QEAPEAUBuffer@@AEBVallocator_forge@1@@Z
   14FBB8 ??0?$compressed_pair_imp@PEAUShaderMacro@@Vallocator_forge@eastl@@$01@eastl@@QEAA@AEBVallocator_forge@1@@Z
   14FBB8 ??0?$compressed_pair_imp@PEAUUpdateRequest@@Vallocator_forge@eastl@@$01@eastl@@QEAA@QEAUUpdateRequest@@AEBVallocator_forge@1@@Z
   14FBB8 ??0?$compressed_pair_imp@ULayout@?$basic_string@DVallocator_forge@eastl@@@eastl@@Vallocator_forge@3@$01@eastl@@QEAA@AEBVallocator_forge@1@@Z
   14FBB8 ??0?$generic_iterator@PEAPEAUBuffer@@X@eastl@@QEAA@AEBQEAPEAUBuffer@@@Z
   14FBB8 ??0?$generic_iterator@PEAUUpdateRequest@@X@eastl@@QEAA@AEBQEAUUpdateRequest@@@Z
   14FBB8 ??0?$generic_iterator@V?$move_iterator@PEAPEAUBuffer@@@eastl@@X@eastl@@QEAA@AEBV?$move_iterator@PEAPEAUBuffer@@@1@@Z
   14FBB8 ??0?$move_iterator@PEAPEAUBuffer@@@eastl@@QEAA@PEAPEAUBuffer@@@Z
   14FBB8 ??0?$vector@IV?$allocator@I@std@@@std@@QEAA@XZ
   14FBB8 ??0?$vector@PEAUBuffer@@Vallocator_forge@eastl@@@eastl@@QEAA@XZ
   14FBB8 ??0?$vector@UShaderMacro@@Vallocator_forge@eastl@@@eastl@@QEAA@_KAEBVallocator_forge@1@@Z
   14FBB8 ??0?$vector@UUpdateRequest@@Vallocator_forge@eastl@@@eastl@@QEAA@XZ
   14FBB8 ??0?$vector@Ubasisu_slice_info@basist@@V?$allocator@Ubasisu_slice_info@basist@@@std@@@std@@QEAA@XZ
   14FBB8 ??0?$vector@Uetc1_selector_palette_entry@basist@@V?$allocator@Uetc1_selector_palette_entry@basist@@@std@@@std@@QEAA@XZ
   14FBB8 ??0CopyResourceSet@@QEAA@XZ
   14FBB8 ??0Layout@?$basic_string@DVallocator_forge@eastl@@@eastl@@QEAA@XZ
   14FBB8 ??0ResourceLoader@@QEAA@XZ
   14FBB8 ??0UpdateRequest@@QEAA@AEBUBufferBarrier@@@Z
   14FBB8 ??0UpdateRequest@@QEAA@AEBUBufferUpdateDesc@@@Z
   14FBB8 ??0UpdateRequest@@QEAA@AEBUGeometryLoadDesc@@@Z
   14FBB8 ??0UpdateRequest@@QEAA@AEBUTextureBarrier@@@Z
   14FBB8 ??0UpdateRequest@@QEAA@AEBUTextureLoadDesc@@@Z
   14FBB8 ??0UpdateRequest@@QEAA@AEBUTextureUpdateDescInternal@@@Z
   14FBB8 ??0allocator_forge@eastl@@QEAA@AEBV01@@Z
   14FBB8 ??0allocator_forge@eastl@@QEAA@PEBD@Z
   14FBB8 ??0basisu_file_info@basist@@QEAA@XZ
   14FBB8 ??0etc1_global_selector_codebook@basist@@QEAA@IPEBI@Z
   14FBB8 ??1?$VectorBase@PEAUBuffer@@Vallocator_forge@eastl@@@eastl@@QEAA@XZ
   14FBB8 ??1?$VectorBase@UShaderMacro@@Vallocator_forge@eastl@@@eastl@@QEAA@XZ
   14FBB8 ??1?$VectorBase@UUpdateRequest@@Vallocator_forge@eastl@@@eastl@@QEAA@XZ
   14FBB8 ??1?$basic_string@DVallocator_forge@eastl@@@eastl@@QEAA@XZ
   14FBB8 ??1?$vector@EV?$allocator@E@std@@@std@@QEAA@XZ
   14FBB8 ??1?$vector@FV?$allocator@F@std@@@std@@QEAA@XZ
   14FBB8 ??1?$vector@HV?$allocator@H@std@@@std@@QEAA@XZ
   14FBB8 ??1?$vector@IV?$allocator@I@std@@@std@@QEAA@XZ
   14FBB8 ??1?$vector@PEAUBuffer@@Vallocator_forge@eastl@@@eastl@@QEAA@XZ
   14FBB8 ??1?$vector@UShaderMacro@@Vallocator_forge@eastl@@@eastl@@QEAA@XZ
   14FBB8 ??1?$vector@UUpdateRequest@@Vallocator_forge@eastl@@@eastl@@QEAA@XZ
   14FBB8 ??1?$vector@Ubasisu_slice_info@basist@@V?$allocator@Ubasisu_slice_info@basist@@@std@@@std@@QEAA@XZ
   14FBB8 ??1?$vector@Ublock_preds@basisu_transcoder_state@basist@@V?$allocator@Ublock_preds@basisu_transcoder_state@basist@@@std@@@std@@QEAA@XZ
   14FBB8 ??1?$vector@Uendpoint@basist@@V?$allocator@Uendpoint@basist@@@std@@@std@@QEAA@XZ
   14FBB8 ??1?$vector@Uetc1_selector_palette_entry@basist@@V?$allocator@Uetc1_selector_palette_entry@basist@@@std@@@std@@QEAA@XZ
   14FBB8 ??1?$vector@Uselector@basist@@V?$allocator@Uselector@basist@@@std@@@std@@QEAA@XZ
   14FBB8 ??1ResourceLoader@@QEAA@XZ
   14FBB8 ??1basisu_file_info@basist@@QEAA@XZ
   14FBB8 ??1basisu_lowlevel_transcoder@basist@@QEAA@XZ
   14FBB8 ??1basisu_transcoder@basist@@QEAA@XZ
   14FBB8 ??1basisu_transcoder_state@basist@@QEAA@XZ
   14FBB8 ??1etc1_global_selector_codebook@basist@@QEAA@XZ
   14FBB8 ??1huffman_decoding_table@basist@@QEAA@XZ
   14FBB8 ??2@YAPEAX_KPEAX@Z
   14FBB8 ??4?$basic_string@DVallocator_forge@eastl@@@eastl@@QEAAAEAV01@PEBD@Z
   14FBB8 ??4Layout@?$basic_string@DVallocator_forge@eastl@@@eastl@@QEAAAEAU012@$$QEAU012@@Z
   14FBB8 ??A?$vector@IV?$allocator@I@std@@@std@@QEAAAEAI_K@Z
   14FBB8 ??A?$vector@UShaderMacro@@Vallocator_forge@eastl@@@eastl@@QEAAAEAUShaderMacro@@_K@Z
   14FBB8 ??A?$vector@UUpdateRequest@@Vallocator_forge@eastl@@@eastl@@QEAAAEAUUpdateRequest@@_K@Z
   14FBB8 ??R?$string_hash@V?$basic_string@DVallocator_forge@eastl@@@eastl@@@eastl@@QEBA_KAEBV?$basic_string@DVallocator_forge@eastl@@@1@@Z
   14FBB8 ??Y?$basic_string@DVallocator_forge@eastl@@@eastl@@QEAAAEAV01@AEBV01@@Z
   14FBB8 ??Y?$basic_string@DVallocator_forge@eastl@@@eastl@@QEAAAEAV01@PEBD@Z
   14FBB8 ??_C@_01EEMJAFIK@?6@
   14FBB8 ??_C@_02CBLDBPFN@?1?1@
   14FBB8 ??_C@_02FMMEOLBI@?1?$CK@
   14FBB8 ??_C@_02GMHACPFF@?$CFu@
   14FBB8 ??_C@_02JDPG@rb@
   14FBB8 ??_C@_03CBDDAJHO@dds@
   14FBB8 ??_C@_03GACAABJG@?3?1?1@
   14FBB8 ??_C@_03GBBABMJN@uri@
   14FBB8 ??_C@_03GOEMNEDI@glb@
   14FBB8 ??_C@_03IGICGDJD@ktx@
   14FBB8 ??_C@_03JKEMFFC@gnf@
   14FBB8 ??_C@_03KLIPLJLL@min@
   14FBB8 ??_C@_03LJAEFNNE@max@
   14FBB8 ??_C@_03LMBOIHIB@svt@
   14FBB8 ??_C@_04BPFMGPMB@_?$CFzu@
   14FBB8 ??_C@_04CBBAKHLB@tesc@
   14FBB8 ??_C@_04CFMIEIBO@MAT3@
   14FBB8 ??_C@_04CLMONKIF@node@
   14FBB8 ??_C@_04DGAOHKJ@gltf@
   14FBB8 ??_C@_04DMNDHJFP@MAT2@
   14FBB8 ??_C@_04FKJKNAEF@xmag@
   14FBB8 ??_C@_04FPJBBKHA@vert@
   14FBB8 ??_C@_04GHJNJNPO@main@
   14FBB8 ??_C@_04GHPKPJPF@ymag@
   14FBB8 ??_C@_04GKHLBAIJ@?4bin@
   14FBB8 ??_C@_04GKIJNONJ@MAT4@
   14FBB8 ??_C@_04GMGOKAFF@mode@
   14FBB8 ??_C@_04GPMDFGEJ@type@
   14FBB8 ??_C@_04HHEKAADH@tese@
   14FBB8 ??_C@_04INDALOGP@frag@
   14FBB8 ??_C@_04INOPDNHJ@geom@
   14FBB8 ??_C@_04KEPDMMCP@VEC3@
   14FBB8 ??_C@_04KJFMDLBF@rgen@
   14FBB8 ??_C@_04KPBEILIJ@mesh@
   14FBB8 ??_C@_04LNEJFJGI@path@
   14FBB8 ??_C@_04LNOIPNGO@VEC2@
   14FBB8 ??_C@_04LOAJBDKD@true@
   14FBB8 ??_C@_04MAOOOCDA@zfar@
   14FBB8 ??_C@_04MEMAJGDJ@name@
   14FBB8 ??_C@_04MHGBKNGF@MASK@
   14FBB8 ??_C@_04MOOLDHHD@STEP@
   14FBB8 ??_C@_04NHPAFEHJ@skin@
   14FBB8 ??_C@_04OEEIACIO@spot@
   14FBB8 ??_C@_04OJLMHAOO@yfov@
   14FBB8 ??_C@_04OLDKMDKP@comp@
   14FBB8 ??_C@_04OLLCFKOI@VEC4@
   14FBB8 ??_C@_04PFPLFJBM@rint@
   14FBB8 ??_C@_05BBEJFBFA@point@
   14FBB8 ??_C@_05CCGOGOBM@range@
   14FBB8 ??_C@_05CEICGMLK@rchit@
   14FBB8 ??_C@_05CNBMBDPJ@skins@
   14FBB8 ??_C@_05DFJCHPDH@input@
   14FBB8 ??_C@_05DPNLPLKI@COLOR@
   14FBB8 ??_C@_05ELCCFCFH@scene@
   14FBB8 ??_C@_05EPCCKCPH@asset@
   14FBB8 ??_C@_05FKHKFDID@index@
   14FBB8 ??_C@_05FOECDPNK@rahit@
   14FBB8 ??_C@_05HNPOAFNP@rmiss@
   14FBB8 ??_C@_05IOMEMJEC@count@
   14FBB8 ??_C@_05JFMNHLBI@basis@
   14FBB8 ??_C@_05JJOLJDEA@nodes@
   14FBB8 ??_C@_05JKGCAEIF@znear@
   14FBB8 ??_C@_05JNPFCGCL@wrapS@
   14FBB8 ??_C@_05MHMEBBGO@scale@
   14FBB8 ??_C@_05MICJANKE@Metal@
   14FBB8 ??_C@_05MLPHJDAP@D3D11@
   14FBB8 ??_C@_05NCLELAOM@wrapT@
   14FBB8 ??_C@_05NDHFMCLH@BLEND@
   14FBB8 ??_C@_05NNFKHJIC@rcall@
   14FBB8 ??_C@_05OANKMAMM@D3D12@
   14FBB8 ??_C@_05OEPGNJB@light@
   14FBB8 ??_C@_05PBOLAFEI@data?3@
   14FBB8 ??_C@_05PEENBMOG@color@
   14FBB8 ??_C@_06CGNOPMBC@matrix@
   14FBB8 ??_C@_06CNAFGDMD@OPAQUE@
   14FBB8 ??_C@_06DKIGHACF@output@
   14FBB8 ??_C@_06FNKMPIBD@camera@
   14FBB8 ??_C@_06GEKOPAHD@values@
   14FBB8 ??_C@_06HLLDPCCO@LINEAR@
   14FBB8 ??_C@_06HLPHGNAO@Vulkan@
   14FBB8 ??_C@_06HOHPNJLC@buffer@
   14FBB8 ??_C@_06IAHKIHIK@images@
   14FBB8 ??_C@_06IDBEMGIK@lights@
   14FBB8 ??_C@_06IOJAGNKJ@NORMAL@
   14FBB8 ??_C@_06JGCPBEMJ@NDEBUG@
   14FBB8 ??_C@_06JJLAMBGK@target@
   14FBB8 ??_C@_06JPGIJIPH@sparse@
   14FBB8 ??_C@_06KIONCPMC@JOINTS@
   14FBB8 ??_C@_06KLHHMIGM@offset@
   14FBB8 ??_C@_06KMMGPBBA@joints@
   14FBB8 ??_C@_06LEOGOFDE@SCALAR@
   14FBB8 ??_C@_06NKCFPFEA@meshes@
   14FBB8 ??_C@_06NMAPGJFF@extras@
   14FBB8 ??_C@_06OEKOLKIL@source@
   14FBB8 ??_C@_06PBFGMMDA@scenes@
   14FBB8 ??_C@_07CBADIHEM@buffers@
   14FBB8 ??_C@_07CPCPJPKL@version@
   14FBB8 ??_C@_07EIFHBLMH@weights@
   14FBB8 ??_C@_07HOFFNMLH@TANGENT@
   14FBB8 ??_C@_07IAPBMHBD@cameras@
   14FBB8 ??_C@_07KJOMBCLC@targets@
   14FBB8 ??_C@_07LELNBJHF@?$DLbase64@
   14FBB8 ??_C@_07LFAKKHED@WEIGHTS@
   14FBB8 ??_C@_07OKCKIPNN@indices@
   14FBB8 ??_C@_07PKJOFHPL@sampler@
   14FBB8 ??_C@_07PNENDBBG@tressfx@
   14FBB8 ??_C@_08CMDKBPJM@TEXCOORD@
   14FBB8 ??_C@_08COIHJPPG@samplers@
   14FBB8 ??_C@_08FEDKCEIN@texCoord@
   14FBB8 ??_C@_08FOPJPEFB@mimeType@
   14FBB8 ??_C@_08GOINNFB@children@
   14FBB8 ??_C@_08GPLAJCBH@?$CDinclude@
   14FBB8 ??_C@_08JPMAAECC@POSITION@
   14FBB8 ??_C@_08KFCDPDHF@strength@
   14FBB8 ??_C@_08KNOEMJMM@material@
   14FBB8 ??_C@_08NJIMCCJK@textures@
   14FBB8 ??_C@_08OHGOKOGA@rotation@
   14FBB8 ??_C@_08PAMBCCJ@channels@
   14FBB8 ??_C@_08PGJLABAN@skeleton@
   14FBB8 ??_C@_09DDBFFAKC@intensity@
   14FBB8 ??_C@_09EKPAIFOF@magFilter@
   14FBB8 ??_C@_09HNDCMPDF@generator@
   14FBB8 ??_C@_09JGGNEAGH@materials@
   14FBB8 ??_C@_09JHBDCMB@copyright@
   14FBB8 ??_C@_09MCOHNECF@addShader@
   14FBB8 ??_C@_09MDLCBFJC@accessors@
   14FBB8 ??_C@_09NLNEECCJ@alphaMode@
   14FBB8 ??_C@_09OOGHDMNG@minFilter@
   14FBB8 ??_C@_0BA@DAIFJFJM@roughnessFactor@
   14FBB8 ??_C@_0BA@HBCJHHIN@baseColorFactor@
   14FBB8 ??_C@_0BA@IOJHHLDM@Not?5implemented@
   14FBB8 ??_C@_0BA@KOOIFNNF@emissiveTexture@
   14FBB8 ??_C@_0BA@NLMJANIB@setupCopyEngine@
   14FBB8 ??_C@_0BB@BHJGBOOO@baseColorTexture@
   14FBB8 ??_C@_0BB@DBHCKKEI@addPipelineCache@
   14FBB8 ??_C@_0BB@JHNKAHJB@glossinessFactor@
   14FBB8 ??_C@_0BB@PNJBHHDI@occlusionTexture@
   14FBB8 ??_C@_0BC@DAJGHHBK@cleanupCopyEngine@
   14FBB8 ??_C@_0BC@GEBEBNIH@savePipelineCache@
   14FBB8 ??_C@_0BC@LHFPJOCI@addResourceLoader@
   14FBB8 ??_C@_0BD@MAJFJDJM@extensionsRequired@
   14FBB8 ??_C@_0BD@NKFNIFBA@EASTL?5basic_string@
   14FBB8 ??_C@_0BE@BFCHNGGN@KHR_materials_unlit@
   14FBB8 ??_C@_0BE@CACONAMD@KHR_lights_punctual@
   14FBB8 ??_C@_0BE@JJBJHGNG@check_for_byte_code@
   14FBB8 ??_C@_0BE@PHMPLIHA@inverseBindMatrices@
   14FBB8 ??_C@_0BF@HBEIEPPF@removeResourceLoader@
   14FBB8 ??_C@_0BF@HLHJFPD@pbrMetallicRoughness@
   14FBB8 ??_C@_0BF@MFKKJPIA@Invalid?5mipmap?5level@
   14FBB8 ??_C@_0BF@MNFEOPF@loadBASISTextureDesc@
   14FBB8 ??_C@_0BG@BJDJOIOD@Was?5not?5cleaned?5up?5?$CFd@
   14FBB8 ??_C@_0BG@NNAADJCL@KHR_texture_transform@
   14FBB8 ??_C@_0BJ@EDJGLLKL@Reading?5image?5size?5error@
   14FBB8 ??_C@_0BJ@HJJJGBJE@metallicRoughnessTexture@
   14FBB8 ??_C@_0BK@CFKJDNBI@specularGlossinessTexture@
   14FBB8 ??_C@_0BM@BEBIENMH@Failed?5to?5open?5gltf?5file?5?$CFs@
   14FBB8 ??_C@_0BM@KDFCICLP@no?4?5of?5Faces?5must?5be?51?5or?56@
   14FBB8 ??_C@_0BO@IJMBEKEK@Cannot?5open?5?$CDinclude?5file?3?5?$CFs@
   14FBB8 ??_C@_0BO@JHOHPE@Vis?5Buffer?5for?5Sparse?5Texture@
   14FBB8 ??_C@_0BO@LPBAFFNI@No?5key?5value?5data?5in?5this?5KTX@
   14FBB8 ??_C@_0CA@BDIFNJOI@TinyKtx?5must?5have?5free?5callback@
   14FBB8 ??_C@_0CA@GHGHCOKC@TinyKtx?5must?5have?5read?5callback@
   14FBB8 ??_C@_0CA@GKJGAAGN@TinyKtx?5must?5have?5seek?5callback@
   14FBB8 ??_C@_0CA@LLMJIFLP@TinyKtx?5must?5have?5tell?5callback@
   14FBB8 ??_C@_0CB@CFCFKFAJ@TinyKtx?5must?5have?5alloc?5callbac@
   14FBB8 ??_C@_0CC@GNPCPPAN@Internal?5error?3?5padding?5bytes?5?$DO@
   14FBB8 ??_C@_0CD@FLFDOAME@Prev?5Vis?5Buffer?5for?5Sparse?5Text@
   14FBB8 ??_C@_0CE@BFAFCBKC@KHR_materials_pbrSpecularGlossi@
   14FBB8 ??_C@_0CF@JMEDBLBE@Failed?5to?5save?5byte?5code?5for?5fi@
   14FBB8 ??_C@_0CF@NMHACPGE@Page?5count?5buffer?5for?5Sparse?5Te@
   14FBB8 ??_C@_0CG@DACEPIDK@Alive?5pages?5buffer?5for?5Sparse?5T@
   14FBB8 ??_C@_0CH@DELIIBME@TinyKtx_ElementCountFromGLForma@
   14FBB8 ??_C@_0CH@OKMFGOIG@Remove?5pages?5buffer?5for?5Sparse?5@
   14FBB8 ??_C@_0CI@EEFADMP@Failed?5transcoding?5image?5level?5@
   14FBB8 ??_C@_0CJ@DAGFHLPF@?8?$CFs?8?5is?5not?5a?5valid?5shader?5byte@
   14FBB8 ??_C@_0CK@DOFMEJKJ@Failed?5retrieving?5Basis?5file?5in@
   14FBB8 ??_C@_0CL@JNHKKDDI@Failed?5to?5parse?5gltf?5file?5?$CFs?5wi@
   14FBB8 ??_C@_0CO@HBHGAPBL@Error?5while?5generating?5bytecode@
   14FBB8 ??_C@_0DA@HNDGHFOI@Header?5data?5hasn?8t?5been?5read?5ye@
   14FBB8 ??_C@_0DE@KJEMFNLC@Failed?5retrieving?5image?5level?5i@
   14FBB8 ??_C@_0DF@PKNKJIEH@Internal?5size?5error?0?5padding?5sh@
   14FBB8 ??_C@_0DG@LIDBHCIJ@C?3?2src?2The?9Forge?2Common_3?2OS?2Co@
   14FBB8 ??_C@_0DG@MCALBGE@Not?5a?5KTX?5file?5or?5corrupted?5as?5@
   14FBB8 ??_C@_0DG@PFFDLJJD@C?3?2src?2The?9Forge?2Common_3?2Rende@
   14FBB8 ??_C@_0DH@DJCKNAOB@Failed?5to?5load?5buffers?5from?5glt@
   14FBB8 ??_C@_0DL@LGENFEKC@No?5source?5shader?5or?5precompiled@
   14FBB8 ??_C@_0EF@FFJHMOLA@loadGeometry?3?3?$DMlambda_4e4848381@
   14FBB8 ??_C@_0EF@MKKGCBNP@loadGeometry?3?3?$DMlambda_cad24d3d0@
   14FBB8 ??_C@_0EL@FCLKDHAJ@loadKTXTextureDesc?3?3?$DMlambda_c7a@
   14FBB8 ??_C@_0EL@FHDFCBBI@loadKTXTextureDesc?3?3?$DMlambda_e34@
   14FBB8 ??_C@_0GF@LLPJOHDH@Buffer?5start?5state?5not?5provided@
   14FBB8 ??_C@_0HH@HNGLDNP@Requested?5shader?5target?5?$CI?$CFu?$CJ?5is@
   14FBB8 ??_C@_0L@DNCNEELD@primitives@
   14FBB8 ??_C@_0L@GGFFFOP@byteLength@
   14FBB8 ??_C@_0L@HNGMIHEN@animations@
   14FBB8 ??_C@_0L@HNMJPKNA@attributes@
   14FBB8 ??_C@_0L@ICCCPLKC@extensions@
   14FBB8 ??_C@_0L@KFIBCCMP@byteOffset@
   14FBB8 ??_C@_0L@KOFHIIDF@normalized@
   14FBB8 ??_C@_0L@LDDOLIHL@byteStride@
   14FBB8 ??_C@_0L@PFCGNFLE@bufferView@
   14FBB8 ??_C@_0L@PKOPDNML@minVersion@
   14FBB8 ??_C@_0M@BHPEMIJB@CUBICSPLINE@
   14FBB8 ??_C@_0M@EDEFNCAL@perspective@
   14FBB8 ??_C@_0M@EJNBLPPG@directional@
   14FBB8 ??_C@_0M@ENEOAFGC@addResource@
   14FBB8 ??_C@_0M@FCMJHIBL@aspectRatio@
   14FBB8 ??_C@_0M@FOEGDCHG@alphaCutoff@
   14FBB8 ??_C@_0M@GKOMBAAN@targetNames@
   14FBB8 ??_C@_0M@KFCLOBKO@loadTexture@
   14FBB8 ??_C@_0M@LFJMJFAI@doubleSided@
   14FBB8 ??_C@_0M@MIOLHLHF@bufferViews@
   14FBB8 ??_C@_0M@PAEEAFPO@translation@
   14FBB8 ??_C@_0N@FOECCHCP@Endian?5Error@
   14FBB8 ??_C@_0N@HCIPMBEK@orthographic@
   14FBB8 ??_C@_0N@IADJJFLN@loadGeometry@
   14FBB8 ??_C@_0N@NIFALJMP@EASTL?5vector@
   14FBB8 ??_C@_0O@EPAHLOGA@componentType@
   14FBB8 ??_C@_0O@GHBNKOPP@normalTexture@
   14FBB8 ??_C@_0O@IIPGEKPF@interpolation@
   14FBB8 ??_C@_0O@IMCGONLP@diffuseFactor@
   14FBB8 ??_C@_0P@DMADABDC@extensionsUsed@
   14FBB8 ??_C@_0P@EOIEADBN@innerConeAngle@
   14FBB8 ??_C@_0P@GJLOEFPL@emissiveFactor@
   14FBB8 ??_C@_0P@MLKMBAJC@outerConeAngle@
   14FBB8 ??_C@_0P@NPLMEAPE@diffuseTexture@
   14FBB8 ??_C@_0P@OIFHFNOD@metallicFactor@
   14FBB8 ??_C@_0P@PIIPAAPL@specularFactor@
   14FBB8 ??_C@_0P@POFKDFJJ@removeResource@
   14FBB8 ??_GResourceLoader@@QEAAPEAXI@Z
   14FBB8 ?AllocateSelf@?$basic_string@DVallocator_forge@eastl@@@eastl@@IEAAXXZ
   14FBB8 ?AllocateSelf@?$basic_string@DVallocator_forge@eastl@@@eastl@@IEAAX_K@Z
   14FBB8 ?BeginPtr@Layout@?$basic_string@DVallocator_forge@eastl@@@eastl@@QEAAPEADXZ
   14FBB8 ?BeginPtr@Layout@?$basic_string@DVallocator_forge@eastl@@@eastl@@QEBAPEBDXZ
   14FBB8 ?CLSID_DxcAssembler@@3U_GUID@@B
   14FBB8 ?CLSID_DxcCompiler@@3U_GUID@@B
   14FBB8 ?CLSID_DxcCompilerArgs@@3U_GUID@@B
   14FBB8 ?CLSID_DxcContainerBuilder@@3U_GUID@@B
   14FBB8 ?CLSID_DxcContainerReflection@@3U_GUID@@B
   14FBB8 ?CLSID_DxcDiaDataSource@@3U_GUID@@B
   14FBB8 ?CLSID_DxcLibrary@@3U_GUID@@B
   14FBB8 ?CLSID_DxcLinker@@3U_GUID@@B
   14FBB8 ?CLSID_DxcOptimizer@@3U_GUID@@B
   14FBB8 ?CLSID_DxcUtils@@3U_GUID@@B
   14FBB8 ?CLSID_DxcValidator@@3U_GUID@@B
   14FBB8 ?CharStringUninitializedFillN@eastl@@YAPEADPEAD_KD@Z
   14FBB8 ?DeallocateSelf@?$basic_string@DVallocator_forge@eastl@@@eastl@@IEAAXXZ
   14FBB8 ?DoAllocate@?$VectorBase@PEAUBuffer@@Vallocator_forge@eastl@@@eastl@@IEAAPEAPEAUBuffer@@_K@Z
   14FBB8 ?DoAllocate@?$VectorBase@UShaderMacro@@Vallocator_forge@eastl@@@eastl@@IEAAPEAUShaderMacro@@_K@Z
   14FBB8 ?DoAllocate@?$VectorBase@UUpdateRequest@@Vallocator_forge@eastl@@@eastl@@IEAAPEAUUpdateRequest@@_K@Z
   14FBB8 ?DoAllocate@?$basic_string@DVallocator_forge@eastl@@@eastl@@IEAAPEAD_K@Z
   14FBB8 ?DoFree@?$VectorBase@PEAUBuffer@@Vallocator_forge@eastl@@@eastl@@IEAAXPEAPEAUBuffer@@_K@Z
   14FBB8 ?DoFree@?$VectorBase@UUpdateRequest@@Vallocator_forge@eastl@@@eastl@@IEAAXPEAUUpdateRequest@@_K@Z
   14FBB8 ?DoFree@?$basic_string@DVallocator_forge@eastl@@@eastl@@IEAAXPEAD_K@Z
   14FBB8 ?DoInsertValuesEnd@?$vector@PEAUBuffer@@Vallocator_forge@eastl@@@eastl@@IEAAX_K@Z
   14FBB8 ?DoSwap@?$vector@PEAUBuffer@@Vallocator_forge@eastl@@@eastl@@IEAAXAEAV12@@Z
   14FBB8 ?DoSwap@?$vector@UUpdateRequest@@Vallocator_forge@eastl@@@eastl@@IEAAXAEAV12@@Z
   14FBB8 ?EndPtr@Layout@?$basic_string@DVallocator_forge@eastl@@@eastl@@QEAAPEADXZ
   14FBB8 ?EndPtr@Layout@?$basic_string@DVallocator_forge@eastl@@@eastl@@QEBAPEBDXZ
   14FBB8 ?GetHeapCapacity@Layout@?$basic_string@DVallocator_forge@eastl@@@eastl@@QEBA_KXZ
   14FBB8 ?GetHeapSize@Layout@?$basic_string@DVallocator_forge@eastl@@@eastl@@QEBA_KXZ
   14FBB8 ?GetNewCapacity@?$VectorBase@PEAUBuffer@@Vallocator_forge@eastl@@@eastl@@IEAA_K_K@Z
   14FBB8 ?GetNewCapacity@?$VectorBase@UUpdateRequest@@Vallocator_forge@eastl@@@eastl@@IEAA_K_K@Z
   14FBB8 ?GetNewCapacity@?$basic_string@DVallocator_forge@eastl@@@eastl@@IEAA_K_K@Z
   14FBB8 ?GetSSOSize@Layout@?$basic_string@DVallocator_forge@eastl@@@eastl@@QEBA_KXZ
   14FBB8 ?GetSize@Layout@?$basic_string@DVallocator_forge@eastl@@@eastl@@QEBA_KXZ
   14FBB8 ?HeapBeginPtr@Layout@?$basic_string@DVallocator_forge@eastl@@@eastl@@QEAAPEADXZ
   14FBB8 ?HeapBeginPtr@Layout@?$basic_string@DVallocator_forge@eastl@@@eastl@@QEBAPEBDXZ
   14FBB8 ?HeapEndPtr@Layout@?$basic_string@DVallocator_forge@eastl@@@eastl@@QEAAPEADXZ
   14FBB8 ?HeapEndPtr@Layout@?$basic_string@DVallocator_forge@eastl@@@eastl@@QEBAPEBDXZ
   14FBB8 ?IsHeap@Layout@?$basic_string@DVallocator_forge@eastl@@@eastl@@QEBA_NXZ
   14FBB8 ?Move@Layout@?$basic_string@DVallocator_forge@eastl@@@eastl@@QEAAXAEAU123@0@Z
   14FBB8 ?RangeInitialize@?$basic_string@DVallocator_forge@eastl@@@eastl@@IEAAXPEBD0@Z
   14FBB8 ?RangeInitialize@?$basic_string@DVallocator_forge@eastl@@@eastl@@IEAAXPEBD@Z
   14FBB8 ?ResetToSSO@Layout@?$basic_string@DVallocator_forge@eastl@@@eastl@@QEAAXXZ
   14FBB8 ?SSOBeginPtr@Layout@?$basic_string@DVallocator_forge@eastl@@@eastl@@QEAAPEADXZ
   14FBB8 ?SSOBeginPtr@Layout@?$basic_string@DVallocator_forge@eastl@@@eastl@@QEBAPEBDXZ
   14FBB8 ?SSOEndPtr@Layout@?$basic_string@DVallocator_forge@eastl@@@eastl@@QEAAPEADXZ
   14FBB8 ?SSOEndPtr@Layout@?$basic_string@DVallocator_forge@eastl@@@eastl@@QEBAPEBDXZ
   14FBB8 ?SetHeapBeginPtr@Layout@?$basic_string@DVallocator_forge@eastl@@@eastl@@QEAAXPEAD@Z
   14FBB8 ?SetHeapCapacity@Layout@?$basic_string@DVallocator_forge@eastl@@@eastl@@QEAAX_K@Z
   14FBB8 ?SetHeapSize@Layout@?$basic_string@DVallocator_forge@eastl@@@eastl@@QEAAX_K@Z
   14FBB8 ?SetSSOSize@Layout@?$basic_string@DVallocator_forge@eastl@@@eastl@@QEAAX_K@Z
   14FBB8 ?SetSize@Layout@?$basic_string@DVallocator_forge@eastl@@@eastl@@QEAAX_K@Z
   14FBB8 ?TinyImageFormat_BitSizeOfBlock@@YAIW4TinyImageFormat@@@Z
   14FBB8 ?TinyImageFormat_FromDXGI_FORMAT@@YA?AW4TinyImageFormat@@W4TinyImageFormat_DXGI_FORMAT@@@Z
   14FBB8 ?TinyImageFormat_HeightOfBlock@@YAIW4TinyImageFormat@@@Z
   14FBB8 ?TinyImageFormat_IsCompressed@@YA_NW4TinyImageFormat@@@Z
   14FBB8 ?TinyImageFormat_WidthOfBlock@@YAIW4TinyImageFormat@@@Z
   14FBB8 ?Vsnprintf@eastl@@YAHPEIAD_KPEIBDPEAD@Z
   14FBB8 ?_Adjust_manually_vector_aligned@std@@YAXAEAPEAXAEA_K@Z
   14FBB8 ?_Alloc_proxy@_Container_base0@std@@QEAAXAEBU_Fake_allocator@2@@Z
   14FBB8 ?_Destroy@?$vector@EV?$allocator@E@std@@@std@@AEAAXPEAE0@Z
   14FBB8 ?_Destroy@?$vector@FV?$allocator@F@std@@@std@@AEAAXPEAF0@Z
   14FBB8 ?_Destroy@?$vector@HV?$allocator@H@std@@@std@@AEAAXPEAH0@Z
   14FBB8 ?_Destroy@?$vector@IV?$allocator@I@std@@@std@@AEAAXPEAI0@Z
   14FBB8 ?_Destroy@?$vector@Ubasisu_slice_info@basist@@V?$allocator@Ubasisu_slice_info@basist@@@std@@@std@@AEAAXPEAUbasisu_slice_info@basist@@0@Z
   14FBB8 ?_Destroy@?$vector@Ublock_preds@basisu_transcoder_state@basist@@V?$allocator@Ublock_preds@basisu_transcoder_state@basist@@@std@@@std@@AEAAXPEAUblock_preds@basisu_transcoder_state@basist@@0@Z
   14FBB8 ?_Destroy@?$vector@Uendpoint@basist@@V?$allocator@Uendpoint@basist@@@std@@@std@@AEAAXPEAUendpoint@basist@@0@Z
   14FBB8 ?_Destroy@?$vector@Uetc1_selector_palette_entry@basist@@V?$allocator@Uetc1_selector_palette_entry@basist@@@std@@@std@@AEAAXPEAUetc1_selector_palette_entry@basist@@0@Z
   14FBB8 ?_Destroy@?$vector@Uselector@basist@@V?$allocator@Uselector@basist@@@std@@@std@@AEAAXPEAUselector@basist@@0@Z
   14FBB8 ?_Get_first@?$_Compressed_pair@V?$allocator@E@std@@V?$_Vector_val@U?$_Simple_types@E@std@@@2@$00@std@@QEAAAEAV?$allocator@E@2@XZ
   14FBB8 ?_Get_first@?$_Compressed_pair@V?$allocator@F@std@@V?$_Vector_val@U?$_Simple_types@F@std@@@2@$00@std@@QEAAAEAV?$allocator@F@2@XZ
   14FBB8 ?_Get_first@?$_Compressed_pair@V?$allocator@H@std@@V?$_Vector_val@U?$_Simple_types@H@std@@@2@$00@std@@QEAAAEAV?$allocator@H@2@XZ
   14FBB8 ?_Get_first@?$_Compressed_pair@V?$allocator@I@std@@V?$_Vector_val@U?$_Simple_types@I@std@@@2@$00@std@@QEAAAEAV?$allocator@I@2@XZ
   14FBB8 ?_Get_first@?$_Compressed_pair@V?$allocator@Ubasisu_slice_info@basist@@@std@@V?$_Vector_val@U?$_Simple_types@Ubasisu_slice_info@basist@@@std@@@2@$00@std@@QEAAAEAV?$allocator@Ubasisu_slice_info@basist@@@2@XZ
   14FBB8 ?_Get_first@?$_Compressed_pair@V?$allocator@Ublock_preds@basisu_transcoder_state@basist@@@std@@V?$_Vector_val@U?$_Simple_types@Ublock_preds@basisu_transcoder_state@basist@@@std@@@2@$00@std@@QEAAAEAV?$allocator@Ublock_preds@basisu_transcoder_state@basist@@@2@XZ
   14FBB8 ?_Get_first@?$_Compressed_pair@V?$allocator@Uendpoint@basist@@@std@@V?$_Vector_val@U?$_Simple_types@Uendpoint@basist@@@std@@@2@$00@std@@QEAAAEAV?$allocator@Uendpoint@basist@@@2@XZ
   14FBB8 ?_Get_first@?$_Compressed_pair@V?$allocator@Uetc1_selector_palette_entry@basist@@@std@@V?$_Vector_val@U?$_Simple_types@Uetc1_selector_palette_entry@basist@@@std@@@2@$00@std@@QEAAAEAV?$allocator@Uetc1_selector_palette_entry@basist@@@2@XZ
   14FBB8 ?_Get_first@?$_Compressed_pair@V?$allocator@Uselector@basist@@@std@@V?$_Vector_val@U?$_Simple_types@Uselector@basist@@@std@@@2@$00@std@@QEAAAEAV?$allocator@Uselector@basist@@@2@XZ
   14FBB8 ?_Getal@?$vector@EV?$allocator@E@std@@@std@@AEAAAEAV?$allocator@E@2@XZ
   14FBB8 ?_Getal@?$vector@FV?$allocator@F@std@@@std@@AEAAAEAV?$allocator@F@2@XZ
   14FBB8 ?_Getal@?$vector@HV?$allocator@H@std@@@std@@AEAAAEAV?$allocator@H@2@XZ
   14FBB8 ?_Getal@?$vector@IV?$allocator@I@std@@@std@@AEAAAEAV?$allocator@I@2@XZ
   14FBB8 ?_Getal@?$vector@Ubasisu_slice_info@basist@@V?$allocator@Ubasisu_slice_info@basist@@@std@@@std@@AEAAAEAV?$allocator@Ubasisu_slice_info@basist@@@2@XZ
   14FBB8 ?_Getal@?$vector@Ublock_preds@basisu_transcoder_state@basist@@V?$allocator@Ublock_preds@basisu_transcoder_state@basist@@@std@@@std@@AEAAAEAV?$allocator@Ublock_preds@basisu_transcoder_state@basist@@@2@XZ
   14FBB8 ?_Getal@?$vector@Uendpoint@basist@@V?$allocator@Uendpoint@basist@@@std@@@std@@AEAAAEAV?$allocator@Uendpoint@basist@@@2@XZ
   14FBB8 ?_Getal@?$vector@Uetc1_selector_palette_entry@basist@@V?$allocator@Uetc1_selector_palette_entry@basist@@@std@@@std@@AEAAAEAV?$allocator@Uetc1_selector_palette_entry@basist@@@2@XZ
   14FBB8 ?_Getal@?$vector@Uselector@basist@@V?$allocator@Uselector@basist@@@std@@@std@@AEAAAEAV?$allocator@Uselector@basist@@@2@XZ
   14FBB8 ?_Orphan_all@_Container_base0@std@@QEAAXXZ
   14FBB8 ?_Tidy@?$vector@EV?$allocator@E@std@@@std@@AEAAXXZ
   14FBB8 ?_Tidy@?$vector@FV?$allocator@F@std@@@std@@AEAAXXZ
   14FBB8 ?_Tidy@?$vector@HV?$allocator@H@std@@@std@@AEAAXXZ
   14FBB8 ?_Tidy@?$vector@IV?$allocator@I@std@@@std@@AEAAXXZ
   14FBB8 ?_Tidy@?$vector@Ubasisu_slice_info@basist@@V?$allocator@Ubasisu_slice_info@basist@@@std@@@std@@AEAAXXZ
   14FBB8 ?_Tidy@?$vector@Ublock_preds@basisu_transcoder_state@basist@@V?$allocator@Ublock_preds@basisu_transcoder_state@basist@@@std@@@std@@AEAAXXZ
   14FBB8 ?_Tidy@?$vector@Uendpoint@basist@@V?$allocator@Uendpoint@basist@@@std@@@std@@AEAAXXZ
   14FBB8 ?_Tidy@?$vector@Uetc1_selector_palette_entry@basist@@V?$allocator@Uetc1_selector_palette_entry@basist@@@std@@@std@@AEAAXXZ
   14FBB8 ?_Tidy@?$vector@Uselector@basist@@V?$allocator@Uselector@basist@@@std@@@std@@AEAAXXZ
   14FBB8 ?abs@@YAMM@Z
   14FBB8 ?addPipelineCache@@YAXPEAURenderer@@PEBUPipelineCacheLoadDesc@@PEAPEAUPipelineCache@@@Z
   14FBB8 ?addResource@@YAXPEAUBufferLoadDesc@@PEA_K@Z
   14FBB8 ?addResource@@YAXPEAUGeometryLoadDesc@@PEA_K@Z
   14FBB8 ?addResource@@YAXPEAUTextureLoadDesc@@PEA_K@Z
   14FBB8 ?addShader@@YAXPEAURenderer@@PEBUShaderLoadDesc@@PEAPEAUShader@@@Z
   14FBB8 ?allResourceLoadsCompleted@@YA_NXZ
   14FBB8 ?append@?$basic_string@DVallocator_forge@eastl@@@eastl@@QEAAAEAV12@AEBV12@@Z
   14FBB8 ?append@?$basic_string@DVallocator_forge@eastl@@@eastl@@QEAAAEAV12@PEBD0@Z
   14FBB8 ?append@?$basic_string@DVallocator_forge@eastl@@@eastl@@QEAAAEAV12@PEBD@Z
   14FBB8 ?append@?$basic_string@DVallocator_forge@eastl@@@eastl@@QEAAAEAV12@_KD@Z
   14FBB8 ?append_sprintf_va_list@?$basic_string@DVallocator_forge@eastl@@@eastl@@QEAAAEAV12@PEBDPEAD@Z
   14FBB8 ?assign@?$basic_string@DVallocator_forge@eastl@@@eastl@@QEAAAEAV12@PEBD0@Z
   14FBB8 ?at@?$basic_string@DVallocator_forge@eastl@@@eastl@@QEAAAEAD_K@Z
   14FBB8 ?back@?$vector@PEAUBuffer@@Vallocator_forge@eastl@@@eastl@@QEAAAEAPEAUBuffer@@XZ
   14FBB8 ?back@?$vector@UUpdateRequest@@Vallocator_forge@eastl@@@eastl@@QEAAAEAUUpdateRequest@@XZ
   14FBB8 ?base@?$generic_iterator@PEAPEAUBuffer@@X@eastl@@QEBAAEBQEAPEAUBuffer@@XZ
   14FBB8 ?base@?$generic_iterator@PEAUUpdateRequest@@X@eastl@@QEBAAEBQEAUUpdateRequest@@XZ
   14FBB8 ?base@?$generic_iterator@V?$move_iterator@PEAPEAUBuffer@@@eastl@@X@eastl@@QEBAAEBV?$move_iterator@PEAPEAUBuffer@@@2@XZ
   14FBB8 ?base@?$move_iterator@PEAPEAUBuffer@@@eastl@@QEBAPEAPEAUBuffer@@XZ
   14FBB8 ?begin@?$vector@PEAUBuffer@@Vallocator_forge@eastl@@@eastl@@QEAAPEAPEAUBuffer@@XZ
   14FBB8 ?begin@?$vector@UUpdateRequest@@Vallocator_forge@eastl@@@eastl@@QEAAPEAUUpdateRequest@@XZ
   14FBB8 ?beginUpdateResource@@YAXPEAUBufferUpdateDesc@@@Z
   14FBB8 ?beginUpdateResource@@YAXPEAUTextureUpdateDesc@@@Z
   14FBB8 ?c_str@?$basic_string@DVallocator_forge@eastl@@@eastl@@QEBAPEBDXZ
   14FBB8 ?capacity@?$basic_string@DVallocator_forge@eastl@@@eastl@@QEBA_KXZ
   14FBB8 ?check_for_byte_code@@YA_NPEAURenderer@@PEBD_JPEAUBinaryShaderStageDesc@@@Z
   14FBB8 ?clamp@Vectormath@@YAMMMM@Z
   14FBB8 ?clear@?$vector@PEAUBuffer@@Vallocator_forge@eastl@@@eastl@@QEAAXXZ
   14FBB8 ?data@?$vector@UShaderMacro@@Vallocator_forge@eastl@@@eastl@@QEAAPEAUShaderMacro@@XZ
   14FBB8 ?deallocate@?$allocator@E@std@@QEAAXQEAE_K@Z
   14FBB8 ?deallocate@?$allocator@F@std@@QEAAXQEAF_K@Z
   14FBB8 ?deallocate@?$allocator@H@std@@QEAAXQEAH_K@Z
   14FBB8 ?deallocate@?$allocator@I@std@@QEAAXQEAI_K@Z
   14FBB8 ?deallocate@?$allocator@Ubasisu_slice_info@basist@@@std@@QEAAXQEAUbasisu_slice_info@basist@@_K@Z
   14FBB8 ?deallocate@?$allocator@Ublock_preds@basisu_transcoder_state@basist@@@std@@QEAAXQEAUblock_preds@basisu_transcoder_state@basist@@_K@Z
   14FBB8 ?deallocate@?$allocator@Uendpoint@basist@@@std@@QEAAXQEAUendpoint@basist@@_K@Z
   14FBB8 ?deallocate@?$allocator@Uetc1_selector_palette_entry@basist@@@std@@QEAAXQEAUetc1_selector_palette_entry@basist@@_K@Z
   14FBB8 ?deallocate@?$allocator@Uselector@basist@@@std@@QEAAXQEAUselector@basist@@_K@Z
   14FBB8 ?empty@?$vector@PEAUBuffer@@Vallocator_forge@eastl@@@eastl@@QEBA_NXZ
   14FBB8 ?empty@?$vector@UUpdateRequest@@Vallocator_forge@eastl@@@eastl@@QEBA_NXZ
   14FBB8 ?end@?$vector@PEAUBuffer@@Vallocator_forge@eastl@@@eastl@@QEAAPEAPEAUBuffer@@XZ
   14FBB8 ?end@?$vector@UUpdateRequest@@Vallocator_forge@eastl@@@eastl@@QEAAPEAUUpdateRequest@@XZ
   14FBB8 ?endUpdateResource@@YAXPEAUBufferUpdateDesc@@PEA_K@Z
   14FBB8 ?endUpdateResource@@YAXPEAUTextureUpdateDesc@@PEA_K@Z
   14FBB8 ?erase@?$basic_string@DVallocator_forge@eastl@@@eastl@@QEAAPEADPEBD0@Z
   14FBB8 ?exitResourceLoaderInterface@@YAXPEAURenderer@@@Z
   14FBB8 ?find@?$basic_string@DVallocator_forge@eastl@@@eastl@@QEBA_KAEBV12@_K@Z
   14FBB8 ?find@?$basic_string@DVallocator_forge@eastl@@@eastl@@QEBA_KPEBD_K1@Z
   14FBB8 ?find@?$basic_string@DVallocator_forge@eastl@@@eastl@@QEBA_KPEBD_K@Z
   14FBB8 ?find_shader_stage@@YA_NPEBDPEAUBinaryShaderDesc@@PEAPEAUBinaryShaderStageDesc@@PEAW4ShaderStage@@@Z
   14FBB8 ?first@?$compressed_pair@PEAPEAUBuffer@@Vallocator_forge@eastl@@@eastl@@QEAAAEAPEAPEAUBuffer@@XZ
   14FBB8 ?first@?$compressed_pair@PEAUShaderMacro@@Vallocator_forge@eastl@@@eastl@@QEAAAEAPEAUShaderMacro@@XZ
   14FBB8 ?first@?$compressed_pair@PEAUUpdateRequest@@Vallocator_forge@eastl@@@eastl@@QEAAAEAPEAUUpdateRequest@@XZ
   14FBB8 ?first@?$compressed_pair@ULayout@?$basic_string@DVallocator_forge@eastl@@@eastl@@Vallocator_forge@3@@eastl@@QEAAAEAULayout@?$basic_string@DVallocator_forge@eastl@@@2@XZ
   14FBB8 ?first@?$compressed_pair@ULayout@?$basic_string@DVallocator_forge@eastl@@@eastl@@Vallocator_forge@3@@eastl@@QEBAAEBULayout@?$basic_string@DVallocator_forge@eastl@@@2@XZ
   14FBB8 ?first@?$compressed_pair_imp@PEAPEAUBuffer@@Vallocator_forge@eastl@@$01@eastl@@QEAAAEAPEAPEAUBuffer@@XZ
   14FBB8 ?first@?$compressed_pair_imp@PEAUShaderMacro@@Vallocator_forge@eastl@@$01@eastl@@QEAAAEAPEAUShaderMacro@@XZ
   14FBB8 ?first@?$compressed_pair_imp@PEAUUpdateRequest@@Vallocator_forge@eastl@@$01@eastl@@QEAAAEAPEAUUpdateRequest@@XZ
   14FBB8 ?first@?$compressed_pair_imp@ULayout@?$basic_string@DVallocator_forge@eastl@@@eastl@@Vallocator_forge@3@$01@eastl@@QEAAAEAULayout@?$basic_string@DVallocator_forge@eastl@@@2@XZ
   14FBB8 ?first@?$compressed_pair_imp@ULayout@?$basic_string@DVallocator_forge@eastl@@@eastl@@Vallocator_forge@3@$01@eastl@@QEBAAEBULayout@?$basic_string@DVallocator_forge@eastl@@@2@XZ
   14FBB8 ?gDefaultResourceLoaderDesc@@3UResourceLoaderDesc@@A
   14FBB8 ?getLastTokenCompleted@@YA_KXZ
   14FBB8 ?get_allocator@?$basic_string@DVallocator_forge@eastl@@@eastl@@QEAAAEAVallocator_forge@2@XZ
   14FBB8 ?get_allocator@?$basic_string@DVallocator_forge@eastl@@@eastl@@QEBAAEBVallocator_forge@2@XZ
   14FBB8 ?get_base@?$is_iterator_wrapper_helper@PEAPEAUBuffer@@$0A@@eastl@@SAPEAPEAUBuffer@@PEAPEAU3@@Z
   14FBB8 ?get_base@?$is_iterator_wrapper_helper@PEAUUpdateRequest@@$0A@@eastl@@SAPEAUUpdateRequest@@PEAU3@@Z
   14FBB8 ?get_base@?$is_iterator_wrapper_helper@V?$generic_iterator@PEAPEAUBuffer@@X@eastl@@$00@eastl@@SAPEAPEAUBuffer@@V?$generic_iterator@PEAPEAUBuffer@@X@2@@Z
   14FBB8 ?get_base@?$is_iterator_wrapper_helper@V?$generic_iterator@PEAUUpdateRequest@@X@eastl@@$00@eastl@@SAPEAUUpdateRequest@@V?$generic_iterator@PEAUUpdateRequest@@X@2@@Z
   14FBB8 ?get_base@?$is_iterator_wrapper_helper@V?$generic_iterator@V?$move_iterator@PEAPEAUBuffer@@@eastl@@X@eastl@@$00@eastl@@SA?AV?$move_iterator@PEAPEAUBuffer@@@2@V?$generic_iterator@V?$move_iterator@PEAPEAUBuffer@@@eastl@@X@2@@Z
   14FBB8 ?get_base@?$is_iterator_wrapper_helper@V?$move_iterator@PEAPEAUBuffer@@@eastl@@$00@eastl@@SAPEAPEAUBuffer@@V?$move_iterator@PEAPEAUBuffer@@@2@@Z
   14FBB8 ?initResourceLoaderInterface@@YAXPEAURenderer@@PEAUResourceLoaderDesc@@@Z
   14FBB8 ?internalAllocator@?$VectorBase@PEAUBuffer@@Vallocator_forge@eastl@@@eastl@@IEAAAEAVallocator_forge@2@XZ
   14FBB8 ?internalAllocator@?$VectorBase@UShaderMacro@@Vallocator_forge@eastl@@@eastl@@IEAAAEAVallocator_forge@2@XZ
   14FBB8 ?internalAllocator@?$VectorBase@UUpdateRequest@@Vallocator_forge@eastl@@@eastl@@IEAAAEAVallocator_forge@2@XZ
   14FBB8 ?internalAllocator@?$basic_string@DVallocator_forge@eastl@@@eastl@@IEAAAEAVallocator_forge@2@XZ
   14FBB8 ?internalAllocator@?$basic_string@DVallocator_forge@eastl@@@eastl@@IEBAAEBVallocator_forge@2@XZ
   14FBB8 ?internalCapacityPtr@?$VectorBase@PEAUBuffer@@Vallocator_forge@eastl@@@eastl@@IEAAAEAPEAPEAUBuffer@@XZ
   14FBB8 ?internalCapacityPtr@?$VectorBase@UShaderMacro@@Vallocator_forge@eastl@@@eastl@@IEAAAEAPEAUShaderMacro@@XZ
   14FBB8 ?internalCapacityPtr@?$VectorBase@UUpdateRequest@@Vallocator_forge@eastl@@@eastl@@IEAAAEAPEAUUpdateRequest@@XZ
   14FBB8 ?internalLayout@?$basic_string@DVallocator_forge@eastl@@@eastl@@IEAAAEAULayout@12@XZ
   14FBB8 ?internalLayout@?$basic_string@DVallocator_forge@eastl@@@eastl@@IEBAAEBULayout@12@XZ
   14FBB8 ?isTokenCompleted@@YA_NPEB_K@Z
   14FBB8 ?length@?$basic_string@DVallocator_forge@eastl@@@eastl@@QEBA_KXZ
   14FBB8 ?load_shader_stage_byte_code@@YA_NPEAURenderer@@W4ShaderTarget@@W4ShaderStage@@2AEBUShaderStageLoadDesc@@IPEAUShaderMacro@@PEAUBinaryShaderStageDesc@@@Z
   14FBB8 ?push_back@?$basic_string@DVallocator_forge@eastl@@@eastl@@QEAAXD@Z
   14FBB8 ?push_back@?$vector@PEAUBuffer@@Vallocator_forge@eastl@@@eastl@@QEAAXAEBQEAUBuffer@@@Z
   14FBB8 ?removeResource@@YAXPEAUBuffer@@@Z
   14FBB8 ?removeResource@@YAXPEAUGeometry@@@Z
   14FBB8 ?removeResource@@YAXPEAUTexture@@@Z
   14FBB8 ?reserve@?$basic_string@DVallocator_forge@eastl@@@eastl@@QEAAX_K@Z
   14FBB8 ?resize@?$basic_string@DVallocator_forge@eastl@@@eastl@@QEAAX_K@Z
   14FBB8 ?resize@?$vector@PEAUBuffer@@Vallocator_forge@eastl@@@eastl@@QEAAX_K@Z
   14FBB8 ?round@@YAMM@Z
   14FBB8 ?savePipelineCache@@YAXPEAURenderer@@PEAUPipelineCache@@PEAUPipelineCacheSaveDesc@@@Z
   14FBB8 ?save_byte_code@@YA_NPEBDPEADI@Z
   14FBB8 ?second@?$compressed_pair@PEAPEAUBuffer@@Vallocator_forge@eastl@@@eastl@@QEAAAEAVallocator_forge@2@XZ
   14FBB8 ?second@?$compressed_pair@PEAUShaderMacro@@Vallocator_forge@eastl@@@eastl@@QEAAAEAVallocator_forge@2@XZ
   14FBB8 ?second@?$compressed_pair@PEAUUpdateRequest@@Vallocator_forge@eastl@@@eastl@@QEAAAEAVallocator_forge@2@XZ
   14FBB8 ?second@?$compressed_pair@ULayout@?$basic_string@DVallocator_forge@eastl@@@eastl@@Vallocator_forge@3@@eastl@@QEAAAEAVallocator_forge@2@XZ
   14FBB8 ?second@?$compressed_pair@ULayout@?$basic_string@DVallocator_forge@eastl@@@eastl@@Vallocator_forge@3@@eastl@@QEBAAEBVallocator_forge@2@XZ
   14FBB8 ?second@?$compressed_pair_imp@PEAPEAUBuffer@@Vallocator_forge@eastl@@$01@eastl@@QEAAAEAVallocator_forge@2@XZ
   14FBB8 ?second@?$compressed_pair_imp@PEAUShaderMacro@@Vallocator_forge@eastl@@$01@eastl@@QEAAAEAVallocator_forge@2@XZ
   14FBB8 ?second@?$compressed_pair_imp@PEAUUpdateRequest@@Vallocator_forge@eastl@@$01@eastl@@QEAAAEAVallocator_forge@2@XZ
   14FBB8 ?second@?$compressed_pair_imp@ULayout@?$basic_string@DVallocator_forge@eastl@@@eastl@@Vallocator_forge@3@$01@eastl@@QEAAAEAVallocator_forge@2@XZ
   14FBB8 ?second@?$compressed_pair_imp@ULayout@?$basic_string@DVallocator_forge@eastl@@@eastl@@Vallocator_forge@3@$01@eastl@@QEBAAEBVallocator_forge@2@XZ
   14FBB8 ?set_capacity@?$basic_string@DVallocator_forge@eastl@@@eastl@@QEAAX_K@Z
   14FBB8 ?set_capacity@?$vector@PEAUBuffer@@Vallocator_forge@eastl@@@eastl@@QEAAX_K@Z
   14FBB8 ?shrink_to_fit@?$vector@PEAUBuffer@@Vallocator_forge@eastl@@@eastl@@QEAAXXZ
   14FBB8 ?size@?$basic_string@DVallocator_forge@eastl@@@eastl@@QEBA_KXZ
   14FBB8 ?size@?$vector@IV?$allocator@I@std@@@std@@QEBA_KXZ
   14FBB8 ?size@?$vector@UUpdateRequest@@Vallocator_forge@eastl@@@eastl@@QEBA_KXZ
   14FBB8 ?size@?$vector@UVirtualTexturePage@@Vallocator_forge@eastl@@@eastl@@QEBA_KXZ
   14FBB8 ?sprintf@?$basic_string@DVallocator_forge@eastl@@@eastl@@QEAAAEAV12@PEBDZZ
   14FBB8 ?swap@?$compressed_pair@PEAPEAUBuffer@@Vallocator_forge@eastl@@@eastl@@QEAAXAEAV12@@Z
   14FBB8 ?swap@?$compressed_pair@PEAUUpdateRequest@@Vallocator_forge@eastl@@@eastl@@QEAAXAEAV12@@Z
   14FBB8 ?swap@?$compressed_pair_imp@PEAPEAUBuffer@@Vallocator_forge@eastl@@$01@eastl@@QEAAXAEAV?$compressed_pair@PEAPEAUBuffer@@Vallocator_forge@eastl@@@2@@Z
   14FBB8 ?swap@?$compressed_pair_imp@PEAUUpdateRequest@@Vallocator_forge@eastl@@$01@eastl@@QEAAXAEAV?$compressed_pair@PEAUUpdateRequest@@Vallocator_forge@eastl@@@2@@Z
   14FBB8 ?swap@?$vector@UUpdateRequest@@Vallocator_forge@eastl@@@eastl@@QEAAXAEAV12@@Z
   14FBB8 ?waitForAllResourceLoads@@YAXXZ
   14FBB8 ?waitForToken@@YAXPEB_K@Z
   14FBB8 TinyImageFormat_FromTinyKtxFormat
   14FBB8 TinyImageFormat_ToTinyKtxFormat
   14FBB8 TinyKtx_ArraySlices
   14FBB8 TinyKtx_ByteDividableFromGLType
   14FBB8 TinyKtx_CrackFormatFromGL
   14FBB8 TinyKtx_CrackFormatToGL
   14FBB8 TinyKtx_CreateContext
   14FBB8 TinyKtx_Depth
   14FBB8 TinyKtx_DestroyContext
   14FBB8 TinyKtx_Dimensions
   14FBB8 TinyKtx_ElementCountFromGLFormat
   14FBB8 TinyKtx_GetFormat
   14FBB8 TinyKtx_GetFormatGL
   14FBB8 TinyKtx_GetValue
   14FBB8 TinyKtx_Height
   14FBB8 TinyKtx_ImageRawData
   14FBB8 TinyKtx_ImageSize
   14FBB8 TinyKtx_Is1D
   14FBB8 TinyKtx_Is2D
   14FBB8 TinyKtx_Is3D
   14FBB8 TinyKtx_IsArray
   14FBB8 TinyKtx_IsCubemap
   14FBB8 TinyKtx_IsMipMapLevelUnpacked
   14FBB8 TinyKtx_NeedsEndianCorrecting
   14FBB8 TinyKtx_NeedsGenerationOfMipmaps
   14FBB8 TinyKtx_NumberOfMipmaps
   14FBB8 TinyKtx_ReadHeader
   14FBB8 TinyKtx_Reset
   14FBB8 TinyKtx_UnpackedRowStride
   14FBB8 TinyKtx_Width
   14FBB8 TinyKtx_WriteImage
   14FBB8 TinyKtx_WriteImageGL
   14FBB8 cgltf_accessor_read_float
   14FBB8 cgltf_accessor_read_index
   14FBB8 cgltf_accessor_unpack_floats
   14FBB8 cgltf_copy_extras_json
   14FBB8 cgltf_free
   14FBB8 cgltf_load_buffer_base64
   14FBB8 cgltf_load_buffers
   14FBB8 cgltf_node_transform_local
   14FBB8 cgltf_node_transform_world
   14FBB8 cgltf_num_components
   14FBB8 cgltf_parse
   14FBB8 cgltf_parse_file
   14FBB8 cgltf_validate
   14FBB8 fabsf
   451784 ??$IID_PPV_ARGS_Helper@UID3D12LibraryReflection@@@@YAPEAPEAXPEAPEAUID3D12LibraryReflection@@@Z
   451784 ??$IID_PPV_ARGS_Helper@UID3D12ShaderReflection@@@@YAPEAPEAXPEAPEAUID3D12ShaderReflection@@@Z
   451784 ??$IID_PPV_ARGS_Helper@UIDxcContainerReflection@@@@YAPEAPEAXPEAPEAUIDxcContainerReflection@@@Z
   451784 ??$IID_PPV_ARGS_Helper@UIDxcLibrary@@@@YAPEAPEAXPEAPEAUIDxcLibrary@@@Z
   451784 ??$calculate_bound_resource_count@UID3D12FunctionReflection@@U_D3D12_FUNCTION_DESC@@@@YAXPEAUID3D12FunctionReflection@@AEBU_D3D12_FUNCTION_DESC@@AEAUShaderReflection@@@Z
   451784 ??$calculate_bound_resource_count@UID3D12ShaderReflection@@U_D3D12_SHADER_DESC@@@@YAXPEAUID3D12ShaderReflection@@AEBU_D3D12_SHADER_DESC@@AEAUShaderReflection@@@Z
   451784 ??$fill_shader_resources@UID3D12FunctionReflection@@U_D3D12_FUNCTION_DESC@@@@YAXPEAUID3D12FunctionReflection@@AEBU_D3D12_FUNCTION_DESC@@W4ShaderStage@@PEADAEAUShaderReflection@@@Z
   451784 ??$fill_shader_resources@UID3D12ShaderReflection@@U_D3D12_SHADER_DESC@@@@YAXPEAUID3D12ShaderReflection@@AEBU_D3D12_SHADER_DESC@@W4ShaderStage@@PEADAEAUShaderReflection@@@Z
   451784 ??$log2@H$0A@@@YANH@Z
   451784 ??_C@_02DKCKIIND@?$CFs@
   451784 ??_C@_04CFLIKOFM@?$CFs?$CFu@
   451784 ??_C@_0BG@IIPLKBNK@fill_shader_resources@
   451784 ??_C@_0BN@CNAELLHI@d3d12_createShaderReflection@
   451784 ??_C@_0BO@LMJFHIKN@Parameter?5?8shaderSize?8?5was?50?4@
   451784 ??_C@_0CB@MDLIPOFI@Parameter?5?8shaderCode?8?5was?5NULL@
   451784 ??_C@_0CF@HFKGJFJP@Paramater?5?8pOutReflection?8?5was?5@
   451784 ??_C@_0EN@HOOMDKAM@C?3?2src?2The?9Forge?2Common_3?2Rende@
   451784 ?_OptionsStorage@?1??__local_stdio_printf_options@@9@4_KA
   451784 ?d3d12_createShaderReflection@@YAXPEAUID3D12LibraryReflection@@W4ShaderStage@@AEAUShaderReflection@@@Z
   451784 ?d3d12_createShaderReflection@@YAXPEAUID3D12ShaderReflection@@W4ShaderStage@@AEAUShaderReflection@@@Z
   451784 ?d3d12_createShaderReflection@@YAXPEBEIW4ShaderStage@@PEAUShaderReflection@@@Z
   451784 _GUID_5a58797d_a72c_478d_8ba2_efc6b0efe88e
   451784 _GUID_8e349d19_54db_4a56_9dc9_119d87bdb804
   451784 _GUID_d2c21b26_8350_4bdc_976a_331ce6f4c54c
   451784 _GUID_e5204dc7_d18c_4c3c_bdfb_851673980fe7
   451784 __local_stdio_printf_options
   451784 _vsnprintf_l
   451784 _vsprintf_l
   451784 sprintf
   60F2F0 ??$?0IPEAUD3D12_SUBOBJECT_TO_EXPORTS_ASSOCIATION@@X@?$pair@IPEAUD3D12_SUBOBJECT_TO_EXPORTS_ASSOCIATION@@@eastl@@QEAA@$$QEAI$$QEAPEAUD3D12_SUBOBJECT_TO_EXPORTS_ASSOCIATION@@@Z
   60F2F0 ??$?9PEAU?$pair@IPEAUD3D12_SUBOBJECT_TO_EXPORTS_ASSOCIATION@@@eastl@@X@eastl@@YA_NAEBV?$generic_iterator@PEAU?$pair@IPEAUD3D12_SUBOBJECT_TO_EXPORTS_ASSOCIATION@@@eastl@@X@0@0@Z
   60F2F0 ??$DoInsertValueEnd@AEAPEAUD3D12_EXPORT_DESC@@@?$vector@PEAUD3D12_EXPORT_DESC@@Vallocator_forge@eastl@@@eastl@@IEAAXAEAPEAUD3D12_EXPORT_DESC@@@Z
   60F2F0 ??$DoInsertValueEnd@AEAUD3D12_DXIL_LIBRARY_DESC@@@?$vector@UD3D12_DXIL_LIBRARY_DESC@@Vallocator_forge@eastl@@@eastl@@IEAAXAEAUD3D12_DXIL_LIBRARY_DESC@@@Z
   60F2F0 ??$DoInsertValueEnd@AEAUD3D12_STATE_SUBOBJECT@@@?$vector@UD3D12_STATE_SUBOBJECT@@Vallocator_forge@eastl@@@eastl@@IEAAXAEAUD3D12_STATE_SUBOBJECT@@@Z
   60F2F0 ??$DoInsertValueEnd@U?$pair@IPEAUD3D12_SUBOBJECT_TO_EXPORTS_ASSOCIATION@@@eastl@@@?$vector@U?$pair@IPEAUD3D12_SUBOBJECT_TO_EXPORTS_ASSOCIATION@@@eastl@@Vallocator_forge@2@@eastl@@IEAAX$$QEAU?$pair@IPEAUD3D12_SUBOBJECT_TO_EXPORTS_ASSOCIATION@@@1@@Z
   60F2F0 ??$DoInsertValueEnd@UD3D12_STATE_SUBOBJECT@@@?$vector@UD3D12_STATE_SUBOBJECT@@Vallocator_forge@eastl@@@eastl@@IEAAX$$QEAUD3D12_STATE_SUBOBJECT@@@Z
   60F2F0 ??$IID_PPV_ARGS_Helper@UID3D12Device5@@@@YAPEAPEAXPEAPEAUID3D12Device5@@@Z
   60F2F0 ??$IID_PPV_ARGS_Helper@UID3D12GraphicsCommandList4@@@@YAPEAPEAXPEAPEAUID3D12GraphicsCommandList4@@@Z
   60F2F0 ??$IID_PPV_ARGS_Helper@UID3D12StateObject@@@@YAPEAPEAXPEAPEAUID3D12StateObject@@@Z
   60F2F0 ??$IID_PPV_ARGS_Helper@UID3D12StateObjectProperties@@@@YAPEAPEAXPEAPEAUID3D12StateObjectProperties@@@Z
   60F2F0 ??$addressof@U?$pair@IPEAUD3D12_SUBOBJECT_TO_EXPORTS_ASSOCIATION@@@eastl@@@eastl@@YAPEAU?$pair@IPEAUD3D12_SUBOBJECT_TO_EXPORTS_ASSOCIATION@@@0@AEAU10@@Z
   60F2F0 ??$addressof@UD3D12_HIT_GROUP_DESC@@@eastl@@YAPEAUD3D12_HIT_GROUP_DESC@@AEAU1@@Z
   60F2F0 ??$addressof@UD3D12_LOCAL_ROOT_SIGNATURE@@@eastl@@YAPEAUD3D12_LOCAL_ROOT_SIGNATURE@@AEAU1@@Z
   60F2F0 ??$addressof@UD3D12_RAYTRACING_INSTANCE_DESC@@@eastl@@YAPEAUD3D12_RAYTRACING_INSTANCE_DESC@@AEAU1@@Z
   60F2F0 ??$addressof@UD3D12_STATE_SUBOBJECT@@@eastl@@YAPEAUD3D12_STATE_SUBOBJECT@@AEAU1@@Z
   60F2F0 ??$addressof@UD3D12_SUBOBJECT_TO_EXPORTS_ASSOCIATION@@@eastl@@YAPEAUD3D12_SUBOBJECT_TO_EXPORTS_ASSOCIATION@@AEAU1@@Z
   60F2F0 ??$copy@V?$generic_iterator@PEAPEAUD3D12_EXPORT_DESC@@X@eastl@@V12@@eastl@@YA?AV?$generic_iterator@PEAPEAUD3D12_EXPORT_DESC@@X@0@V10@00@Z
   60F2F0 ??$copy@V?$generic_iterator@PEAUD3D12_DXIL_LIBRARY_DESC@@X@eastl@@V12@@eastl@@YA?AV?$generic_iterator@PEAUD3D12_DXIL_LIBRARY_DESC@@X@0@V10@00@Z
   60F2F0 ??$copy@V?$generic_iterator@PEAUD3D12_STATE_SUBOBJECT@@X@eastl@@V12@@eastl@@YA?AV?$generic_iterator@PEAUD3D12_STATE_SUBOBJECT@@X@0@V10@00@Z
   60F2F0 ??$destruct@PEAPEAUD3D12_EXPORT_DESC@@@eastl@@YAXPEAPEAUD3D12_EXPORT_DESC@@0@Z
   60F2F0 ??$destruct@PEAPEA_W@eastl@@YAXPEAPEA_W0@Z
   60F2F0 ??$destruct@PEAPEB_W@eastl@@YAXPEAPEB_W0@Z
   60F2F0 ??$destruct@PEAU?$pair@IPEAUD3D12_SUBOBJECT_TO_EXPORTS_ASSOCIATION@@@eastl@@@eastl@@YAXPEAU?$pair@IPEAUD3D12_SUBOBJECT_TO_EXPORTS_ASSOCIATION@@@0@0@Z
   60F2F0 ??$destruct@PEAUD3D12_DXIL_LIBRARY_DESC@@@eastl@@YAXPEAUD3D12_DXIL_LIBRARY_DESC@@0@Z
   60F2F0 ??$destruct@PEAUD3D12_HIT_GROUP_DESC@@@eastl@@YAXPEAUD3D12_HIT_GROUP_DESC@@0@Z
   60F2F0 ??$destruct@PEAUD3D12_LOCAL_ROOT_SIGNATURE@@@eastl@@YAXPEAUD3D12_LOCAL_ROOT_SIGNATURE@@0@Z
   60F2F0 ??$destruct@PEAUD3D12_RAYTRACING_INSTANCE_DESC@@@eastl@@YAXPEAUD3D12_RAYTRACING_INSTANCE_DESC@@0@Z
   60F2F0 ??$destruct@PEAUD3D12_STATE_SUBOBJECT@@@eastl@@YAXPEAUD3D12_STATE_SUBOBJECT@@0@Z
   60F2F0 ??$destruct@PEAUD3D12_SUBOBJECT_TO_EXPORTS_ASSOCIATION@@@eastl@@YAXPEAUD3D12_SUBOBJECT_TO_EXPORTS_ASSOCIATION@@0@Z
   60F2F0 ??$destruct_impl@PEAPEAUD3D12_EXPORT_DESC@@@eastl@@YAXPEAPEAUD3D12_EXPORT_DESC@@0U?$integral_constant@_N$00@0@@Z
   60F2F0 ??$destruct_impl@PEAPEA_W@eastl@@YAXPEAPEA_W0U?$integral_constant@_N$00@0@@Z
   60F2F0 ??$destruct_impl@PEAPEB_W@eastl@@YAXPEAPEB_W0U?$integral_constant@_N$00@0@@Z
   60F2F0 ??$destruct_impl@PEAU?$pair@IPEAUD3D12_SUBOBJECT_TO_EXPORTS_ASSOCIATION@@@eastl@@@eastl@@YAXPEAU?$pair@IPEAUD3D12_SUBOBJECT_TO_EXPORTS_ASSOCIATION@@@0@0U?$integral_constant@_N$00@0@@Z
   60F2F0 ??$destruct_impl@PEAUD3D12_DXIL_LIBRARY_DESC@@@eastl@@YAXPEAUD3D12_DXIL_LIBRARY_DESC@@0U?$integral_constant@_N$00@0@@Z
   60F2F0 ??$destruct_impl@PEAUD3D12_HIT_GROUP_DESC@@@eastl@@YAXPEAUD3D12_HIT_GROUP_DESC@@0U?$integral_constant@_N$00@0@@Z
   60F2F0 ??$destruct_impl@PEAUD3D12_LOCAL_ROOT_SIGNATURE@@@eastl@@YAXPEAUD3D12_LOCAL_ROOT_SIGNATURE@@0U?$integral_constant@_N$00@0@@Z
   60F2F0 ??$destruct_impl@PEAUD3D12_RAYTRACING_INSTANCE_DESC@@@eastl@@YAXPEAUD3D12_RAYTRACING_INSTANCE_DESC@@0U?$integral_constant@_N$00@0@@Z
   60F2F0 ??$destruct_impl@PEAUD3D12_STATE_SUBOBJECT@@@eastl@@YAXPEAUD3D12_STATE_SUBOBJECT@@0U?$integral_constant@_N$00@0@@Z
   60F2F0 ??$destruct_impl@PEAUD3D12_SUBOBJECT_TO_EXPORTS_ASSOCIATION@@@eastl@@YAXPEAUD3D12_SUBOBJECT_TO_EXPORTS_ASSOCIATION@@0U?$integral_constant@_N$00@0@@Z
   60F2F0 ??$emplace_back@AEAPEAUD3D12_EXPORT_DESC@@@?$vector@PEAUD3D12_EXPORT_DESC@@Vallocator_forge@eastl@@@eastl@@QEAAAEAPEAUD3D12_EXPORT_DESC@@AEAPEAU2@@Z
   60F2F0 ??$emplace_back@AEAUD3D12_DXIL_LIBRARY_DESC@@@?$vector@UD3D12_DXIL_LIBRARY_DESC@@Vallocator_forge@eastl@@@eastl@@QEAAAEAUD3D12_DXIL_LIBRARY_DESC@@AEAU2@@Z
   60F2F0 ??$emplace_back@AEAUD3D12_STATE_SUBOBJECT@@@?$vector@UD3D12_STATE_SUBOBJECT@@Vallocator_forge@eastl@@@eastl@@QEAAAEAUD3D12_STATE_SUBOBJECT@@AEAU2@@Z
   60F2F0 ??$emplace_back@UD3D12_STATE_SUBOBJECT@@@?$vector@UD3D12_STATE_SUBOBJECT@@Vallocator_forge@eastl@@@eastl@@QEAAAEAUD3D12_STATE_SUBOBJECT@@$$QEAU2@@Z
   60F2F0 ??$forward@AEAPEAUD3D12_EXPORT_DESC@@@eastl@@YAAEAPEAUD3D12_EXPORT_DESC@@AEAPEAU1@@Z
   60F2F0 ??$forward@AEAUD3D12_DXIL_LIBRARY_DESC@@@eastl@@YAAEAUD3D12_DXIL_LIBRARY_DESC@@AEAU1@@Z
   60F2F0 ??$forward@AEAUD3D12_STATE_SUBOBJECT@@@eastl@@YAAEAUD3D12_STATE_SUBOBJECT@@AEAU1@@Z
   60F2F0 ??$forward@I@eastl@@YA$$QEAIAEAI@Z
   60F2F0 ??$forward@PEAUD3D12_SUBOBJECT_TO_EXPORTS_ASSOCIATION@@@eastl@@YA$$QEAPEAUD3D12_SUBOBJECT_TO_EXPORTS_ASSOCIATION@@AEAPEAU1@@Z
   60F2F0 ??$forward@U?$pair@IPEAUD3D12_SUBOBJECT_TO_EXPORTS_ASSOCIATION@@@eastl@@@eastl@@YA$$QEAU?$pair@IPEAUD3D12_SUBOBJECT_TO_EXPORTS_ASSOCIATION@@@0@AEAU10@@Z
   60F2F0 ??$forward@UD3D12_STATE_SUBOBJECT@@@eastl@@YA$$QEAUD3D12_STATE_SUBOBJECT@@AEAU1@@Z
   60F2F0 ??$move@AEAU?$pair@IPEAUD3D12_SUBOBJECT_TO_EXPORTS_ASSOCIATION@@@eastl@@@eastl@@YA$$QEAU?$pair@IPEAUD3D12_SUBOBJECT_TO_EXPORTS_ASSOCIATION@@@0@AEAU10@@Z
   60F2F0 ??$move@AEAUD3D12_STATE_SUBOBJECT@@@eastl@@YA$$QEAUD3D12_STATE_SUBOBJECT@@AEAU1@@Z
   60F2F0 ??$move_and_copy_chooser@$0A@PEAPEAUD3D12_EXPORT_DESC@@PEAPEAU1@@eastl@@YAPEAPEAUD3D12_EXPORT_DESC@@PEAPEAU1@00@Z
   60F2F0 ??$move_and_copy_chooser@$0A@PEAUD3D12_DXIL_LIBRARY_DESC@@PEAU1@@eastl@@YAPEAUD3D12_DXIL_LIBRARY_DESC@@PEAU1@00@Z
   60F2F0 ??$move_and_copy_chooser@$0A@PEAUD3D12_STATE_SUBOBJECT@@PEAU1@@eastl@@YAPEAUD3D12_STATE_SUBOBJECT@@PEAU1@00@Z
   60F2F0 ??$move_and_copy_unwrapper@$0A@PEAPEAUD3D12_EXPORT_DESC@@V?$generic_iterator@PEAPEAUD3D12_EXPORT_DESC@@X@eastl@@@eastl@@YA?AV?$generic_iterator@PEAPEAUD3D12_EXPORT_DESC@@X@0@PEAPEAUD3D12_EXPORT_DESC@@0V10@@Z
   60F2F0 ??$move_and_copy_unwrapper@$0A@PEAUD3D12_DXIL_LIBRARY_DESC@@V?$generic_iterator@PEAUD3D12_DXIL_LIBRARY_DESC@@X@eastl@@@eastl@@YA?AV?$generic_iterator@PEAUD3D12_DXIL_LIBRARY_DESC@@X@0@PEAUD3D12_DXIL_LIBRARY_DESC@@0V10@@Z
   60F2F0 ??$move_and_copy_unwrapper@$0A@PEAUD3D12_STATE_SUBOBJECT@@V?$generic_iterator@PEAUD3D12_STATE_SUBOBJECT@@X@eastl@@@eastl@@YA?AV?$generic_iterator@PEAUD3D12_STATE_SUBOBJECT@@X@0@PEAUD3D12_STATE_SUBOBJECT@@0V10@@Z
   60F2F0 ??$move_or_copy@PEAUD3D12_EXPORT_DESC@@@?$move_and_copy_helper@Urandom_access_iterator_tag@eastl@@$0A@$00@eastl@@SAPEAPEAUD3D12_EXPORT_DESC@@PEBQEAU2@0PEAPEAU2@@Z
   60F2F0 ??$move_or_copy@UD3D12_DXIL_LIBRARY_DESC@@@?$move_and_copy_helper@Urandom_access_iterator_tag@eastl@@$0A@$00@eastl@@SAPEAUD3D12_DXIL_LIBRARY_DESC@@PEBU2@0PEAU2@@Z
   60F2F0 ??$move_or_copy@UD3D12_STATE_SUBOBJECT@@@?$move_and_copy_helper@Urandom_access_iterator_tag@eastl@@$0A@$00@eastl@@SAPEAUD3D12_STATE_SUBOBJECT@@PEBU2@0PEAU2@@Z
   60F2F0 ??$uninitialized_default_fill_n@PEAPEA_W_K@eastl@@YAXPEAPEA_W_K@Z
   60F2F0 ??$uninitialized_default_fill_n@PEAPEB_W_K@eastl@@YAXPEAPEB_W_K@Z
   60F2F0 ??$uninitialized_default_fill_n@PEAUD3D12_HIT_GROUP_DESC@@_K@eastl@@YAXPEAUD3D12_HIT_GROUP_DESC@@_K@Z
   60F2F0 ??$uninitialized_default_fill_n@PEAUD3D12_LOCAL_ROOT_SIGNATURE@@_K@eastl@@YAXPEAUD3D12_LOCAL_ROOT_SIGNATURE@@_K@Z
   60F2F0 ??$uninitialized_default_fill_n@PEAUD3D12_RAYTRACING_INSTANCE_DESC@@_K@eastl@@YAXPEAUD3D12_RAYTRACING_INSTANCE_DESC@@_K@Z
   60F2F0 ??$uninitialized_default_fill_n@PEAUD3D12_STATE_SUBOBJECT@@_K@eastl@@YAXPEAUD3D12_STATE_SUBOBJECT@@_K@Z
   60F2F0 ??$uninitialized_default_fill_n@PEAUD3D12_SUBOBJECT_TO_EXPORTS_ASSOCIATION@@_K@eastl@@YAXPEAUD3D12_SUBOBJECT_TO_EXPORTS_ASSOCIATION@@_K@Z
   60F2F0 ??$uninitialized_default_fill_n_impl@PEAPEA_W_K@Internal@eastl@@YAXPEAPEA_W_KU?$integral_constant@_N$00@1@@Z
   60F2F0 ??$uninitialized_default_fill_n_impl@PEAPEB_W_K@Internal@eastl@@YAXPEAPEB_W_KU?$integral_constant@_N$00@1@@Z
   60F2F0 ??$uninitialized_default_fill_n_impl@PEAUD3D12_HIT_GROUP_DESC@@_K@Internal@eastl@@YAXPEAUD3D12_HIT_GROUP_DESC@@_KU?$integral_constant@_N$0A@@1@@Z
   60F2F0 ??$uninitialized_default_fill_n_impl@PEAUD3D12_LOCAL_ROOT_SIGNATURE@@_K@Internal@eastl@@YAXPEAUD3D12_LOCAL_ROOT_SIGNATURE@@_KU?$integral_constant@_N$0A@@1@@Z
   60F2F0 ??$uninitialized_default_fill_n_impl@PEAUD3D12_RAYTRACING_INSTANCE_DESC@@_K@Internal@eastl@@YAXPEAUD3D12_RAYTRACING_INSTANCE_DESC@@_KU?$integral_constant@_N$0A@@1@@Z
   60F2F0 ??$uninitialized_default_fill_n_impl@PEAUD3D12_STATE_SUBOBJECT@@_K@Internal@eastl@@YAXPEAUD3D12_STATE_SUBOBJECT@@_KU?$integral_constant@_N$0A@@1@@Z
   60F2F0 ??$uninitialized_default_fill_n_impl@PEAUD3D12_SUBOBJECT_TO_EXPORTS_ASSOCIATION@@_K@Internal@eastl@@YAXPEAUD3D12_SUBOBJECT_TO_EXPORTS_ASSOCIATION@@_KU?$integral_constant@_N$0A@@1@@Z
   60F2F0 ??$uninitialized_move_impl@V?$generic_iterator@PEAPEAUD3D12_EXPORT_DESC@@X@eastl@@V12@@Internal@eastl@@YA?AV?$generic_iterator@PEAPEAUD3D12_EXPORT_DESC@@X@1@V21@00U?$integral_constant@_N$00@1@@Z
   60F2F0 ??$uninitialized_move_impl@V?$generic_iterator@PEAU?$pair@IPEAUD3D12_SUBOBJECT_TO_EXPORTS_ASSOCIATION@@@eastl@@X@eastl@@V12@@Internal@eastl@@YA?AV?$generic_iterator@PEAU?$pair@IPEAUD3D12_SUBOBJECT_TO_EXPORTS_ASSOCIATION@@@eastl@@X@1@V21@00U?$integral_constant@_N$0A@@1@@Z
   60F2F0 ??$uninitialized_move_impl@V?$generic_iterator@PEAUD3D12_DXIL_LIBRARY_DESC@@X@eastl@@V12@@Internal@eastl@@YA?AV?$generic_iterator@PEAUD3D12_DXIL_LIBRARY_DESC@@X@1@V21@00U?$integral_constant@_N$00@1@@Z
   60F2F0 ??$uninitialized_move_impl@V?$generic_iterator@PEAUD3D12_STATE_SUBOBJECT@@X@eastl@@V12@@Internal@eastl@@YA?AV?$generic_iterator@PEAUD3D12_STATE_SUBOBJECT@@X@1@V21@00U?$integral_constant@_N$00@1@@Z
   60F2F0 ??$uninitialized_move_ptr@PEAPEAUD3D12_EXPORT_DESC@@PEAPEAU1@PEAPEAU1@@eastl@@YAPEAPEAUD3D12_EXPORT_DESC@@PEAPEAU1@00@Z
   60F2F0 ??$uninitialized_move_ptr@PEAU?$pair@IPEAUD3D12_SUBOBJECT_TO_EXPORTS_ASSOCIATION@@@eastl@@PEAU12@PEAU12@@eastl@@YAPEAU?$pair@IPEAUD3D12_SUBOBJECT_TO_EXPORTS_ASSOCIATION@@@0@PEAU10@00@Z
   60F2F0 ??$uninitialized_move_ptr@PEAUD3D12_DXIL_LIBRARY_DESC@@PEAU1@PEAU1@@eastl@@YAPEAUD3D12_DXIL_LIBRARY_DESC@@PEAU1@00@Z
   60F2F0 ??$uninitialized_move_ptr@PEAUD3D12_STATE_SUBOBJECT@@PEAU1@PEAU1@@eastl@@YAPEAUD3D12_STATE_SUBOBJECT@@PEAU1@00@Z
   60F2F0 ??$uninitialized_move_ptr_if_noexcept@PEAPEAUD3D12_EXPORT_DESC@@PEAPEAU1@PEAPEAU1@@eastl@@YAPEAPEAUD3D12_EXPORT_DESC@@PEAPEAU1@00@Z
   60F2F0 ??$uninitialized_move_ptr_if_noexcept@PEAU?$pair@IPEAUD3D12_SUBOBJECT_TO_EXPORTS_ASSOCIATION@@@eastl@@PEAU12@PEAU12@@eastl@@YAPEAU?$pair@IPEAUD3D12_SUBOBJECT_TO_EXPORTS_ASSOCIATION@@@0@PEAU10@00@Z
   60F2F0 ??$uninitialized_move_ptr_if_noexcept@PEAUD3D12_DXIL_LIBRARY_DESC@@PEAU1@PEAU1@@eastl@@YAPEAUD3D12_DXIL_LIBRARY_DESC@@PEAU1@00@Z
   60F2F0 ??$uninitialized_move_ptr_if_noexcept@PEAUD3D12_STATE_SUBOBJECT@@PEAU1@PEAU1@@eastl@@YAPEAUD3D12_STATE_SUBOBJECT@@PEAU1@00@Z
   60F2F0 ??$unwrap_iterator@PEAPEAUD3D12_EXPORT_DESC@@@eastl@@YAPEAPEAUD3D12_EXPORT_DESC@@PEAPEAU1@@Z
   60F2F0 ??$unwrap_iterator@PEAUD3D12_DXIL_LIBRARY_DESC@@@eastl@@YAPEAUD3D12_DXIL_LIBRARY_DESC@@PEAU1@@Z
   60F2F0 ??$unwrap_iterator@PEAUD3D12_STATE_SUBOBJECT@@@eastl@@YAPEAUD3D12_STATE_SUBOBJECT@@PEAU1@@Z
   60F2F0 ??$unwrap_iterator@V?$generic_iterator@PEAPEAUD3D12_EXPORT_DESC@@X@eastl@@@eastl@@YAPEAPEAUD3D12_EXPORT_DESC@@V?$generic_iterator@PEAPEAUD3D12_EXPORT_DESC@@X@0@@Z
   60F2F0 ??$unwrap_iterator@V?$generic_iterator@PEAUD3D12_DXIL_LIBRARY_DESC@@X@eastl@@@eastl@@YAPEAUD3D12_DXIL_LIBRARY_DESC@@V?$generic_iterator@PEAUD3D12_DXIL_LIBRARY_DESC@@X@0@@Z
   60F2F0 ??$unwrap_iterator@V?$generic_iterator@PEAUD3D12_STATE_SUBOBJECT@@X@eastl@@@eastl@@YAPEAUD3D12_STATE_SUBOBJECT@@V?$generic_iterator@PEAUD3D12_STATE_SUBOBJECT@@X@0@@Z
   60F2F0 ??0?$VectorBase@PEAUD3D12_EXPORT_DESC@@Vallocator_forge@eastl@@@eastl@@QEAA@XZ
   60F2F0 ??0?$VectorBase@PEA_WVallocator_forge@eastl@@@eastl@@QEAA@_KAEBVallocator_forge@1@@Z
   60F2F0 ??0?$VectorBase@PEB_WVallocator_forge@eastl@@@eastl@@QEAA@_KAEBVallocator_forge@1@@Z
   60F2F0 ??0?$VectorBase@U?$pair@IPEAUD3D12_SUBOBJECT_TO_EXPORTS_ASSOCIATION@@@eastl@@Vallocator_forge@2@@eastl@@QEAA@XZ
   60F2F0 ??0?$VectorBase@UD3D12_DXIL_LIBRARY_DESC@@Vallocator_forge@eastl@@@eastl@@QEAA@XZ
   60F2F0 ??0?$VectorBase@UD3D12_HIT_GROUP_DESC@@Vallocator_forge@eastl@@@eastl@@QEAA@_KAEBVallocator_forge@1@@Z
   60F2F0 ??0?$VectorBase@UD3D12_LOCAL_ROOT_SIGNATURE@@Vallocator_forge@eastl@@@eastl@@QEAA@_KAEBVallocator_forge@1@@Z
   60F2F0 ??0?$VectorBase@UD3D12_RAYTRACING_INSTANCE_DESC@@Vallocator_forge@eastl@@@eastl@@QEAA@_KAEBVallocator_forge@1@@Z
   60F2F0 ??0?$VectorBase@UD3D12_STATE_SUBOBJECT@@Vallocator_forge@eastl@@@eastl@@QEAA@XZ
   60F2F0 ??0?$VectorBase@UD3D12_STATE_SUBOBJECT@@Vallocator_forge@eastl@@@eastl@@QEAA@_KAEBVallocator_forge@1@@Z
   60F2F0 ??0?$VectorBase@UD3D12_SUBOBJECT_TO_EXPORTS_ASSOCIATION@@Vallocator_forge@eastl@@@eastl@@QEAA@_KAEBVallocator_forge@1@@Z
   60F2F0 ??0?$compressed_pair@PEAPEAUD3D12_EXPORT_DESC@@Vallocator_forge@eastl@@@eastl@@QEAA@QEAPEAUD3D12_EXPORT_DESC@@AEBVallocator_forge@1@@Z
   60F2F0 ??0?$compressed_pair@PEAPEA_WVallocator_forge@eastl@@@eastl@@QEAA@AEBVallocator_forge@1@@Z
   60F2F0 ??0?$compressed_pair@PEAPEB_WVallocator_forge@eastl@@@eastl@@QEAA@AEBVallocator_forge@1@@Z
   60F2F0 ??0?$compressed_pair@PEAU?$pair@IPEAUD3D12_SUBOBJECT_TO_EXPORTS_ASSOCIATION@@@eastl@@Vallocator_forge@2@@eastl@@QEAA@QEAU?$pair@IPEAUD3D12_SUBOBJECT_TO_EXPORTS_ASSOCIATION@@@1@AEBVallocator_forge@1@@Z
   60F2F0 ??0?$compressed_pair@PEAUD3D12_DXIL_LIBRARY_DESC@@Vallocator_forge@eastl@@@eastl@@QEAA@QEAUD3D12_DXIL_LIBRARY_DESC@@AEBVallocator_forge@1@@Z
   60F2F0 ??0?$compressed_pair@PEAUD3D12_HIT_GROUP_DESC@@Vallocator_forge@eastl@@@eastl@@QEAA@AEBVallocator_forge@1@@Z
   60F2F0 ??0?$compressed_pair@PEAUD3D12_LOCAL_ROOT_SIGNATURE@@Vallocator_forge@eastl@@@eastl@@QEAA@AEBVallocator_forge@1@@Z
   60F2F0 ??0?$compressed_pair@PEAUD3D12_RAYTRACING_INSTANCE_DESC@@Vallocator_forge@eastl@@@eastl@@QEAA@AEBVallocator_forge@1@@Z
   60F2F0 ??0?$compressed_pair@PEAUD3D12_STATE_SUBOBJECT@@Vallocator_forge@eastl@@@eastl@@QEAA@AEBVallocator_forge@1@@Z
   60F2F0 ??0?$compressed_pair@PEAUD3D12_STATE_SUBOBJECT@@Vallocator_forge@eastl@@@eastl@@QEAA@QEAUD3D12_STATE_SUBOBJECT@@AEBVallocator_forge@1@@Z
   60F2F0 ??0?$compressed_pair@PEAUD3D12_SUBOBJECT_TO_EXPORTS_ASSOCIATION@@Vallocator_forge@eastl@@@eastl@@QEAA@AEBVallocator_forge@1@@Z
   60F2F0 ??0?$compressed_pair_imp@PEAPEAUD3D12_EXPORT_DESC@@Vallocator_forge@eastl@@$01@eastl@@QEAA@QEAPEAUD3D12_EXPORT_DESC@@AEBVallocator_forge@1@@Z
   60F2F0 ??0?$compressed_pair_imp@PEAPEA_WVallocator_forge@eastl@@$01@eastl@@QEAA@AEBVallocator_forge@1@@Z
   60F2F0 ??0?$compressed_pair_imp@PEAPEB_WVallocator_forge@eastl@@$01@eastl@@QEAA@AEBVallocator_forge@1@@Z
   60F2F0 ??0?$compressed_pair_imp@PEAU?$pair@IPEAUD3D12_SUBOBJECT_TO_EXPORTS_ASSOCIATION@@@eastl@@Vallocator_forge@2@$01@eastl@@QEAA@QEAU?$pair@IPEAUD3D12_SUBOBJECT_TO_EXPORTS_ASSOCIATION@@@1@AEBVallocator_forge@1@@Z
   60F2F0 ??0?$compressed_pair_imp@PEAUD3D12_DXIL_LIBRARY_DESC@@Vallocator_forge@eastl@@$01@eastl@@QEAA@QEAUD3D12_DXIL_LIBRARY_DESC@@AEBVallocator_forge@1@@Z
   60F2F0 ??0?$compressed_pair_imp@PEAUD3D12_HIT_GROUP_DESC@@Vallocator_forge@eastl@@$01@eastl@@QEAA@AEBVallocator_forge@1@@Z
   60F2F0 ??0?$compressed_pair_imp@PEAUD3D12_LOCAL_ROOT_SIGNATURE@@Vallocator_forge@eastl@@$01@eastl@@QEAA@AEBVallocator_forge@1@@Z
   60F2F0 ??0?$compressed_pair_imp@PEAUD3D12_RAYTRACING_INSTANCE_DESC@@Vallocator_forge@eastl@@$01@eastl@@QEAA@AEBVallocator_forge@1@@Z
   60F2F0 ??0?$compressed_pair_imp@PEAUD3D12_STATE_SUBOBJECT@@Vallocator_forge@eastl@@$01@eastl@@QEAA@AEBVallocator_forge@1@@Z
   60F2F0 ??0?$compressed_pair_imp@PEAUD3D12_STATE_SUBOBJECT@@Vallocator_forge@eastl@@$01@eastl@@QEAA@QEAUD3D12_STATE_SUBOBJECT@@AEBVallocator_forge@1@@Z
   60F2F0 ??0?$compressed_pair_imp@PEAUD3D12_SUBOBJECT_TO_EXPORTS_ASSOCIATION@@Vallocator_forge@eastl@@$01@eastl@@QEAA@AEBVallocator_forge@1@@Z
   60F2F0 ??0?$generic_iterator@PEAPEAUD3D12_EXPORT_DESC@@X@eastl@@QEAA@AEBQEAPEAUD3D12_EXPORT_DESC@@@Z
   60F2F0 ??0?$generic_iterator@PEAU?$pair@IPEAUD3D12_SUBOBJECT_TO_EXPORTS_ASSOCIATION@@@eastl@@X@eastl@@QEAA@AEBQEAU?$pair@IPEAUD3D12_SUBOBJECT_TO_EXPORTS_ASSOCIATION@@@1@@Z
   60F2F0 ??0?$generic_iterator@PEAUD3D12_DXIL_LIBRARY_DESC@@X@eastl@@QEAA@AEBQEAUD3D12_DXIL_LIBRARY_DESC@@@Z
   60F2F0 ??0?$generic_iterator@PEAUD3D12_STATE_SUBOBJECT@@X@eastl@@QEAA@AEBQEAUD3D12_STATE_SUBOBJECT@@@Z
   60F2F0 ??0?$vector@PEAUD3D12_EXPORT_DESC@@Vallocator_forge@eastl@@@eastl@@QEAA@XZ
   60F2F0 ??0?$vector@PEA_WVallocator_forge@eastl@@@eastl@@QEAA@_KAEBVallocator_forge@1@@Z
   60F2F0 ??0?$vector@PEB_WVallocator_forge@eastl@@@eastl@@QEAA@_KAEBVallocator_forge@1@@Z
   60F2F0 ??0?$vector@U?$pair@IPEAUD3D12_SUBOBJECT_TO_EXPORTS_ASSOCIATION@@@eastl@@Vallocator_forge@2@@eastl@@QEAA@XZ
   60F2F0 ??0?$vector@UD3D12_DXIL_LIBRARY_DESC@@Vallocator_forge@eastl@@@eastl@@QEAA@XZ
   60F2F0 ??0?$vector@UD3D12_HIT_GROUP_DESC@@Vallocator_forge@eastl@@@eastl@@QEAA@_KAEBVallocator_forge@1@@Z
   60F2F0 ??0?$vector@UD3D12_LOCAL_ROOT_SIGNATURE@@Vallocator_forge@eastl@@@eastl@@QEAA@_KAEBVallocator_forge@1@@Z
   60F2F0 ??0?$vector@UD3D12_RAYTRACING_INSTANCE_DESC@@Vallocator_forge@eastl@@@eastl@@QEAA@_KAEBVallocator_forge@1@@Z
   60F2F0 ??0?$vector@UD3D12_STATE_SUBOBJECT@@Vallocator_forge@eastl@@@eastl@@QEAA@XZ
   60F2F0 ??0?$vector@UD3D12_STATE_SUBOBJECT@@Vallocator_forge@eastl@@@eastl@@QEAA@_KAEBVallocator_forge@1@@Z
   60F2F0 ??0?$vector@UD3D12_SUBOBJECT_TO_EXPORTS_ASSOCIATION@@Vallocator_forge@eastl@@@eastl@@QEAA@_KAEBVallocator_forge@1@@Z
   60F2F0 ??1?$VectorBase@PEAUD3D12_EXPORT_DESC@@Vallocator_forge@eastl@@@eastl@@QEAA@XZ
   60F2F0 ??1?$VectorBase@PEA_WVallocator_forge@eastl@@@eastl@@QEAA@XZ
   60F2F0 ??1?$VectorBase@PEB_WVallocator_forge@eastl@@@eastl@@QEAA@XZ
   60F2F0 ??1?$VectorBase@U?$pair@IPEAUD3D12_SUBOBJECT_TO_EXPORTS_ASSOCIATION@@@eastl@@Vallocator_forge@2@@eastl@@QEAA@XZ
   60F2F0 ??1?$VectorBase@UD3D12_DXIL_LIBRARY_DESC@@Vallocator_forge@eastl@@@eastl@@QEAA@XZ
   60F2F0 ??1?$VectorBase@UD3D12_HIT_GROUP_DESC@@Vallocator_forge@eastl@@@eastl@@QEAA@XZ
   60F2F0 ??1?$VectorBase@UD3D12_LOCAL_ROOT_SIGNATURE@@Vallocator_forge@eastl@@@eastl@@QEAA@XZ
   60F2F0 ??1?$VectorBase@UD3D12_RAYTRACING_INSTANCE_DESC@@Vallocator_forge@eastl@@@eastl@@QEAA@XZ
   60F2F0 ??1?$VectorBase@UD3D12_STATE_SUBOBJECT@@Vallocator_forge@eastl@@@eastl@@QEAA@XZ
   60F2F0 ??1?$VectorBase@UD3D12_SUBOBJECT_TO_EXPORTS_ASSOCIATION@@Vallocator_forge@eastl@@@eastl@@QEAA@XZ
   60F2F0 ??1?$vector@PEAUD3D12_EXPORT_DESC@@Vallocator_forge@eastl@@@eastl@@QEAA@XZ
   60F2F0 ??1?$vector@PEA_WVallocator_forge@eastl@@@eastl@@QEAA@XZ
   60F2F0 ??1?$vector@PEB_WVallocator_forge@eastl@@@eastl@@QEAA@XZ
   60F2F0 ??1?$vector@U?$pair@IPEAUD3D12_SUBOBJECT_TO_EXPORTS_ASSOCIATION@@@eastl@@Vallocator_forge@2@@eastl@@QEAA@XZ
   60F2F0 ??1?$vector@UD3D12_DXIL_LIBRARY_DESC@@Vallocator_forge@eastl@@@eastl@@QEAA@XZ
   60F2F0 ??1?$vector@UD3D12_HIT_GROUP_DESC@@Vallocator_forge@eastl@@@eastl@@QEAA@XZ
   60F2F0 ??1?$vector@UD3D12_LOCAL_ROOT_SIGNATURE@@Vallocator_forge@eastl@@@eastl@@QEAA@XZ
   60F2F0 ??1?$vector@UD3D12_RAYTRACING_INSTANCE_DESC@@Vallocator_forge@eastl@@@eastl@@QEAA@XZ
   60F2F0 ??1?$vector@UD3D12_STATE_SUBOBJECT@@Vallocator_forge@eastl@@@eastl@@QEAA@XZ
   60F2F0 ??1?$vector@UD3D12_SUBOBJECT_TO_EXPORTS_ASSOCIATION@@Vallocator_forge@eastl@@@eastl@@QEAA@XZ
   60F2F0 ??A?$vector@PEAUD3D12_EXPORT_DESC@@Vallocator_forge@eastl@@@eastl@@QEAAAEAPEAUD3D12_EXPORT_DESC@@_K@Z
   60F2F0 ??A?$vector@PEA_WVallocator_forge@eastl@@@eastl@@QEAAAEAPEA_W_K@Z
   60F2F0 ??A?$vector@PEB_WVallocator_forge@eastl@@@eastl@@QEAAAEAPEB_W_K@Z
   60F2F0 ??A?$vector@U?$pair@IPEAUD3D12_SUBOBJECT_TO_EXPORTS_ASSOCIATION@@@eastl@@Vallocator_forge@2@@eastl@@QEAAAEAU?$pair@IPEAUD3D12_SUBOBJECT_TO_EXPORTS_ASSOCIATION@@@1@_K@Z
   60F2F0 ??A?$vector@UD3D12_DXIL_LIBRARY_DESC@@Vallocator_forge@eastl@@@eastl@@QEAAAEAUD3D12_DXIL_LIBRARY_DESC@@_K@Z
   60F2F0 ??A?$vector@UD3D12_HIT_GROUP_DESC@@Vallocator_forge@eastl@@@eastl@@QEAAAEAUD3D12_HIT_GROUP_DESC@@_K@Z
   60F2F0 ??A?$vector@UD3D12_LOCAL_ROOT_SIGNATURE@@Vallocator_forge@eastl@@@eastl@@QEAAAEAUD3D12_LOCAL_ROOT_SIGNATURE@@_K@Z
   60F2F0 ??A?$vector@UD3D12_RAYTRACING_INSTANCE_DESC@@Vallocator_forge@eastl@@@eastl@@QEAAAEAUD3D12_RAYTRACING_INSTANCE_DESC@@_K@Z
   60F2F0 ??A?$vector@UD3D12_STATE_SUBOBJECT@@Vallocator_forge@eastl@@@eastl@@QEAAAEAUD3D12_STATE_SUBOBJECT@@_K@Z
   60F2F0 ??A?$vector@UD3D12_SUBOBJECT_TO_EXPORTS_ASSOCIATION@@Vallocator_forge@eastl@@@eastl@@QEAAAEAUD3D12_SUBOBJECT_TO_EXPORTS_ASSOCIATION@@_K@Z
   60F2F0 ??D?$generic_iterator@PEAU?$pair@IPEAUD3D12_SUBOBJECT_TO_EXPORTS_ASSOCIATION@@@eastl@@X@eastl@@QEBAAEAU?$pair@IPEAUD3D12_SUBOBJECT_TO_EXPORTS_ASSOCIATION@@@1@XZ
   60F2F0 ??E?$generic_iterator@PEAU?$pair@IPEAUD3D12_SUBOBJECT_TO_EXPORTS_ASSOCIATION@@@eastl@@X@eastl@@QEAAAEAV01@XZ
   60F2F0 ??_5@YAAEAW4D3D12_RAYTRACING_ACCELERATION_STRUCTURE_BUILD_FLAGS@@AEAW40@W40@@Z
   60F2F0 ??_5@YAAEAW4D3D12_RAYTRACING_GEOMETRY_FLAGS@@AEAW40@W40@@Z
   60F2F0 ??_5@YAAEAW4D3D12_RAYTRACING_INSTANCE_FLAGS@@AEAW40@W40@@Z
   60F2F0 ??_C@_0BB@CJOCOGPK@removeRaytracing@
   60F2F0 ??_C@_0BG@PPPPFOCK@addRaytracingPipeline@
   60F2F0 ??_C@_0BJ@LHHIGMAB@addRaytracingShaderTable@
   60F2F0 ??_C@_0BJ@NNODLDBA@addAccelerationStructure@
   60F2F0 ??_C@_0BM@CFOIDLEG@removeRaytracingShaderTable@
   60F2F0 ??_C@_0BM@EPHDOEFH@removeAccelerationStructure@
   60F2F0 ??_C@_0BM@LNJCHOO@?$CFs?3?5FAILED?5with?5HRESULT?3?5?$CFu@
   60F2F0 ??_C@_0EH@LPAAMCKC@C?3?2src?2The?9Forge?2Common_3?2Rende@
   60F2F0 ??_C@_0FO@OCKKPNJJ@pRaytracing?9?$DOpDxrDevice?9?$DOCreate@
   60F2F0 ??_C@_0GB@PFDPPDKJ@createBottomAS?$CIpRaytracing?0?5pDe@
   60F2F0 ??_C@_0KN@FIEEMJOJ@createTopAS?$CIpRaytracing?0?5pDesc?0@
   60F2F0 ??_C@_0P@DNPIFPAE@RTShadersTable@
   60F2F0 ??_C@_0P@NHPHEMOM@initRaytracing@
   60F2F0 ??_C@_0P@OKKLAHFO@createBottomAS@
   60F2F0 ?CalculateMaxShaderRecordSize@@YAXPEBQEBDIAEA_K@Z
   60F2F0 ?DoAllocate@?$VectorBase@PEAUD3D12_EXPORT_DESC@@Vallocator_forge@eastl@@@eastl@@IEAAPEAPEAUD3D12_EXPORT_DESC@@_K@Z
   60F2F0 ?DoAllocate@?$VectorBase@PEA_WVallocator_forge@eastl@@@eastl@@IEAAPEAPEA_W_K@Z
   60F2F0 ?DoAllocate@?$VectorBase@PEB_WVallocator_forge@eastl@@@eastl@@IEAAPEAPEB_W_K@Z
   60F2F0 ?DoAllocate@?$VectorBase@U?$pair@IPEAUD3D12_SUBOBJECT_TO_EXPORTS_ASSOCIATION@@@eastl@@Vallocator_forge@2@@eastl@@IEAAPEAU?$pair@IPEAUD3D12_SUBOBJECT_TO_EXPORTS_ASSOCIATION@@@2@_K@Z
   60F2F0 ?DoAllocate@?$VectorBase@UD3D12_DXIL_LIBRARY_DESC@@Vallocator_forge@eastl@@@eastl@@IEAAPEAUD3D12_DXIL_LIBRARY_DESC@@_K@Z
   60F2F0 ?DoAllocate@?$VectorBase@UD3D12_HIT_GROUP_DESC@@Vallocator_forge@eastl@@@eastl@@IEAAPEAUD3D12_HIT_GROUP_DESC@@_K@Z
   60F2F0 ?DoAllocate@?$VectorBase@UD3D12_LOCAL_ROOT_SIGNATURE@@Vallocator_forge@eastl@@@eastl@@IEAAPEAUD3D12_LOCAL_ROOT_SIGNATURE@@_K@Z
   60F2F0 ?DoAllocate@?$VectorBase@UD3D12_RAYTRACING_INSTANCE_DESC@@Vallocator_forge@eastl@@@eastl@@IEAAPEAUD3D12_RAYTRACING_INSTANCE_DESC@@_K@Z
   60F2F0 ?DoAllocate@?$VectorBase@UD3D12_STATE_SUBOBJECT@@Vallocator_forge@eastl@@@eastl@@IEAAPEAUD3D12_STATE_SUBOBJECT@@_K@Z
   60F2F0 ?DoAllocate@?$VectorBase@UD3D12_SUBOBJECT_TO_EXPORTS_ASSOCIATION@@Vallocator_forge@eastl@@@eastl@@IEAAPEAUD3D12_SUBOBJECT_TO_EXPORTS_ASSOCIATION@@_K@Z
   60F2F0 ?DoFree@?$VectorBase@PEAUD3D12_EXPORT_DESC@@Vallocator_forge@eastl@@@eastl@@IEAAXPEAPEAUD3D12_EXPORT_DESC@@_K@Z
   60F2F0 ?DoFree@?$VectorBase@U?$pair@IPEAUD3D12_SUBOBJECT_TO_EXPORTS_ASSOCIATION@@@eastl@@Vallocator_forge@2@@eastl@@IEAAXPEAU?$pair@IPEAUD3D12_SUBOBJECT_TO_EXPORTS_ASSOCIATION@@@2@_K@Z
   60F2F0 ?DoFree@?$VectorBase@UD3D12_DXIL_LIBRARY_DESC@@Vallocator_forge@eastl@@@eastl@@IEAAXPEAUD3D12_DXIL_LIBRARY_DESC@@_K@Z
   60F2F0 ?DoFree@?$VectorBase@UD3D12_STATE_SUBOBJECT@@Vallocator_forge@eastl@@@eastl@@IEAAXPEAUD3D12_STATE_SUBOBJECT@@_K@Z
   60F2F0 ?DoGrow@?$vector@UD3D12_STATE_SUBOBJECT@@Vallocator_forge@eastl@@@eastl@@IEAAX_K@Z
   60F2F0 ?DoInsertValuesEnd@?$vector@UD3D12_STATE_SUBOBJECT@@Vallocator_forge@eastl@@@eastl@@IEAAX_K@Z
   60F2F0 ?FillShaderIdentifiers@@YAXPEBQEBDIPEAUID3D12StateObjectProperties@@AEA_KAEAIPEAURaytracingShaderTable@@PEAURaytracing@@@Z
   60F2F0 ?GetNewCapacity@?$VectorBase@PEAUD3D12_EXPORT_DESC@@Vallocator_forge@eastl@@@eastl@@IEAA_K_K@Z
   60F2F0 ?GetNewCapacity@?$VectorBase@U?$pair@IPEAUD3D12_SUBOBJECT_TO_EXPORTS_ASSOCIATION@@@eastl@@Vallocator_forge@2@@eastl@@IEAA_K_K@Z
   60F2F0 ?GetNewCapacity@?$VectorBase@UD3D12_DXIL_LIBRARY_DESC@@Vallocator_forge@eastl@@@eastl@@IEAA_K_K@Z
   60F2F0 ?GetNewCapacity@?$VectorBase@UD3D12_STATE_SUBOBJECT@@Vallocator_forge@eastl@@@eastl@@IEAA_K_K@Z
   60F2F0 ?addAccelerationStructure@@YAXPEAURaytracing@@PEBUAccelerationStructureDescTop@@PEAPEAUAccelerationStructure@@@Z
   60F2F0 ?addRaytracingPipeline@@YAXPEBURaytracingPipelineDesc@@PEAPEAUPipeline@@@Z
   60F2F0 ?addRaytracingShaderTable@@YAXPEAURaytracing@@PEBURaytracingShaderTableDesc@@PEAPEAURaytracingShaderTable@@@Z
   60F2F0 ?back@?$vector@PEAUD3D12_EXPORT_DESC@@Vallocator_forge@eastl@@@eastl@@QEAAAEAPEAUD3D12_EXPORT_DESC@@XZ
   60F2F0 ?back@?$vector@UD3D12_DXIL_LIBRARY_DESC@@Vallocator_forge@eastl@@@eastl@@QEAAAEAUD3D12_DXIL_LIBRARY_DESC@@XZ
   60F2F0 ?back@?$vector@UD3D12_STATE_SUBOBJECT@@Vallocator_forge@eastl@@@eastl@@QEAAAEAUD3D12_STATE_SUBOBJECT@@XZ
   60F2F0 ?base@?$generic_iterator@PEAPEAUD3D12_EXPORT_DESC@@X@eastl@@QEBAAEBQEAPEAUD3D12_EXPORT_DESC@@XZ
   60F2F0 ?base@?$generic_iterator@PEAU?$pair@IPEAUD3D12_SUBOBJECT_TO_EXPORTS_ASSOCIATION@@@eastl@@X@eastl@@QEBAAEBQEAU?$pair@IPEAUD3D12_SUBOBJECT_TO_EXPORTS_ASSOCIATION@@@2@XZ
   60F2F0 ?base@?$generic_iterator@PEAUD3D12_DXIL_LIBRARY_DESC@@X@eastl@@QEBAAEBQEAUD3D12_DXIL_LIBRARY_DESC@@XZ
   60F2F0 ?base@?$generic_iterator@PEAUD3D12_STATE_SUBOBJECT@@X@eastl@@QEBAAEBQEAUD3D12_STATE_SUBOBJECT@@XZ
   60F2F0 ?cmdBindRaytracingPipeline@@YAXPEAUCmd@@PEAUPipeline@@@Z
   60F2F0 ?cmdBuildAccelerationStructure@@YAXPEAUCmd@@PEAURaytracing@@PEAURaytracingBuildASDesc@@@Z
   60F2F0 ?cmdDispatchRays@@YAXPEAUCmd@@PEAURaytracing@@PEBURaytracingDispatchDesc@@@Z
   60F2F0 ?createBottomAS@@YAJPEAURaytracing@@PEBUAccelerationStructureDescTop@@PEAIPEAUAccelerationStructureBottom@@@Z
   60F2F0 ?createTopAS@@YAJPEAURaytracing@@PEBUAccelerationStructureDescTop@@PEBUAccelerationStructureBottom@@PEAIPEAPEAUBuffer@@4@Z
   60F2F0 ?data@?$vector@UD3D12_RAYTRACING_INSTANCE_DESC@@Vallocator_forge@eastl@@@eastl@@QEAAPEAUD3D12_RAYTRACING_INSTANCE_DESC@@XZ
   60F2F0 ?data@?$vector@UD3D12_STATE_SUBOBJECT@@Vallocator_forge@eastl@@@eastl@@QEAAPEAUD3D12_STATE_SUBOBJECT@@XZ
   60F2F0 ?fillRaytracingDescriptorHandle@@YAXPEAUAccelerationStructure@@PEAUD3D12_CPU_DESCRIPTOR_HANDLE@@@Z
   60F2F0 ?first@?$compressed_pair@PEAPEAUD3D12_EXPORT_DESC@@Vallocator_forge@eastl@@@eastl@@QEAAAEAPEAPEAUD3D12_EXPORT_DESC@@XZ
   60F2F0 ?first@?$compressed_pair@PEAPEA_WVallocator_forge@eastl@@@eastl@@QEAAAEAPEAPEA_WXZ
   60F2F0 ?first@?$compressed_pair@PEAPEB_WVallocator_forge@eastl@@@eastl@@QEAAAEAPEAPEB_WXZ
   60F2F0 ?first@?$compressed_pair@PEAU?$pair@IPEAUD3D12_SUBOBJECT_TO_EXPORTS_ASSOCIATION@@@eastl@@Vallocator_forge@2@@eastl@@QEAAAEAPEAU?$pair@IPEAUD3D12_SUBOBJECT_TO_EXPORTS_ASSOCIATION@@@2@XZ
   60F2F0 ?first@?$compressed_pair@PEAUD3D12_DXIL_LIBRARY_DESC@@Vallocator_forge@eastl@@@eastl@@QEAAAEAPEAUD3D12_DXIL_LIBRARY_DESC@@XZ
   60F2F0 ?first@?$compressed_pair@PEAUD3D12_HIT_GROUP_DESC@@Vallocator_forge@eastl@@@eastl@@QEAAAEAPEAUD3D12_HIT_GROUP_DESC@@XZ
   60F2F0 ?first@?$compressed_pair@PEAUD3D12_LOCAL_ROOT_SIGNATURE@@Vallocator_forge@eastl@@@eastl@@QEAAAEAPEAUD3D12_LOCAL_ROOT_SIGNATURE@@XZ
   60F2F0 ?first@?$compressed_pair@PEAUD3D12_RAYTRACING_INSTANCE_DESC@@Vallocator_forge@eastl@@@eastl@@QEAAAEAPEAUD3D12_RAYTRACING_INSTANCE_DESC@@XZ
   60F2F0 ?first@?$compressed_pair@PEAUD3D12_STATE_SUBOBJECT@@Vallocator_forge@eastl@@@eastl@@QEAAAEAPEAUD3D12_STATE_SUBOBJECT@@XZ
   60F2F0 ?first@?$compressed_pair@PEAUD3D12_SUBOBJECT_TO_EXPORTS_ASSOCIATION@@Vallocator_forge@eastl@@@eastl@@QEAAAEAPEAUD3D12_SUBOBJECT_TO_EXPORTS_ASSOCIATION@@XZ
   60F2F0 ?first@?$compressed_pair_imp@PEAPEAUD3D12_EXPORT_DESC@@Vallocator_forge@eastl@@$01@eastl@@QEAAAEAPEAPEAUD3D12_EXPORT_DESC@@XZ
   60F2F0 ?first@?$compressed_pair_imp@PEAPEA_WVallocator_forge@eastl@@$01@eastl@@QEAAAEAPEAPEA_WXZ
   60F2F0 ?first@?$compressed_pair_imp@PEAPEB_WVallocator_forge@eastl@@$01@eastl@@QEAAAEAPEAPEB_WXZ
   60F2F0 ?first@?$compressed_pair_imp@PEAU?$pair@IPEAUD3D12_SUBOBJECT_TO_EXPORTS_ASSOCIATION@@@eastl@@Vallocator_forge@2@$01@eastl@@QEAAAEAPEAU?$pair@IPEAUD3D12_SUBOBJECT_TO_EXPORTS_ASSOCIATION@@@2@XZ
   60F2F0 ?first@?$compressed_pair_imp@PEAUD3D12_DXIL_LIBRARY_DESC@@Vallocator_forge@eastl@@$01@eastl@@QEAAAEAPEAUD3D12_DXIL_LIBRARY_DESC@@XZ
   60F2F0 ?first@?$compressed_pair_imp@PEAUD3D12_HIT_GROUP_DESC@@Vallocator_forge@eastl@@$01@eastl@@QEAAAEAPEAUD3D12_HIT_GROUP_DESC@@XZ
   60F2F0 ?first@?$compressed_pair_imp@PEAUD3D12_LOCAL_ROOT_SIGNATURE@@Vallocator_forge@eastl@@$01@eastl@@QEAAAEAPEAUD3D12_LOCAL_ROOT_SIGNATURE@@XZ
   60F2F0 ?first@?$compressed_pair_imp@PEAUD3D12_RAYTRACING_INSTANCE_DESC@@Vallocator_forge@eastl@@$01@eastl@@QEAAAEAPEAUD3D12_RAYTRACING_INSTANCE_DESC@@XZ
   60F2F0 ?first@?$compressed_pair_imp@PEAUD3D12_STATE_SUBOBJECT@@Vallocator_forge@eastl@@$01@eastl@@QEAAAEAPEAUD3D12_STATE_SUBOBJECT@@XZ
   60F2F0 ?first@?$compressed_pair_imp@PEAUD3D12_SUBOBJECT_TO_EXPORTS_ASSOCIATION@@Vallocator_forge@eastl@@$01@eastl@@QEAAAEAPEAUD3D12_SUBOBJECT_TO_EXPORTS_ASSOCIATION@@XZ
   60F2F0 ?get_base@?$is_iterator_wrapper_helper@PEAPEAUD3D12_EXPORT_DESC@@$0A@@eastl@@SAPEAPEAUD3D12_EXPORT_DESC@@PEAPEAU3@@Z
   60F2F0 ?get_base@?$is_iterator_wrapper_helper@PEAUD3D12_DXIL_LIBRARY_DESC@@$0A@@eastl@@SAPEAUD3D12_DXIL_LIBRARY_DESC@@PEAU3@@Z
   60F2F0 ?get_base@?$is_iterator_wrapper_helper@PEAUD3D12_STATE_SUBOBJECT@@$0A@@eastl@@SAPEAUD3D12_STATE_SUBOBJECT@@PEAU3@@Z
   60F2F0 ?get_base@?$is_iterator_wrapper_helper@V?$generic_iterator@PEAPEAUD3D12_EXPORT_DESC@@X@eastl@@$00@eastl@@SAPEAPEAUD3D12_EXPORT_DESC@@V?$generic_iterator@PEAPEAUD3D12_EXPORT_DESC@@X@2@@Z
   60F2F0 ?get_base@?$is_iterator_wrapper_helper@V?$generic_iterator@PEAUD3D12_DXIL_LIBRARY_DESC@@X@eastl@@$00@eastl@@SAPEAUD3D12_DXIL_LIBRARY_DESC@@V?$generic_iterator@PEAUD3D12_DXIL_LIBRARY_DESC@@X@2@@Z
   60F2F0 ?get_base@?$is_iterator_wrapper_helper@V?$generic_iterator@PEAUD3D12_STATE_SUBOBJECT@@X@eastl@@$00@eastl@@SAPEAUD3D12_STATE_SUBOBJECT@@V?$generic_iterator@PEAUD3D12_STATE_SUBOBJECT@@X@2@@Z
   60F2F0 ?initRaytracing@@YA_NPEAURenderer@@PEAPEAURaytracing@@@Z
   60F2F0 ?internalAllocator@?$VectorBase@PEAUD3D12_EXPORT_DESC@@Vallocator_forge@eastl@@@eastl@@IEAAAEAVallocator_forge@2@XZ
   60F2F0 ?internalAllocator@?$VectorBase@PEA_WVallocator_forge@eastl@@@eastl@@IEAAAEAVallocator_forge@2@XZ
   60F2F0 ?internalAllocator@?$VectorBase@PEB_WVallocator_forge@eastl@@@eastl@@IEAAAEAVallocator_forge@2@XZ
   60F2F0 ?internalAllocator@?$VectorBase@U?$pair@IPEAUD3D12_SUBOBJECT_TO_EXPORTS_ASSOCIATION@@@eastl@@Vallocator_forge@2@@eastl@@IEAAAEAVallocator_forge@2@XZ
   60F2F0 ?internalAllocator@?$VectorBase@UD3D12_DXIL_LIBRARY_DESC@@Vallocator_forge@eastl@@@eastl@@IEAAAEAVallocator_forge@2@XZ
   60F2F0 ?internalAllocator@?$VectorBase@UD3D12_HIT_GROUP_DESC@@Vallocator_forge@eastl@@@eastl@@IEAAAEAVallocator_forge@2@XZ
   60F2F0 ?internalAllocator@?$VectorBase@UD3D12_LOCAL_ROOT_SIGNATURE@@Vallocator_forge@eastl@@@eastl@@IEAAAEAVallocator_forge@2@XZ
   60F2F0 ?internalAllocator@?$VectorBase@UD3D12_RAYTRACING_INSTANCE_DESC@@Vallocator_forge@eastl@@@eastl@@IEAAAEAVallocator_forge@2@XZ
   60F2F0 ?internalAllocator@?$VectorBase@UD3D12_STATE_SUBOBJECT@@Vallocator_forge@eastl@@@eastl@@IEAAAEAVallocator_forge@2@XZ
   60F2F0 ?internalAllocator@?$VectorBase@UD3D12_SUBOBJECT_TO_EXPORTS_ASSOCIATION@@Vallocator_forge@eastl@@@eastl@@IEAAAEAVallocator_forge@2@XZ
   60F2F0 ?internalCapacityPtr@?$VectorBase@PEAUD3D12_EXPORT_DESC@@Vallocator_forge@eastl@@@eastl@@IEAAAEAPEAPEAUD3D12_EXPORT_DESC@@XZ
   60F2F0 ?internalCapacityPtr@?$VectorBase@PEA_WVallocator_forge@eastl@@@eastl@@IEAAAEAPEAPEA_WXZ
   60F2F0 ?internalCapacityPtr@?$VectorBase@PEB_WVallocator_forge@eastl@@@eastl@@IEAAAEAPEAPEB_WXZ
   60F2F0 ?internalCapacityPtr@?$VectorBase@U?$pair@IPEAUD3D12_SUBOBJECT_TO_EXPORTS_ASSOCIATION@@@eastl@@Vallocator_forge@2@@eastl@@IEAAAEAPEAU?$pair@IPEAUD3D12_SUBOBJECT_TO_EXPORTS_ASSOCIATION@@@2@XZ
   60F2F0 ?internalCapacityPtr@?$VectorBase@UD3D12_DXIL_LIBRARY_DESC@@Vallocator_forge@eastl@@@eastl@@IEAAAEAPEAUD3D12_DXIL_LIBRARY_DESC@@XZ
   60F2F0 ?internalCapacityPtr@?$VectorBase@UD3D12_HIT_GROUP_DESC@@Vallocator_forge@eastl@@@eastl@@IEAAAEAPEAUD3D12_HIT_GROUP_DESC@@XZ
   60F2F0 ?internalCapacityPtr@?$VectorBase@UD3D12_LOCAL_ROOT_SIGNATURE@@Vallocator_forge@eastl@@@eastl@@IEAAAEAPEAUD3D12_LOCAL_ROOT_SIGNATURE@@XZ
   60F2F0 ?internalCapacityPtr@?$VectorBase@UD3D12_RAYTRACING_INSTANCE_DESC@@Vallocator_forge@eastl@@@eastl@@IEAAAEAPEAUD3D12_RAYTRACING_INSTANCE_DESC@@XZ
   60F2F0 ?internalCapacityPtr@?$VectorBase@UD3D12_STATE_SUBOBJECT@@Vallocator_forge@eastl@@@eastl@@IEAAAEAPEAUD3D12_STATE_SUBOBJECT@@XZ
   60F2F0 ?internalCapacityPtr@?$VectorBase@UD3D12_SUBOBJECT_TO_EXPORTS_ASSOCIATION@@Vallocator_forge@eastl@@@eastl@@IEAAAEAPEAUD3D12_SUBOBJECT_TO_EXPORTS_ASSOCIATION@@XZ
   60F2F0 ?isRaytracingSupported@@YA_NPEAURenderer@@@Z
   60F2F0 ?push_back@?$vector@U?$pair@IPEAUD3D12_SUBOBJECT_TO_EXPORTS_ASSOCIATION@@@eastl@@Vallocator_forge@2@@eastl@@QEAAX$$QEAU?$pair@IPEAUD3D12_SUBOBJECT_TO_EXPORTS_ASSOCIATION@@@2@@Z
   60F2F0 ?push_back@?$vector@UD3D12_STATE_SUBOBJECT@@Vallocator_forge@eastl@@@eastl@@QEAAX$$QEAUD3D12_STATE_SUBOBJECT@@@Z
   60F2F0 ?removeAccelerationStructure@@YAXPEAURaytracing@@PEAUAccelerationStructure@@@Z
   60F2F0 ?removeRaytracing@@YAXPEAURenderer@@PEAURaytracing@@@Z
   60F2F0 ?removeRaytracingShaderTable@@YAXPEAURaytracing@@PEAURaytracingShaderTable@@@Z
   60F2F0 ?reserve@?$vector@UD3D12_STATE_SUBOBJECT@@Vallocator_forge@eastl@@@eastl@@QEAAX_K@Z
   60F2F0 ?resize@?$vector@UD3D12_STATE_SUBOBJECT@@Vallocator_forge@eastl@@@eastl@@QEAAX_K@Z
   60F2F0 ?second@?$compressed_pair@PEAPEAUD3D12_EXPORT_DESC@@Vallocator_forge@eastl@@@eastl@@QEAAAEAVallocator_forge@2@XZ
   60F2F0 ?second@?$compressed_pair@PEAPEA_WVallocator_forge@eastl@@@eastl@@QEAAAEAVallocator_forge@2@XZ
   60F2F0 ?second@?$compressed_pair@PEAPEB_WVallocator_forge@eastl@@@eastl@@QEAAAEAVallocator_forge@2@XZ
   60F2F0 ?second@?$compressed_pair@PEAU?$pair@IPEAUD3D12_SUBOBJECT_TO_EXPORTS_ASSOCIATION@@@eastl@@Vallocator_forge@2@@eastl@@QEAAAEAVallocator_forge@2@XZ
   60F2F0 ?second@?$compressed_pair@PEAUD3D12_DXIL_LIBRARY_DESC@@Vallocator_forge@eastl@@@eastl@@QEAAAEAVallocator_forge@2@XZ
   60F2F0 ?second@?$compressed_pair@PEAUD3D12_HIT_GROUP_DESC@@Vallocator_forge@eastl@@@eastl@@QEAAAEAVallocator_forge@2@XZ
   60F2F0 ?second@?$compressed_pair@PEAUD3D12_LOCAL_ROOT_SIGNATURE@@Vallocator_forge@eastl@@@eastl@@QEAAAEAVallocator_forge@2@XZ
   60F2F0 ?second@?$compressed_pair@PEAUD3D12_RAYTRACING_INSTANCE_DESC@@Vallocator_forge@eastl@@@eastl@@QEAAAEAVallocator_forge@2@XZ
   60F2F0 ?second@?$compressed_pair@PEAUD3D12_STATE_SUBOBJECT@@Vallocator_forge@eastl@@@eastl@@QEAAAEAVallocator_forge@2@XZ
   60F2F0 ?second@?$compressed_pair@PEAUD3D12_SUBOBJECT_TO_EXPORTS_ASSOCIATION@@Vallocator_forge@eastl@@@eastl@@QEAAAEAVallocator_forge@2@XZ
   60F2F0 ?second@?$compressed_pair_imp@PEAPEAUD3D12_EXPORT_DESC@@Vallocator_forge@eastl@@$01@eastl@@QEAAAEAVallocator_forge@2@XZ
   60F2F0 ?second@?$compressed_pair_imp@PEAPEA_WVallocator_forge@eastl@@$01@eastl@@QEAAAEAVallocator_forge@2@XZ
   60F2F0 ?second@?$compressed_pair_imp@PEAPEB_WVallocator_forge@eastl@@$01@eastl@@QEAAAEAVallocator_forge@2@XZ
   60F2F0 ?second@?$compressed_pair_imp@PEAU?$pair@IPEAUD3D12_SUBOBJECT_TO_EXPORTS_ASSOCIATION@@@eastl@@Vallocator_forge@2@$01@eastl@@QEAAAEAVallocator_forge@2@XZ
   60F2F0 ?second@?$compressed_pair_imp@PEAUD3D12_DXIL_LIBRARY_DESC@@Vallocator_forge@eastl@@$01@eastl@@QEAAAEAVallocator_forge@2@XZ
   60F2F0 ?second@?$compressed_pair_imp@PEAUD3D12_HIT_GROUP_DESC@@Vallocator_forge@eastl@@$01@eastl@@QEAAAEAVallocator_forge@2@XZ
   60F2F0 ?second@?$compressed_pair_imp@PEAUD3D12_LOCAL_ROOT_SIGNATURE@@Vallocator_forge@eastl@@$01@eastl@@QEAAAEAVallocator_forge@2@XZ
   60F2F0 ?second@?$compressed_pair_imp@PEAUD3D12_RAYTRACING_INSTANCE_DESC@@Vallocator_forge@eastl@@$01@eastl@@QEAAAEAVallocator_forge@2@XZ
   60F2F0 ?second@?$compressed_pair_imp@PEAUD3D12_STATE_SUBOBJECT@@Vallocator_forge@eastl@@$01@eastl@@QEAAAEAVallocator_forge@2@XZ
   60F2F0 ?second@?$compressed_pair_imp@PEAUD3D12_SUBOBJECT_TO_EXPORTS_ASSOCIATION@@Vallocator_forge@eastl@@$01@eastl@@QEAAAEAVallocator_forge@2@XZ
   60F2F0 ?size@?$vector@PEAUD3D12_EXPORT_DESC@@Vallocator_forge@eastl@@@eastl@@QEBA_KXZ
   60F2F0 ?size@?$vector@PEA_WVallocator_forge@eastl@@@eastl@@QEBA_KXZ
   60F2F0 ?size@?$vector@U?$pair@IPEAUD3D12_SUBOBJECT_TO_EXPORTS_ASSOCIATION@@@eastl@@Vallocator_forge@2@@eastl@@QEBA_KXZ
   60F2F0 ?size@?$vector@UD3D12_DXIL_LIBRARY_DESC@@Vallocator_forge@eastl@@@eastl@@QEBA_KXZ
   60F2F0 ?size@?$vector@UD3D12_RAYTRACING_INSTANCE_DESC@@Vallocator_forge@eastl@@@eastl@@QEBA_KXZ
   60F2F0 ?size@?$vector@UD3D12_STATE_SUBOBJECT@@Vallocator_forge@eastl@@@eastl@@QEBA_KXZ
   60F2F0 ?util_build_acceleration_structure@@YAXPEAUID3D12GraphicsCommandList4@@PEAUID3D12Resource@@1W4D3D12_RAYTRACING_ACCELERATION_STRUCTURE_TYPE@@W4D3D12_RAYTRACING_ACCELERATION_STRUCTURE_BUILD_FLAGS@@PEBUD3D12_RAYTRACING_GEOMETRY_DESC@@_KI@Z
   60F2F0 ?util_to_dx_acceleration_structure_build_flags@@YA?AW4D3D12_RAYTRACING_ACCELERATION_STRUCTURE_BUILD_FLAGS@@W4AccelerationStructureBuildFlags@@@Z
   60F2F0 ?util_to_dx_geometry_flags@@YA?AW4D3D12_RAYTRACING_GEOMETRY_FLAGS@@W4AccelerationStructureGeometryFlags@@@Z
   60F2F0 ?util_to_dx_instance_flags@@YA?AW4D3D12_RAYTRACING_INSTANCE_FLAGS@@W4AccelerationStructureInstanceFlags@@@Z
   60F2F0 _GUID_47016943_fca8_4594_93ea_af258b55346d
   60F2F0 _GUID_8754318e_d3a9_4541_98cf_645b50dc4874
   60F2F0 _GUID_8b4f173b_2fea_4b80_8f58_4307191ab95d
   60F2F0 _GUID_de5fa827_9bf9_4f26_89ff_d7f56fde3860
   80CA1E ??$IID_PPV_ARGS_Helper@UID3D12CommandQueue@@@@YAPEAPEAXPEAPEAUID3D12CommandQueue@@@Z
   80CA1E ??$IID_PPV_ARGS_Helper@UID3D12Device@@@@YAPEAPEAXPEAPEAUID3D12Device@@@Z
   80CA1E ??$IID_PPV_ARGS_Helper@UID3D12GraphicsCommandList@@@@YAPEAPEAXPEAPEAUID3D12GraphicsCommandList@@@Z
   80CA1E ??$IID_PPV_ARGS_Helper@UID3D12PipelineState@@@@YAPEAPEAXPEAPEAUID3D12PipelineState@@@Z
   80CA1E ??$sprintf_s@$0EA@@@YAHAEAY0EA@DPEBDZZ
   80CA1E ??$wcstombs_s@$0EA@@@YAHPEA_KAEAY0EA@DPEB_W_K@Z
   80CA1E ??_C@_04NIJJJBKO@?$CF?$CDx?$AA@
   80CA1E ??_C@_1BE@CAOIJAJN@?$AAd?$AA3?$AAd?$AA1?$AA2?$AA?4?$AAd?$AAl?$AAl@
   80CA1E ?hook_acquire_next_image@@YAJPEAUID3D12Device@@PEAUSwapChain@@@Z
   80CA1E ?hook_create_command_queue@@YAJPEAUID3D12Device@@PEBUD3D12_COMMAND_QUEUE_DESC@@PEAPEAUID3D12CommandQueue@@@Z
   80CA1E ?hook_create_compute_pipeline_state@@YAJPEAUID3D12Device@@PEBUD3D12_COMPUTE_PIPELINE_STATE_DESC@@PEAXIPEAPEAUID3D12PipelineState@@@Z
   80CA1E ?hook_create_copy_cmd@@YAJPEAUID3D12Device@@IPEAUID3D12CommandAllocator@@PEAUCmd@@@Z
   80CA1E ?hook_create_device@@YAJPEAXW4D3D_FEATURE_LEVEL@@PEAPEAUID3D12Device@@@Z
   80CA1E ?hook_create_graphics_pipeline_state@@YAJPEAUID3D12Device@@PEBUD3D12_GRAPHICS_PIPELINE_STATE_DESC@@PEAXIPEAPEAUID3D12PipelineState@@@Z
   80CA1E ?hook_create_special_resource@@YAJPEAURenderer@@PEBUD3D12_RESOURCE_DESC@@PEBUD3D12_CLEAR_VALUE@@W4D3D12_RESOURCE_STATES@@IPEAPEAUID3D12Resource@@@Z
   80CA1E ?hook_dispatch@@YAXPEAUCmd@@III@Z
   80CA1E ?hook_enable_debug_layer@@YAXPEAURenderer@@@Z
   80CA1E ?hook_fill_gpu_desc@@YAXPEAURenderer@@W4D3D_FEATURE_LEVEL@@PEAUGpuDesc@@@Z
   80CA1E ?hook_get_d3d12_module_handle@@YAPEAUHINSTANCE__@@XZ
   80CA1E ?hook_get_recommended_swapchain_format@@YA?AW4TinyImageFormat@@_N@Z
   80CA1E ?hook_get_swapchain_image_index@@YAIPEAUSwapChain@@@Z
   80CA1E ?hook_modify_buffer_resource_desc@@YAXPEBUBufferDesc@@PEAUD3D12_RESOURCE_DESC@@@Z
   80CA1E ?hook_modify_command_signature_desc@@YAXPEAUD3D12_COMMAND_SIGNATURE_DESC@@I@Z
   80CA1E ?hook_modify_descriptor_heap_size@@YAXW4D3D12_DESCRIPTOR_HEAP_TYPE@@PEAI@Z
   80CA1E ?hook_modify_heap_flags@@YAXW4DescriptorType@@PEAW4D3D12_HEAP_FLAGS@@@Z
   80CA1E ?hook_modify_rootsignature_flags@@YAXIPEAW4D3D12_ROOT_SIGNATURE_FLAGS@@@Z
   80CA1E ?hook_modify_shader_compile_flags@@YAXI_NPEAPEB_WPEAI@Z
   80CA1E ?hook_modify_swapchain_desc@@YAXPEAUDXGI_SWAP_CHAIN_DESC1@@@Z
   80CA1E ?hook_modify_texture_resource_flags@@YAXW4TextureCreationFlags@@PEAW4D3D12_RESOURCE_FLAGS@@@Z
   80CA1E ?hook_post_init_renderer@@YAXPEAURenderer@@@Z
   80CA1E ?hook_post_remove_renderer@@YAXPEAURenderer@@@Z
   80CA1E ?hook_queue_present@@YAJPEAUQueue@@PEAUSwapChain@@I@Z
   80CA1E ?hook_remove_copy_cmd@@YAXPEAUCmd@@@Z
   80CA1E ?hook_signal@@YAXPEAUQueue@@PEAUID3D12Fence@@_K@Z
   80CA1E _GUID_0ec870a6_5d7e_4c22_8cfc_5baae07616ed
   80CA1E _GUID_189819f1_1db6_4b57_be54_1821339b85f7
   80CA1E _GUID_5b160d0f_ac1b_4185_8ba8_b3ae42a5a455
   80CA1E _GUID_765a30f3_f624_4c6f_a828_ace948622445
   80CA1E _vsprintf_s_l
   80CA1E vsprintf_s
   9A0994 ==
   9A0994 ??$?0$$V@?$_Compressed_pair@V?$allocator@D@std@@V?$_String_val@U?$_Simple_types@D@std@@@2@$00@std@@QEAA@U_Zero_then_variadic_args_t@1@@Z
   9A0994 ??$?0$$V@?$_Compressed_pair@V?$allocator@U_Grp_t@?$_Tgt_state_t@PEBD@std@@@std@@V?$_Vector_val@U?$_Simple_types@U_Grp_t@?$_Tgt_state_t@PEBD@std@@@std@@@2@$00@std@@QEAA@U_Zero_then_variadic_args_t@1@@Z
   9A0994 ??$?0$$V@?$_Compressed_pair@V?$allocator@U_Loop_vals_t@std@@@std@@V?$_Vector_val@U?$_Simple_types@U_Loop_vals_t@std@@@std@@@2@$00@std@@QEAA@U_Zero_then_variadic_args_t@1@@Z
   9A0994 ??$?0$$V@?$_Compressed_pair@V?$allocator@V?$sub_match@PEBD@std@@@std@@V?$_Vector_val@U?$_Simple_types@V?$sub_match@PEBD@std@@@std@@@2@$00@std@@QEAA@U_Zero_then_variadic_args_t@1@@Z
   9A0994 ??$?0AEAPEAUShaderResource@@AEAPEAUSampler@@X@?$pair@PEAUShaderResource@@PEAUSampler@@@eastl@@QEAA@AEAPEAUShaderResource@@AEAPEAUSampler@@@Z
   9A0994 ??$?0AEAPEAV_Facet_base@std@@@?$_Compressed_pair@U?$default_delete@V_Facet_base@std@@@std@@PEAV_Facet_base@2@$00@std@@QEAA@U_Zero_then_variadic_args_t@1@AEAPEAV_Facet_base@1@@Z
   9A0994 ??$?0AEAPEAV_Node_assert@std@@@?$_Compressed_pair@U?$default_delete@V_Node_assert@std@@@std@@PEAV_Node_assert@2@$00@std@@QEAA@U_Zero_then_variadic_args_t@1@AEAPEAV_Node_assert@1@@Z
   9A0994 ??$?0AEAUShaderResource@@AEAPEAUDescriptorInfo@@X@?$pair@UShaderResource@@PEAUDescriptorInfo@@@eastl@@QEAA@AEAUShaderResource@@AEAPEAUDescriptorInfo@@@Z
   9A0994 ??$?0AEBV?$allocator@D@std@@$$V@?$_Compressed_pair@V?$allocator@D@std@@V?$_Vector_val@U?$_Simple_types@D@std@@@2@$00@std@@QEAA@U_One_then_variadic_args_t@1@AEBV?$allocator@D@1@@Z
   9A0994 ??$?0AEBV?$allocator@I@std@@$$V@?$_Compressed_pair@V?$allocator@I@std@@V?$_Vector_val@U?$_Simple_types@I@std@@@2@$00@std@@QEAA@U_One_then_variadic_args_t@1@AEBV?$allocator@I@1@@Z
   9A0994 ??$?0IX@?$pair@QEAUDescriptorInfo@@I@eastl@@QEAA@Upair_first_construct_t@1@AEBQEAUDescriptorInfo@@@Z
   9A0994 ??$?0IX@?$pair@QEBDI@eastl@@QEAA@Upair_first_construct_t@1@$$QEBQEBD@Z
   9A0994 ??$?0PEAD$0A@@?$vector@DV?$allocator@D@std@@@std@@QEAA@PEAD0AEBV?$allocator@D@1@@Z
   9A0994 ??$?0PEADIX@?$pair@QEBDI@eastl@@QEAA@$$QEAU?$pair@PEADI@1@@Z
   9A0994 ??$?0PEADPEAUSampler@@X@?$pair@QEBDPEAUSampler@@@eastl@@QEAA@$$QEAU?$pair@PEADPEAUSampler@@@1@@Z
   9A0994 ??$?0PEADX@?$pair@PEADI@eastl@@QEAA@$$QEAPEADAEBI@Z
   9A0994 ??$?0PEADX@?$pair@PEADPEAUSampler@@@eastl@@QEAA@$$QEAPEADAEBQEAUSampler@@@Z
   9A0994 ??$?0PEBD$0A@@?$vector@DV?$allocator@D@std@@@std@@QEAA@PEBD0AEBV?$allocator@D@1@@Z
   9A0994 ??$?0PEBDPEBD$0A@@?$pair@PEBDPEBD@std@@QEAA@XZ
   9A0994 ??$?0U?$default_delete@V_Facet_base@std@@@std@@$0A@@?$unique_ptr@V_Facet_base@std@@U?$default_delete@V_Facet_base@std@@@2@@std@@QEAA@PEAV_Facet_base@1@@Z
   9A0994 ??$?0U?$default_delete@V_Node_assert@std@@@std@@$0A@@?$unique_ptr@V_Node_assert@std@@U?$default_delete@V_Node_assert@std@@@2@@std@@QEAA@$$QEAV01@@Z
   9A0994 ??$?0U?$default_delete@V_Node_assert@std@@@std@@$0A@@?$unique_ptr@V_Node_assert@std@@U?$default_delete@V_Node_assert@std@@@2@@std@@QEAA@PEAV_Node_assert@1@@Z
   9A0994 ??$?0U?$default_delete@V_Node_assert@std@@@std@@PEAV_Node_assert@1@@?$_Compressed_pair@U?$default_delete@V_Node_assert@std@@@std@@PEAV_Node_assert@2@$00@std@@QEAA@U_One_then_variadic_args_t@1@$$QEAU?$default_delete@V_Node_assert@std@@@1@$$QEAPEAV_Node_assert@1@@Z
   9A0994 ??$?0U?$hashtable_iterator@U?$pair@QEAUDescriptorInfo@@I@eastl@@$0A@$0A@@eastl@@_NX@?$pair@U?$hashtable_iterator@U?$pair@QEAUDescriptorInfo@@I@eastl@@$0A@$0A@@eastl@@_N@eastl@@QEAA@$$QEAU?$hashtable_iterator@U?$pair@QEAUDescriptorInfo@@I@eastl@@$0A@$0A@@1@$$QEA_N@Z
   9A0994 ??$?0U?$hashtable_iterator@U?$pair@QEBDI@eastl@@$0A@$0A@@eastl@@_NX@?$pair@U?$hashtable_iterator@U?$pair@QEBDI@eastl@@$0A@$0A@@eastl@@_N@eastl@@QEAA@$$QEAU?$hashtable_iterator@U?$pair@QEBDI@eastl@@$0A@$0A@@1@$$QEA_N@Z
   9A0994 ??$?0U?$hashtable_iterator@U?$pair@QEBDI@eastl@@$0A@$0A@@eastl@@_NX@?$pair@U?$hashtable_iterator@U?$pair@QEBDI@eastl@@$0A@$0A@@eastl@@_N@eastl@@QEAA@XZ
   9A0994 ??$?0U?$hashtable_iterator@U?$pair@QEBDPEAUSampler@@@eastl@@$0A@$0A@@eastl@@_NX@?$pair@U?$hashtable_iterator@U?$pair@QEBDPEAUSampler@@@eastl@@$0A@$0A@@eastl@@_N@eastl@@QEAA@$$QEAU?$hashtable_iterator@U?$pair@QEBDPEAUSampler@@@eastl@@$0A@$0A@@1@$$QEA_N@Z
   9A0994 ??$?0U?$hashtable_iterator@U?$pair@QEBDPEAUSampler@@@eastl@@$0A@$0A@@eastl@@_NX@?$pair@U?$hashtable_iterator@U?$pair@QEBDPEAUSampler@@@eastl@@$0A@$0A@@eastl@@_N@eastl@@QEAA@XZ
   9A0994 ??$?0UShaderResource@@PEAUDescriptorInfo@@X@?$pair@UShaderResource@@PEAUDescriptorInfo@@@eastl@@QEAA@XZ
   9A0994 ??$?0V?$_String_iterator@V?$_String_val@U?$_Simple_types@D@std@@@std@@@std@@$0A@@?$vector@DV?$allocator@D@std@@@std@@QEAA@V?$_String_iterator@V?$_String_val@U?$_Simple_types@D@std@@@std@@@1@0AEBV?$allocator@D@1@@Z
   9A0994 ??$?0V?$allocator@D@std@@$$V@?$_Compressed_pair@V?$allocator@D@std@@V?$_String_val@U?$_Simple_types@D@std@@@2@$00@std@@QEAA@U_One_then_variadic_args_t@1@$$QEAV?$allocator@D@1@@Z
   9A0994 ??$?0V?$allocator@I@std@@$$V@?$_Compressed_pair@V?$allocator@I@std@@V?$_Vector_val@U?$_Simple_types@I@std@@@2@$00@std@@QEAA@U_One_then_variadic_args_t@1@$$QEAV?$allocator@I@1@@Z
   9A0994 ??$?0V?$allocator@U_Grp_t@?$_Tgt_state_t@PEBD@std@@@std@@$$V@?$_Compressed_pair@V?$allocator@U_Grp_t@?$_Tgt_state_t@PEBD@std@@@std@@V?$_Vector_val@U?$_Simple_types@U_Grp_t@?$_Tgt_state_t@PEBD@std@@@std@@@2@$00@std@@QEAA@U_One_then_variadic_args_t@1@$$QEAV?$allocator@U_Grp_t@?$_Tgt_state_t@PEBD@std@@@1@@Z
   9A0994 ??$?0V?$move_iterator@PEAI@eastl@@@?$vector@IVallocator_forge@eastl@@@eastl@@QEAA@V?$move_iterator@PEAI@1@0AEBVallocator_forge@1@@Z
   9A0994 ??$?0V?$move_iterator@PEAUD3D12_TILED_RESOURCE_COORDINATE@@@eastl@@@?$vector@UD3D12_TILED_RESOURCE_COORDINATE@@Vallocator_forge@eastl@@@eastl@@QEAA@V?$move_iterator@PEAUD3D12_TILED_RESOURCE_COORDINATE@@@1@0AEBVallocator_forge@1@@Z
   9A0994 ??$?0V?$move_iterator@PEAUD3D12_TILE_REGION_SIZE@@@eastl@@@?$vector@UD3D12_TILE_REGION_SIZE@@Vallocator_forge@eastl@@@eastl@@QEAA@V?$move_iterator@PEAUD3D12_TILE_REGION_SIZE@@@1@0AEBVallocator_forge@1@@Z
   9A0994 ??$?0V?$move_iterator@PEAUVirtualTexturePage@@@eastl@@@?$vector@UVirtualTexturePage@@Vallocator_forge@eastl@@@eastl@@QEAA@V?$move_iterator@PEAUVirtualTexturePage@@@1@0AEBVallocator_forge@1@@Z
   9A0994 ??$?0V?$move_iterator@PEAW4D3D12_TILE_RANGE_FLAGS@@@eastl@@@?$vector@W4D3D12_TILE_RANGE_FLAGS@@Vallocator_forge@eastl@@@eastl@@QEAA@V?$move_iterator@PEAW4D3D12_TILE_RANGE_FLAGS@@@1@0AEBVallocator_forge@1@@Z
   9A0994 ??$?0_N@?$allocator@I@std@@QEAA@AEBV?$allocator@_N@1@@Z
   9A0994 ??$?8DU?$char_traits@D@std@@V?$allocator@D@1@@std@@YA_NAEBV?$basic_string@DU?$char_traits@D@std@@V?$allocator@D@2@@0@0@Z
   9A0994 ??$?8U?$pair@QEBDI@eastl@@$0A@@eastl@@YA_NAEBU?$hashtable_iterator_base@U?$pair@QEBDI@eastl@@$0A@@0@0@Z
   9A0994 ??$?9PEAU?$pair@PEAUShaderResource@@PEAUSampler@@@eastl@@X@eastl@@YA_NAEBV?$generic_iterator@PEAU?$pair@PEAUShaderResource@@PEAUSampler@@@eastl@@X@0@0@Z
   9A0994 ??$?9PEAU?$pair@UShaderResource@@PEAUDescriptorInfo@@@eastl@@X@eastl@@YA_NAEBV?$generic_iterator@PEAU?$pair@UShaderResource@@PEAUDescriptorInfo@@@eastl@@X@0@0@Z
   9A0994 ??$?9U?$pair@QEBDI@eastl@@$0A@@eastl@@YA_NAEBU?$hashtable_iterator_base@U?$pair@QEBDI@eastl@@$0A@@0@0@Z
   9A0994 ??$?9U?$pair@QEBDPEAUSampler@@@eastl@@$0A@@eastl@@YA_NAEBU?$hashtable_iterator_base@U?$pair@QEBDPEAUSampler@@@eastl@@$0A@@0@0@Z
   9A0994 ??$?GPEAIPEAI@eastl@@YA_JAEBV?$move_iterator@PEAI@0@0@Z
   9A0994 ??$?GPEAUD3D12_TILED_RESOURCE_COORDINATE@@PEAU0@@eastl@@YA_JAEBV?$move_iterator@PEAUD3D12_TILED_RESOURCE_COORDINATE@@@0@0@Z
   9A0994 ??$?GPEAUD3D12_TILE_REGION_SIZE@@PEAU0@@eastl@@YA_JAEBV?$move_iterator@PEAUD3D12_TILE_REGION_SIZE@@@0@0@Z
   9A0994 ??$?GPEAUVirtualTexturePage@@PEAU0@@eastl@@YA_JAEBV?$move_iterator@PEAUVirtualTexturePage@@@0@0@Z
   9A0994 ??$?GPEAW4D3D12_TILE_RANGE_FLAGS@@PEAW40@@eastl@@YA_JAEBV?$move_iterator@PEAW4D3D12_TILE_RANGE_FLAGS@@@0@0@Z
   9A0994 ??$Alloc@$$V@?$PoolAllocator@UItem@?$List@USuballocation@D3D12MA@@@D3D12MA@@@D3D12MA@@QEAAPEAUItem@?$List@USuballocation@D3D12MA@@@1@XZ
   9A0994 ??$Alloc@PEAVAllocatorPimpl@D3D12MA@@_KH@?$PoolAllocator@VAllocation@D3D12MA@@@D3D12MA@@QEAAPEAVAllocation@1@PEAVAllocatorPimpl@1@_KH@Z
   9A0994 ??$Allocate@PEAVAllocatorPimpl@D3D12MA@@_KH@AllocationObjectAllocator@D3D12MA@@QEAAPEAVAllocation@1@PEAVAllocatorPimpl@1@_KH@Z
   9A0994 ??$D3D12MA_DELETE@V?$Vector@PEAVAllocation@D3D12MA@@@D3D12MA@@@D3D12MA@@YAXAEBUALLOCATION_CALLBACKS@0@PEAV?$Vector@PEAVAllocation@D3D12MA@@@0@@Z
   9A0994 ??$D3D12MA_DELETE@V?$Vector@PEAVPool@D3D12MA@@@D3D12MA@@@D3D12MA@@YAXAEBUALLOCATION_CALLBACKS@0@PEAV?$Vector@PEAVPool@D3D12MA@@@0@@Z
   9A0994 ??$D3D12MA_DELETE@VAllocator@D3D12MA@@@D3D12MA@@YAXAEBUALLOCATION_CALLBACKS@0@PEAVAllocator@0@@Z
   9A0994 ??$D3D12MA_DELETE@VAllocatorPimpl@D3D12MA@@@D3D12MA@@YAXAEBUALLOCATION_CALLBACKS@0@PEAVAllocatorPimpl@0@@Z
   9A0994 ??$D3D12MA_DELETE@VBlockMetadata@D3D12MA@@@D3D12MA@@YAXAEBUALLOCATION_CALLBACKS@0@PEAVBlockMetadata@0@@Z
   9A0994 ??$D3D12MA_DELETE@VBlockVector@D3D12MA@@@D3D12MA@@YAXAEBUALLOCATION_CALLBACKS@0@PEAVBlockVector@0@@Z
   9A0994 ??$D3D12MA_DELETE@VNormalBlock@D3D12MA@@@D3D12MA@@YAXAEBUALLOCATION_CALLBACKS@0@PEAVNormalBlock@0@@Z
   9A0994 ??$D3D12MA_DELETE@VPool@D3D12MA@@@D3D12MA@@YAXAEBUALLOCATION_CALLBACKS@0@PEAVPool@0@@Z
   9A0994 ??$D3D12MA_DELETE@VPoolPimpl@D3D12MA@@@D3D12MA@@YAXAEBUALLOCATION_CALLBACKS@0@PEAVPoolPimpl@0@@Z
   9A0994 ??$D3D12MA_DELETE_ARRAY@TItem@?$PoolAllocator@UItem@?$List@USuballocation@D3D12MA@@@D3D12MA@@@D3D12MA@@@D3D12MA@@YAXAEBUALLOCATION_CALLBACKS@0@PEATItem@?$PoolAllocator@UItem@?$List@USuballocation@D3D12MA@@@D3D12MA@@@0@_K@Z
   9A0994 ??$D3D12MA_DELETE_ARRAY@TItem@?$PoolAllocator@VAllocation@D3D12MA@@@D3D12MA@@@D3D12MA@@YAXAEBUALLOCATION_CALLBACKS@0@PEATItem@?$PoolAllocator@VAllocation@D3D12MA@@@0@_K@Z
   9A0994 ??$D3D12MA_DELETE_ARRAY@_W@D3D12MA@@YAXAEBUALLOCATION_CALLBACKS@0@PEA_W_K@Z
   9A0994 ??$DoInit@V?$move_iterator@PEAI@eastl@@@?$vector@IVallocator_forge@eastl@@@eastl@@IEAAXV?$move_iterator@PEAI@1@0U?$integral_constant@_N$0A@@1@@Z
   9A0994 ??$DoInit@V?$move_iterator@PEAUD3D12_TILED_RESOURCE_COORDINATE@@@eastl@@@?$vector@UD3D12_TILED_RESOURCE_COORDINATE@@Vallocator_forge@eastl@@@eastl@@IEAAXV?$move_iterator@PEAUD3D12_TILED_RESOURCE_COORDINATE@@@1@0U?$integral_constant@_N$0A@@1@@Z
   9A0994 ??$DoInit@V?$move_iterator@PEAUD3D12_TILE_REGION_SIZE@@@eastl@@@?$vector@UD3D12_TILE_REGION_SIZE@@Vallocator_forge@eastl@@@eastl@@IEAAXV?$move_iterator@PEAUD3D12_TILE_REGION_SIZE@@@1@0U?$integral_constant@_N$0A@@1@@Z
   9A0994 ??$DoInit@V?$move_iterator@PEAUVirtualTexturePage@@@eastl@@@?$vector@UVirtualTexturePage@@Vallocator_forge@eastl@@@eastl@@IEAAXV?$move_iterator@PEAUVirtualTexturePage@@@1@0U?$integral_constant@_N$0A@@1@@Z
   9A0994 ??$DoInit@V?$move_iterator@PEAW4D3D12_TILE_RANGE_FLAGS@@@eastl@@@?$vector@W4D3D12_TILE_RANGE_FLAGS@@Vallocator_forge@eastl@@@eastl@@IEAAXV?$move_iterator@PEAW4D3D12_TILE_RANGE_FLAGS@@@1@0U?$integral_constant@_N$0A@@1@@Z
   9A0994 ??$DoInitFromIterator@V?$move_iterator@PEAI@eastl@@@?$vector@IVallocator_forge@eastl@@@eastl@@IEAAXV?$move_iterator@PEAI@1@0Uforward_iterator_tag@1@@Z
   9A0994 ??$DoInitFromIterator@V?$move_iterator@PEAUD3D12_TILED_RESOURCE_COORDINATE@@@eastl@@@?$vector@UD3D12_TILED_RESOURCE_COORDINATE@@Vallocator_forge@eastl@@@eastl@@IEAAXV?$move_iterator@PEAUD3D12_TILED_RESOURCE_COORDINATE@@@1@0Uforward_iterator_tag@1@@Z
   9A0994 ??$DoInitFromIterator@V?$move_iterator@PEAUD3D12_TILE_REGION_SIZE@@@eastl@@@?$vector@UD3D12_TILE_REGION_SIZE@@Vallocator_forge@eastl@@@eastl@@IEAAXV?$move_iterator@PEAUD3D12_TILE_REGION_SIZE@@@1@0Uforward_iterator_tag@1@@Z
   9A0994 ??$DoInitFromIterator@V?$move_iterator@PEAUVirtualTexturePage@@@eastl@@@?$vector@UVirtualTexturePage@@Vallocator_forge@eastl@@@eastl@@IEAAXV?$move_iterator@PEAUVirtualTexturePage@@@1@0Uforward_iterator_tag@1@@Z
   9A0994 ??$DoInitFromIterator@V?$move_iterator@PEAW4D3D12_TILE_RANGE_FLAGS@@@eastl@@@?$vector@W4D3D12_TILE_RANGE_FLAGS@@Vallocator_forge@eastl@@@eastl@@IEAAXV?$move_iterator@PEAW4D3D12_TILE_RANGE_FLAGS@@@1@0Uforward_iterator_tag@1@@Z
   9A0994 ??$DoInsertValue@U?$integral_constant@_N$00@eastl@@@?$hashtable@PEBDU?$pair@QEBDI@eastl@@Vallocator_forge@2@U?$use_first@U?$pair@QEBDI@eastl@@@2@U?$str_equal_to@PEBD@2@U?$hash@PEBD@2@Umod_range_hashing@2@Udefault_ranged_hash@2@Uprime_rehash_policy@2@$0A@$00$00@eastl@@IEAA?AU?$pair@U?$hashtable_iterator@U?$pair@QEBDI@eastl@@$0A@$0A@@eastl@@_N@1@U?$integral_constant@_N$00@1@$$QEAU?$pair@QEBDI@1@PEAX@Z
   9A0994 ??$DoInsertValue@U?$integral_constant@_N$00@eastl@@@?$hashtable@PEBDU?$pair@QEBDPEAUSampler@@@eastl@@Vallocator_forge@2@U?$use_first@U?$pair@QEBDPEAUSampler@@@eastl@@@2@U?$str_equal_to@PEBD@2@U?$hash@PEBD@2@Umod_range_hashing@2@Udefault_ranged_hash@2@Uprime_rehash_policy@2@$0A@$00$00@eastl@@IEAA?AU?$pair@U?$hashtable_iterator@U?$pair@QEBDPEAUSampler@@@eastl@@$0A@$0A@@eastl@@_N@1@U?$integral_constant@_N$00@1@$$QEAU?$pair@QEBDPEAUSampler@@@1@PEAX@Z
   9A0994 ??$DoInsertValueEnd@AEBI@?$vector@IVallocator_forge@eastl@@@eastl@@IEAAXAEBI@Z
   9A0994 ??$DoInsertValueEnd@AEBQEB_W@?$vector@PEB_WVallocator_forge@eastl@@@eastl@@IEAAXAEBQEB_W@Z
   9A0994 ??$DoInsertValueEnd@AEBUD3D12_TILED_RESOURCE_COORDINATE@@@?$vector@UD3D12_TILED_RESOURCE_COORDINATE@@Vallocator_forge@eastl@@@eastl@@IEAAXAEBUD3D12_TILED_RESOURCE_COORDINATE@@@Z
   9A0994 ??$DoInsertValueEnd@AEBUD3D12_TILE_REGION_SIZE@@@?$vector@UD3D12_TILE_REGION_SIZE@@Vallocator_forge@eastl@@@eastl@@IEAAXAEBUD3D12_TILE_REGION_SIZE@@@Z
   9A0994 ??$DoInsertValueEnd@AEBUShaderResource@@@?$vector@UShaderResource@@Vallocator_forge@eastl@@@eastl@@IEAAXAEBUShaderResource@@@Z
   9A0994 ??$DoInsertValueEnd@AEBUVirtualTexturePage@@@?$vector@UVirtualTexturePage@@Vallocator_forge@eastl@@@eastl@@IEAAXAEBUVirtualTexturePage@@@Z
   9A0994 ??$DoInsertValueEnd@AEBW4D3D12_TILE_RANGE_FLAGS@@@?$vector@W4D3D12_TILE_RANGE_FLAGS@@Vallocator_forge@eastl@@@eastl@@IEAAXAEBW4D3D12_TILE_RANGE_FLAGS@@@Z
   9A0994 ??$DoInsertValueEnd@I@?$vector@IVallocator_forge@eastl@@@eastl@@IEAAX$$QEAI@Z
   9A0994 ??$DoInsertValueEnd@U?$pair@PEAUShaderResource@@PEAUSampler@@@eastl@@@?$vector@U?$pair@PEAUShaderResource@@PEAUSampler@@@eastl@@Vallocator_forge@2@@eastl@@IEAAX$$QEAU?$pair@PEAUShaderResource@@PEAUSampler@@@1@@Z
   9A0994 ??$DoInsertValueEnd@U?$pair@UShaderResource@@PEAUDescriptorInfo@@@eastl@@@?$vector@U?$pair@UShaderResource@@PEAUDescriptorInfo@@@eastl@@Vallocator_forge@2@@eastl@@IEAAX$$QEAU?$pair@UShaderResource@@PEAUDescriptorInfo@@@1@@Z
   9A0994 ??$DoInsertValueEnd@UDescriptorHandle@DescriptorHeap@@@?$vector@UDescriptorHandle@DescriptorHeap@@Vallocator_forge@eastl@@@eastl@@IEAAX$$QEAUDescriptorHandle@DescriptorHeap@@@Z
   9A0994 ??$DoInsertValueExtra@U?$integral_constant@_N$00@eastl@@@?$hashtable@PEBDU?$pair@QEBDI@eastl@@Vallocator_forge@2@U?$use_first@U?$pair@QEBDI@eastl@@@2@U?$str_equal_to@PEBD@2@U?$hash@PEBD@2@Umod_range_hashing@2@Udefault_ranged_hash@2@Uprime_rehash_policy@2@$0A@$00$00@eastl@@IEAA?AU?$pair@U?$hashtable_iterator@U?$pair@QEBDI@eastl@@$0A@$0A@@eastl@@_N@1@U?$integral_constant@_N$00@1@AEBQEBD_KPEAU?$hash_node@U?$pair@QEBDI@eastl@@$0A@@1@$$QEAU?$pair@QEBDI@1@PEAX@Z
   9A0994 ??$DoInsertValueExtra@U?$integral_constant@_N$00@eastl@@@?$hashtable@PEBDU?$pair@QEBDPEAUSampler@@@eastl@@Vallocator_forge@2@U?$use_first@U?$pair@QEBDPEAUSampler@@@eastl@@@2@U?$str_equal_to@PEBD@2@U?$hash@PEBD@2@Umod_range_hashing@2@Udefault_ranged_hash@2@Uprime_rehash_policy@2@$0A@$00$00@eastl@@IEAA?AU?$pair@U?$hashtable_iterator@U?$pair@QEBDPEAUSampler@@@eastl@@$0A@$0A@@eastl@@_N@1@U?$integral_constant@_N$00@1@AEBQEBD_KPEAU?$hash_node@U?$pair@QEBDPEAUSampler@@@eastl@@$0A@@1@$$QEAU?$pair@QEBDPEAUSampler@@@1@PEAX@Z
   9A0994 ??$DoRealloc@PEAI@?$vector@IVallocator_forge@eastl@@@eastl@@IEAAPEAI_KPEAI1Ushould_move_tag@01@@Z
   9A0994 ??$DoRealloc@PEAUD3D12_TILED_RESOURCE_COORDINATE@@@?$vector@UD3D12_TILED_RESOURCE_COORDINATE@@Vallocator_forge@eastl@@@eastl@@IEAAPEAUD3D12_TILED_RESOURCE_COORDINATE@@_KPEAU2@1Ushould_move_tag@01@@Z
   9A0994 ??$DoRealloc@PEAUD3D12_TILE_REGION_SIZE@@@?$vector@UD3D12_TILE_REGION_SIZE@@Vallocator_forge@eastl@@@eastl@@IEAAPEAUD3D12_TILE_REGION_SIZE@@_KPEAU2@1Ushould_move_tag@01@@Z
   9A0994 ??$DoRealloc@PEAUVirtualTexturePage@@@?$vector@UVirtualTexturePage@@Vallocator_forge@eastl@@@eastl@@IEAAPEAUVirtualTexturePage@@_KPEAU2@1Ushould_move_tag@01@@Z
   9A0994 ??$DoRealloc@PEAW4D3D12_TILE_RANGE_FLAGS@@@?$vector@W4D3D12_TILE_RANGE_FLAGS@@Vallocator_forge@eastl@@@eastl@@IEAAPEAW4D3D12_TILE_RANGE_FLAGS@@_KPEAW42@1Ushould_move_tag@01@@Z
   9A0994 ??$IID_PPV_ARGS_Helper@UID3D12CommandAllocator@@@@YAPEAPEAXPEAPEAUID3D12CommandAllocator@@@Z
   9A0994 ??$IID_PPV_ARGS_Helper@UID3D12CommandSignature@@@@YAPEAPEAXPEAPEAUID3D12CommandSignature@@@Z
   9A0994 ??$IID_PPV_ARGS_Helper@UID3D12DescriptorHeap@@@@YAPEAPEAXPEAPEAUID3D12DescriptorHeap@@@Z
   9A0994 ??$IID_PPV_ARGS_Helper@UID3D12Device1@@@@YAPEAPEAXPEAPEAUID3D12Device1@@@Z
   9A0994 ??$IID_PPV_ARGS_Helper@UID3D12Fence@@@@YAPEAPEAXPEAPEAUID3D12Fence@@@Z
   9A0994 ??$IID_PPV_ARGS_Helper@UID3D12PipelineLibrary@@@@YAPEAPEAXPEAPEAUID3D12PipelineLibrary@@@Z
   9A0994 ??$IID_PPV_ARGS_Helper@UID3D12QueryHeap@@@@YAPEAPEAXPEAPEAUID3D12QueryHeap@@@Z
   9A0994 ??$IID_PPV_ARGS_Helper@UID3D12Resource@@@@YAPEAPEAXPEAPEAUID3D12Resource@@@Z
   9A0994 ??$IID_PPV_ARGS_Helper@UID3D12RootSignature@@@@YAPEAPEAXPEAPEAUID3D12RootSignature@@@Z
   9A0994 ??$IID_PPV_ARGS_Helper@UIDXGIAdapter4@@@@YAPEAPEAXPEAPEAUIDXGIAdapter4@@@Z
   9A0994 ??$IID_PPV_ARGS_Helper@UIDXGIFactory6@@@@YAPEAPEAXPEAPEAUIDXGIFactory6@@@Z
   9A0994 ??$IID_PPV_ARGS_Helper@UIDXGISwapChain3@@@@YAPEAPEAXPEAPEAUIDXGISwapChain3@@@Z
   9A0994 ??$IID_PPV_ARGS_Helper@UIDxcCompiler@@@@YAPEAPEAXPEAPEAUIDxcCompiler@@@Z
   9A0994 ??$IID_PPV_ARGS_Helper@UIDxcUtils@@@@YAPEAPEAXPEAPEAUIDxcUtils@@@Z
   9A0994 ??$InsertSorted@UPointerLess@D3D12MA@@@?$Vector@PEAVAllocation@D3D12MA@@@D3D12MA@@QEAA_KAEBQEAVAllocation@1@AEBUPointerLess@1@@Z
   9A0994 ??$InsertSorted@UPointerLess@D3D12MA@@@?$Vector@PEAVPool@D3D12MA@@@D3D12MA@@QEAA_KAEBQEAVPool@1@AEBUPointerLess@1@@Z
   9A0994 ??$InsertSorted@USuballocationItemSizeLess@D3D12MA@@@?$Vector@Viterator@?$List@USuballocation@D3D12MA@@@D3D12MA@@@D3D12MA@@QEAA_KAEBViterator@?$List@USuballocation@D3D12MA@@@1@AEBUSuballocationItemSizeLess@1@@Z
   9A0994 ??$QueryInterface@UIDXGIAdapter3@@@IUnknown@@QEAAJPEAPEAUIDXGIAdapter3@@@Z
   9A0994 ??$RemoveSorted@UPointerLess@D3D12MA@@@?$Vector@PEAVAllocation@D3D12MA@@@D3D12MA@@QEAA_NAEBQEAVAllocation@1@AEBUPointerLess@1@@Z
   9A0994 ??$RemoveSorted@UPointerLess@D3D12MA@@@?$Vector@PEAVPool@D3D12MA@@@D3D12MA@@QEAA_NAEBQEAVPool@1@AEBUPointerLess@1@@Z
   9A0994 ??$_Adl_verify_range@PEADPEAD@std@@YAXAEBQEAD0@Z
   9A0994 ??$_Adl_verify_range@PEAIPEAI@std@@YAXAEBQEAI0@Z
   9A0994 ??$_Adl_verify_range@PEAU_Grp_t@?$_Tgt_state_t@PEBD@std@@PEAU123@@std@@YAXAEBQEAU_Grp_t@?$_Tgt_state_t@PEBD@0@0@Z
   9A0994 ??$_Adl_verify_range@PEBDPEBD@std@@YAXAEBQEBD0@Z
   9A0994 ??$_Adl_verify_range@V?$_String_iterator@V?$_String_val@U?$_Simple_types@D@std@@@std@@@std@@V12@@std@@YAXAEBV?$_String_iterator@V?$_String_val@U?$_Simple_types@D@std@@@std@@@0@0@Z
   9A0994 ??$_Adl_verify_range@V?$_Vb_iterator@U?$_Wrap_alloc@V?$allocator@I@std@@@std@@@std@@V12@@std@@YAXAEBV?$_Vb_iterator@U?$_Wrap_alloc@V?$allocator@I@std@@@std@@@0@0@Z
   9A0994 ??$_Allocate@$0BA@U_Default_allocate_traits@std@@$0A@@std@@YAPEAX_K@Z
   9A0994 ??$_Allocate_manually_vector_aligned@U_Default_allocate_traits@std@@@std@@YAPEAX_K@Z
   9A0994 ??$_Assign_range@PEAI@?$vector@IV?$allocator@I@std@@@std@@AEAAXPEAI0Uforward_iterator_tag@1@@Z
   9A0994 ??$_Assign_range@PEAU_Grp_t@?$_Tgt_state_t@PEBD@std@@@?$vector@U_Grp_t@?$_Tgt_state_t@PEBD@std@@V?$allocator@U_Grp_t@?$_Tgt_state_t@PEBD@std@@@3@@std@@AEAAXPEAU_Grp_t@?$_Tgt_state_t@PEBD@1@0Uforward_iterator_tag@1@@Z
   9A0994 ??$_Atomic_address_as@$$CBJ$$CBU?$_Atomic_padded@I@std@@@std@@YAPEDJAEBU?$_Atomic_padded@I@0@@Z
   9A0994 ??$_Atomic_address_as@$$CB_J$$CBU?$_Atomic_padded@_K@std@@@std@@YAPED_JAEBU?$_Atomic_padded@_K@0@@Z
   9A0994 ??$_Atomic_address_as@JU?$_Atomic_padded@I@std@@@std@@YAPECJAEAU?$_Atomic_padded@I@0@@Z
   9A0994 ??$_Atomic_address_as@_JU?$_Atomic_padded@_K@std@@@std@@YAPEC_JAEAU?$_Atomic_padded@_K@0@@Z
   9A0994 ??$_Atomic_reinterpret_as@JI@std@@YAJAEBI@Z
   9A0994 ??$_Atomic_reinterpret_as@_J_K@std@@YA_JAEB_K@Z
   9A0994 ??$_Cmp_chrange@PEBDPEBDU?$_Cmp_collate@V?$regex_traits@D@std@@@std@@@std@@YAPEBDPEBD000U?$_Cmp_collate@V?$regex_traits@D@std@@@0@@Z
   9A0994 ??$_Cmp_chrange@PEBDPEBDU?$_Cmp_cs@V?$regex_traits@D@std@@@std@@@std@@YAPEBDPEBD000U?$_Cmp_cs@V?$regex_traits@D@std@@@0@@Z
   9A0994 ??$_Cmp_chrange@PEBDPEBDU?$_Cmp_icase@V?$regex_traits@D@std@@@std@@@std@@YAPEBDPEBD000U?$_Cmp_icase@V?$regex_traits@D@std@@@0@@Z
   9A0994 ??$_Compare@PEBDPEBDV?$regex_traits@D@std@@@std@@YAPEBDPEBD000AEBV?$regex_traits@D@0@W4syntax_option_type@regex_constants@0@@Z
   9A0994 ??$_Construct_in_place@PEADAEBQEAD@std@@YAXAEAPEADAEBQEAD@Z
   9A0994 ??$_Construct_n_copies_of_ty@I@?$vector@IV?$allocator@I@std@@@std@@AEAAX_KAEBI@Z
   9A0994 ??$_Convert_size@_K@std@@YA_K_K@Z
   9A0994 ??$_Copy_memmove@PEADPEAD@std@@YAPEADPEAD00@Z
   9A0994 ??$_Copy_memmove@PEAIPEAI@std@@YAPEAIPEAI00@Z
   9A0994 ??$_Copy_memmove@PEAU_Grp_t@?$_Tgt_state_t@PEBD@std@@PEAU123@@std@@YAPEAU_Grp_t@?$_Tgt_state_t@PEBD@0@PEAU120@00@Z
   9A0994 ??$_Copy_memmove@PEAU_Loop_vals_t@std@@PEAU12@@std@@YAPEAU_Loop_vals_t@0@PEAU10@00@Z
   9A0994 ??$_Copy_memmove@PEBDPEAD@std@@YAPEADPEBD0PEAD@Z
   9A0994 ??$_Copy_unchecked@V?$_Vb_iterator@U?$_Wrap_alloc@V?$allocator@I@std@@@std@@@std@@V12@@std@@YA?AV?$_Vb_iterator@U?$_Wrap_alloc@V?$allocator@I@std@@@std@@@0@V10@00@Z
   9A0994 ??$_Destroy_in_place@PEAD@std@@YAXAEAPEAD@Z
   9A0994 ??$_Destroy_range@V?$allocator@D@std@@@std@@YAXPEADQEADAEAV?$allocator@D@0@@Z
   9A0994 ??$_Destroy_range@V?$allocator@U_Grp_t@?$_Tgt_state_t@PEBD@std@@@std@@@std@@YAXPEAU_Grp_t@?$_Tgt_state_t@PEBD@0@QEAU120@AEAV?$allocator@U_Grp_t@?$_Tgt_state_t@PEBD@std@@@0@@Z
   9A0994 ??$_Destroy_range@V?$allocator@U_Loop_vals_t@std@@@std@@@std@@YAXPEAU_Loop_vals_t@0@QEAU10@AEAV?$allocator@U_Loop_vals_t@std@@@0@@Z
   9A0994 ??$_Destroy_range@V?$allocator@V?$sub_match@PEBD@std@@@std@@@std@@YAXPEAV?$sub_match@PEBD@0@QEAV10@AEAV?$allocator@V?$sub_match@PEBD@std@@@0@@Z
   9A0994 ??$_Emplace_back@$$V@?$_Uninitialized_backout_al@V?$allocator@U_Grp_t@?$_Tgt_state_t@PEBD@std@@@std@@@std@@QEAAXXZ
   9A0994 ??$_Emplace_back@$$V@?$_Uninitialized_backout_al@V?$allocator@U_Loop_vals_t@std@@@std@@@std@@QEAAXXZ
   9A0994 ??$_Emplace_back@$$V@?$_Uninitialized_backout_al@V?$allocator@V?$sub_match@PEBD@std@@@std@@@std@@QEAAXXZ
   9A0994 ??$_Emplace_back@AEBI@?$_Uninitialized_backout_al@V?$allocator@I@std@@@std@@QEAAXAEBI@Z
   9A0994 ??$_Emplace_back@V?$sub_match@PEBD@std@@@?$_Uninitialized_backout_al@V?$allocator@V?$sub_match@PEBD@std@@@std@@@std@@QEAAX$$QEAV?$sub_match@PEBD@1@@Z
   9A0994 ??$_Find@E@_Bitmap@std@@QEBA_NE@Z
   9A0994 ??$_Find_unchecked1@PEBDE@std@@YAPEBDPEBDQEBDAEBEU?$integral_constant@_N$00@0@@Z
   9A0994 ??$_Find_unchecked@PEBDE@std@@YAPEBDQEBD0AEBE@Z
   9A0994 ??$_Get@D@_Cl_names@std@@QEBAPEBDXZ
   9A0994 ??$_Get_size_of_n@$00@std@@YA_K_K@Z
   9A0994 ??$_Get_size_of_n@$03@std@@YA_K_K@Z
   9A0994 ??$_Get_size_of_n@$0BA@@std@@YA_K_K@Z
   9A0994 ??$_Get_size_of_n@$0BI@@std@@YA_K_K@Z
   9A0994 ??$_Get_unwrapped@AEAPEAD@std@@YAPEADAEAPEAD@Z
   9A0994 ??$_Get_unwrapped@AEAPEAI@std@@YAPEAIAEAPEAI@Z
   9A0994 ??$_Get_unwrapped@AEAPEAU_Grp_t@?$_Tgt_state_t@PEBD@std@@@std@@YAPEAU_Grp_t@?$_Tgt_state_t@PEBD@0@AEAPEAU120@@Z
   9A0994 ??$_Get_unwrapped@AEAPEBD@std@@YAPEBDAEAPEBD@Z
   9A0994 ??$_Get_unwrapped@AEAV?$_String_iterator@V?$_String_val@U?$_Simple_types@D@std@@@std@@@std@@@std@@YAPEADAEAV?$_String_iterator@V?$_String_val@U?$_Simple_types@D@std@@@std@@@0@@Z
   9A0994 ??$_Get_unwrapped@AEAV?$_Vb_iterator@U?$_Wrap_alloc@V?$allocator@I@std@@@std@@@std@@@std@@YAAEAV?$_Vb_iterator@U?$_Wrap_alloc@V?$allocator@I@std@@@std@@@0@AEAV10@@Z
   9A0994 ??$_Get_unwrapped@AEBQEAD@std@@YAPEADAEBQEAD@Z
   9A0994 ??$_Get_unwrapped@AEBQEAI@std@@YAPEAIAEBQEAI@Z
   9A0994 ??$_Get_unwrapped@AEBQEAU_Grp_t@?$_Tgt_state_t@PEBD@std@@@std@@YAPEAU_Grp_t@?$_Tgt_state_t@PEBD@0@AEBQEAU120@@Z
   9A0994 ??$_Get_unwrapped@AEBQEAU_Loop_vals_t@std@@@std@@YAPEAU_Loop_vals_t@0@AEBQEAU10@@Z
   9A0994 ??$_Get_unwrapped@AEBQEAV?$sub_match@PEBD@std@@@std@@YAPEAV?$sub_match@PEBD@0@AEBQEAV10@@Z
   9A0994 ??$_Get_unwrapped@AEBQEBD@std@@YAPEBDAEBQEBD@Z
   9A0994 ??$_Get_unwrapped@AEBV?$_Vb_iterator@U?$_Wrap_alloc@V?$allocator@I@std@@@std@@@std@@@std@@YAAEBV?$_Vb_iterator@U?$_Wrap_alloc@V?$allocator@I@std@@@std@@@0@AEBV10@@Z
   9A0994 ??$_Get_unwrapped_n@AEAV?$_Vb_iterator@U?$_Wrap_alloc@V?$allocator@I@std@@@std@@@std@@_J@std@@YAAEAV?$_Vb_iterator@U?$_Wrap_alloc@V?$allocator@I@std@@@std@@@0@AEAV10@_J@Z
   9A0994 ??$_Get_unwrapped_n@AEBQEBD_J@std@@YAPEBDAEBQEBD_J@Z
   9A0994 ??$_Getvals@_W@?$time_get@DV?$istreambuf_iterator@DU?$char_traits@D@std@@@std@@@std@@IEAAX_WAEBV_Locinfo@1@@Z
   9A0994 ??$_Getvals@_W@?$time_get@_WV?$istreambuf_iterator@_WU?$char_traits@_W@std@@@std@@@std@@IEAAX_WAEBV_Locinfo@1@@Z
   9A0994 ??$_Hash_array_representation@D@std@@YA_KQEBD_K@Z
   9A0994 ??$_Idl_distance@PEBDPEBD@std@@YA_JAEBQEBD0@Z
   9A0994 ??$_Idl_distance@V?$_Vb_iterator@U?$_Wrap_alloc@V?$allocator@I@std@@@std@@@std@@V12@@std@@YA_JAEBV?$_Vb_iterator@U?$_Wrap_alloc@V?$allocator@I@std@@@std@@@0@0@Z
   9A0994 ??$_Insert@PEBD@?$_Buf@D@std@@QEAAXPEBD0@Z
   9A0994 ??$_LStrcoll@D@std@@YAHPEBD000PEBU_Collvec@@@Z
   9A0994 ??$_LStrxfrm@D@std@@YA_KPEAD0PEBD1PEBU_Collvec@@@Z
   9A0994 ??$_Lookup_coll@PEBDD@std@@YAPEBDPEBD0PEBU?$_Sequence@D@0@@Z
   9A0994 ??$_Lookup_equiv@DV?$regex_traits@D@std@@@std@@YA_NEPEBU?$_Sequence@D@0@AEBV?$regex_traits@D@0@@Z
   9A0994 ??$_Lookup_range@D@std@@YA_NIPEBU?$_Buf@D@0@@Z
   9A0994 ??$_Maklocstr@D@std@@YAPEADPEBDPEADAEBU_Cvtvec@@@Z
   9A0994 ??$_Maklocstr@_W@std@@YAPEA_WPEBDPEA_WAEBU_Cvtvec@@@Z
   9A0994 ??$_Mark@E@_Bitmap@std@@QEAAXE@Z
   9A0994 ??$_Mark@I@_Bitmap@std@@QEAAXI@Z
   9A0994 ??$_Match@V?$allocator@V?$sub_match@PEBD@std@@@std@@@?$_Matcher@PEBDDV?$regex_traits@D@std@@PEBD@std@@QEAA_NPEAV?$match_results@PEBDV?$allocator@V?$sub_match@PEBD@std@@@std@@@1@_N@Z
   9A0994 ??$_Move_unchecked@PEAIPEAI@std@@YAPEAIPEAI00@Z
   9A0994 ??$_Pass_fn@U?$_Cmp_icase@V?$_Regex_traits@D@std@@@std@@$0A@@std@@YA?AU?$_Cmp_icase@V?$_Regex_traits@D@std@@@0@U10@@Z
   9A0994 ??$_Pocca@V?$allocator@I@std@@@std@@YAXAEAV?$allocator@I@0@AEBV10@@Z
   9A0994 ??$_Pocca@V?$allocator@U_Grp_t@?$_Tgt_state_t@PEBD@std@@@std@@@std@@YAXAEAV?$allocator@U_Grp_t@?$_Tgt_state_t@PEBD@std@@@0@AEBV10@@Z
   9A0994 ??$_Pocma@V?$allocator@D@std@@@std@@YAXAEAV?$allocator@D@0@0@Z
   9A0994 ??$_Prev_iter@PEBD@std@@YAPEBDPEBD@Z
   9A0994 ??$_Range_construct_or_tidy@PEAD@?$vector@DV?$allocator@D@std@@@std@@AEAAXPEAD0Uforward_iterator_tag@1@@Z
   9A0994 ??$_Range_construct_or_tidy@PEBD@?$vector@DV?$allocator@D@std@@@std@@AEAAXPEBD0Uforward_iterator_tag@1@@Z
   9A0994 ??$_Reallocate_for@V<lambda_66f57f934f28d61049862f64df852ff0>@@PEBD@?$basic_string@DU?$char_traits@D@std@@V?$allocator@D@2@@std@@AEAAAEAV01@_KV<lambda_66f57f934f28d61049862f64df852ff0>@@PEBD@Z
   9A0994 ??$_Reallocate_grow_by@V<lambda_319d5e083f45f90dcdce5dce53cbb275>@@D@?$basic_string@DU?$char_traits@D@std@@V?$allocator@D@2@@std@@AEAAAEAV01@_KV<lambda_319d5e083f45f90dcdce5dce53cbb275>@@D@Z
   9A0994 ??$_Reallocate_grow_by@V<lambda_e1befb086ad3257e3f042a63030725f7>@@_KD@?$basic_string@DU?$char_traits@D@std@@V?$allocator@D@2@@std@@AEAAAEAV01@_KV<lambda_e1befb086ad3257e3f042a63030725f7>@@_KD@Z
   9A0994 ??$_Refancy@PEAD$0A@@std@@YAPEADPEAD@Z
   9A0994 ??$_Refancy@PEAI$0A@@std@@YAPEAIPEAI@Z
   9A0994 ??$_Refancy@PEAU_Grp_t@?$_Tgt_state_t@PEBD@std@@$0A@@std@@YAPEAU_Grp_t@?$_Tgt_state_t@PEBD@0@PEAU120@@Z
   9A0994 ??$_Regex_match1@PEBDV?$allocator@V?$sub_match@PEBD@std@@@std@@DV?$regex_traits@D@2@PEBD@std@@YA_NPEBD0PEAV?$match_results@PEBDV?$allocator@V?$sub_match@PEBD@std@@@std@@@0@AEBV?$basic_regex@DV?$regex_traits@D@std@@@0@W4match_flag_type@regex_constants@0@_N@Z
   9A0994 ??$_Reset@PEBD@?$basic_regex@DV?$regex_traits@D@std@@@std@@AEAAXPEBD0W4syntax_option_type@regex_constants@1@Uforward_iterator_tag@1@@Z
   9A0994 ??$_Resize@I@?$vector@IV?$allocator@I@std@@@std@@AEAAX_KAEBI@Z
   9A0994 ??$_Resize@U_Value_init_tag@std@@@?$vector@U_Grp_t@?$_Tgt_state_t@PEBD@std@@V?$allocator@U_Grp_t@?$_Tgt_state_t@PEBD@std@@@3@@std@@AEAAX_KAEBU_Value_init_tag@1@@Z
   9A0994 ??$_Resize@U_Value_init_tag@std@@@?$vector@U_Loop_vals_t@std@@V?$allocator@U_Loop_vals_t@std@@@2@@std@@AEAAX_KAEBU_Value_init_tag@1@@Z
   9A0994 ??$_Resize@U_Value_init_tag@std@@@?$vector@V?$sub_match@PEBD@std@@V?$allocator@V?$sub_match@PEBD@std@@@2@@std@@AEAAX_KAEBU_Value_init_tag@1@@Z
   9A0994 ??$_Resize_reallocate@I@?$vector@IV?$allocator@I@std@@@std@@AEAAX_KAEBI@Z
   9A0994 ??$_Resize_reallocate@U_Value_init_tag@std@@@?$vector@U_Grp_t@?$_Tgt_state_t@PEBD@std@@V?$allocator@U_Grp_t@?$_Tgt_state_t@PEBD@std@@@3@@std@@AEAAX_KAEBU_Value_init_tag@1@@Z
   9A0994 ??$_Resize_reallocate@U_Value_init_tag@std@@@?$vector@U_Loop_vals_t@std@@V?$allocator@U_Loop_vals_t@std@@@2@@std@@AEAAX_KAEBU_Value_init_tag@1@@Z
   9A0994 ??$_Resize_reallocate@U_Value_init_tag@std@@@?$vector@V?$sub_match@PEBD@std@@V?$allocator@V?$sub_match@PEBD@std@@@2@@std@@AEAAX_KAEBU_Value_init_tag@1@@Z
   9A0994 ??$_Seek_wrapped@PEBDPEBD@std@@YAXAEAPEBD$$QEAPEBD@Z
   9A0994 ??$_Seek_wrapped@V?$_Vb_iterator@U?$_Wrap_alloc@V?$allocator@I@std@@@std@@@std@@AEAV12@@std@@YAXAEAV?$_Vb_iterator@U?$_Wrap_alloc@V?$allocator@I@std@@@std@@@0@0@Z
   9A0994 ??$_Seek_wrapped@V?$_Vb_iterator@U?$_Wrap_alloc@V?$allocator@I@std@@@std@@@std@@V12@@std@@YAXAEAV?$_Vb_iterator@U?$_Wrap_alloc@V?$allocator@I@std@@@std@@@0@$$QEAV10@@Z
   9A0994 ??$_Swap_adl@PEAV_Node_base@std@@@std@@YAXAEAPEAV_Node_base@0@0@Z
   9A0994 ??$_Traits_equal@U?$char_traits@D@std@@@std@@YA_NQEBD_K01@Z
   9A0994 ??$_Ucopy@PEAD@?$vector@DV?$allocator@D@std@@@std@@AEAAPEADPEAD00@Z
   9A0994 ??$_Ucopy@PEAI@?$vector@IV?$allocator@I@std@@@std@@AEAAPEAIPEAI00@Z
   9A0994 ??$_Ucopy@PEAU_Grp_t@?$_Tgt_state_t@PEBD@std@@@?$vector@U_Grp_t@?$_Tgt_state_t@PEBD@std@@V?$allocator@U_Grp_t@?$_Tgt_state_t@PEBD@std@@@3@@std@@AEAAPEAU_Grp_t@?$_Tgt_state_t@PEBD@1@PEAU231@00@Z
   9A0994 ??$_Ucopy@PEBD@?$vector@DV?$allocator@D@std@@@std@@AEAAPEADPEBD0PEAD@Z
   9A0994 ??$_Unfancy@$$CBD@std@@YAPEBDPEBD@Z
   9A0994 ??$_Unfancy@D@std@@YAPEADPEAD@Z
   9A0994 ??$_Unfancy@I@std@@YAPEAIPEAI@Z
   9A0994 ??$_Unfancy@U_Grp_t@?$_Tgt_state_t@PEBD@std@@@std@@YAPEAU_Grp_t@?$_Tgt_state_t@PEBD@0@PEAU120@@Z
   9A0994 ??$_Unfancy@U_Loop_vals_t@std@@@std@@YAPEAU_Loop_vals_t@0@PEAU10@@Z
   9A0994 ??$_Unfancy@V?$sub_match@PEBD@std@@@std@@YAPEAV?$sub_match@PEBD@0@PEAV10@@Z
   9A0994 ??$_Unfancy_maybe_null@D@std@@YAPEADPEAD@Z
   9A0994 ??$_Unfancy_maybe_null@I@std@@YAPEAIPEAI@Z
   9A0994 ??$_Uninitialized_copy@PEADV?$allocator@D@std@@@std@@YAPEADQEAD0PEADAEAV?$allocator@D@0@@Z
   9A0994 ??$_Uninitialized_copy@PEAIV?$allocator@I@std@@@std@@YAPEAIQEAI0PEAIAEAV?$allocator@I@0@@Z
   9A0994 ??$_Uninitialized_copy@PEAU_Grp_t@?$_Tgt_state_t@PEBD@std@@V?$allocator@U_Grp_t@?$_Tgt_state_t@PEBD@std@@@3@@std@@YAPEAU_Grp_t@?$_Tgt_state_t@PEBD@0@QEAU120@0PEAU120@AEAV?$allocator@U_Grp_t@?$_Tgt_state_t@PEBD@std@@@0@@Z
   9A0994 ??$_Uninitialized_copy@PEBDV?$allocator@D@std@@@std@@YAPEADQEBD0PEADAEAV?$allocator@D@0@@Z
   9A0994 ??$_Uninitialized_fill_n@V?$allocator@I@std@@@std@@YAPEAIPEAI_KAEBIAEAV?$allocator@I@0@@Z
   9A0994 ??$_Uninitialized_move@PEAIV?$allocator@I@std@@@std@@YAPEAIQEAI0PEAIAEAV?$allocator@I@0@@Z
   9A0994 ??$_Uninitialized_move@PEAU_Grp_t@?$_Tgt_state_t@PEBD@std@@V?$allocator@U_Grp_t@?$_Tgt_state_t@PEBD@std@@@3@@std@@YAPEAU_Grp_t@?$_Tgt_state_t@PEBD@0@QEAU120@0PEAU120@AEAV?$allocator@U_Grp_t@?$_Tgt_state_t@PEBD@std@@@0@@Z
   9A0994 ??$_Uninitialized_move@PEAU_Loop_vals_t@std@@V?$allocator@U_Loop_vals_t@std@@@2@@std@@YAPEAU_Loop_vals_t@0@QEAU10@0PEAU10@AEAV?$allocator@U_Loop_vals_t@std@@@0@@Z
   9A0994 ??$_Uninitialized_move@PEAV?$sub_match@PEBD@std@@V?$allocator@V?$sub_match@PEBD@std@@@2@@std@@YAPEAV?$sub_match@PEBD@0@QEAV10@0PEAV10@AEAV?$allocator@V?$sub_match@PEBD@std@@@0@@Z
   9A0994 ??$_Uninitialized_value_construct_n@V?$allocator@U_Grp_t@?$_Tgt_state_t@PEBD@std@@@std@@@std@@YAPEAU_Grp_t@?$_Tgt_state_t@PEBD@0@PEAU120@_KAEAV?$allocator@U_Grp_t@?$_Tgt_state_t@PEBD@std@@@0@@Z
   9A0994 ??$_Uninitialized_value_construct_n@V?$allocator@U_Loop_vals_t@std@@@std@@@std@@YAPEAU_Loop_vals_t@0@PEAU10@_KAEAV?$allocator@U_Loop_vals_t@std@@@0@@Z
   9A0994 ??$_Uninitialized_value_construct_n@V?$allocator@V?$sub_match@PEBD@std@@@std@@@std@@YAPEAV?$sub_match@PEBD@0@PEAV10@_KAEAV?$allocator@V?$sub_match@PEBD@std@@@0@@Z
   9A0994 ??$_Within_limits@E@std@@YA_NAEBEU?$integral_constant@_N$00@0@U?$integral_constant@_N$0A@@0@2@Z
   9A0994 ??$_Within_limits@PEBDE@std@@YA_NPEBDAEBE@Z
   9A0994 ??$addressof@$$CBV?$_String_val@U?$_Simple_types@D@std@@@std@@@std@@YAPEBV?$_String_val@U?$_Simple_types@D@std@@@0@AEBV10@@Z
   9A0994 ??$addressof@$$CBV?$collate@D@std@@@std@@YAPEBV?$collate@D@0@AEBV10@@Z
   9A0994 ??$addressof@$$CBV?$ctype@D@std@@@std@@YAPEBV?$ctype@D@0@AEBV10@@Z
   9A0994 ??$addressof@$$CBV?$vector@IV?$allocator@I@std@@@std@@@std@@YAPEBV?$vector@IV?$allocator@I@std@@@0@AEBV10@@Z
   9A0994 ??$addressof@$$CBV?$vector@U_Grp_t@?$_Tgt_state_t@PEBD@std@@V?$allocator@U_Grp_t@?$_Tgt_state_t@PEBD@std@@@3@@std@@@std@@YAPEBV?$vector@U_Grp_t@?$_Tgt_state_t@PEBD@std@@V?$allocator@U_Grp_t@?$_Tgt_state_t@PEBD@std@@@3@@0@AEBV10@@Z
   9A0994 ??$addressof@$$CBV?$vector@_NV?$allocator@_N@std@@@std@@@std@@YAPEBV?$vector@_NV?$allocator@_N@std@@@0@AEBV10@@Z
   9A0994 ??$addressof@D@std@@YAPEADAEAD@Z
   9A0994 ??$addressof@PEAD@std@@YAPEAPEADAEAPEAD@Z
   9A0994 ??$addressof@PEAU?$_Sequence@D@std@@@std@@YAPEAPEAU?$_Sequence@D@0@AEAPEAU10@@Z
   9A0994 ??$addressof@PEBD@std@@YAPEAPEBDAEAPEBD@Z
   9A0994 ??$addressof@U?$pair@PEAUShaderResource@@PEAUSampler@@@eastl@@@eastl@@YAPEAU?$pair@PEAUShaderResource@@PEAUSampler@@@0@AEAU10@@Z
   9A0994 ??$addressof@U?$pair@QEAUDescriptorInfo@@I@eastl@@@eastl@@YAPEAU?$pair@QEAUDescriptorInfo@@I@0@AEAU10@@Z
   9A0994 ??$addressof@U?$pair@QEBDI@eastl@@@eastl@@YAPEAU?$pair@QEBDI@0@AEAU10@@Z
   9A0994 ??$addressof@U?$pair@QEBDPEAUSampler@@@eastl@@@eastl@@YAPEAU?$pair@QEBDPEAUSampler@@@0@AEAU10@@Z
   9A0994 ??$addressof@U?$pair@UShaderResource@@PEAUDescriptorInfo@@@eastl@@@eastl@@YAPEAU?$pair@UShaderResource@@PEAUDescriptorInfo@@@0@AEAU10@@Z
   9A0994 ??$addressof@UD3D12_SUBRESOURCE_TILING@@@eastl@@YAPEAUD3D12_SUBRESOURCE_TILING@@AEAU1@@Z
   9A0994 ??$addressof@UD3D12_TILED_RESOURCE_COORDINATE@@@eastl@@YAPEAUD3D12_TILED_RESOURCE_COORDINATE@@AEAU1@@Z
   9A0994 ??$addressof@UD3D12_TILE_REGION_SIZE@@@eastl@@YAPEAUD3D12_TILE_REGION_SIZE@@AEAU1@@Z
   9A0994 ??$addressof@UVirtualTexturePage@@@eastl@@YAPEAUVirtualTexturePage@@AEAU1@@Z
   9A0994 ??$addressof@V?$_Builder@PEBDDV?$regex_traits@D@std@@@std@@@std@@YAPEAV?$_Builder@PEBDDV?$regex_traits@D@std@@@0@AEAV10@@Z
   9A0994 ??$addressof@V?$_String_val@U?$_Simple_types@D@std@@@std@@@std@@YAPEAV?$_String_val@U?$_Simple_types@D@std@@@0@AEAV10@@Z
   9A0994 ??$addressof@V?$_Vector_val@U?$_Simple_types@I@std@@@std@@@std@@YAPEAV?$_Vector_val@U?$_Simple_types@I@std@@@0@AEAV10@@Z
   9A0994 ??$addressof@V?$basic_string@DU?$char_traits@D@std@@V?$allocator@D@2@@std@@@std@@YAPEAV?$basic_string@DU?$char_traits@D@std@@V?$allocator@D@2@@0@AEAV10@@Z
   9A0994 ??$addressof@V?$match_results@PEBDV?$allocator@V?$sub_match@PEBD@std@@@std@@@std@@@std@@YAPEAV?$match_results@PEBDV?$allocator@V?$sub_match@PEBD@std@@@std@@@0@AEAV10@@Z
   9A0994 ??$assign@PEAI$0A@@?$vector@IV?$allocator@I@std@@@std@@QEAAXPEAI0@Z
   9A0994 ??$assign@PEAU_Grp_t@?$_Tgt_state_t@PEBD@std@@$0A@@?$vector@U_Grp_t@?$_Tgt_state_t@PEBD@std@@V?$allocator@U_Grp_t@?$_Tgt_state_t@PEBD@std@@@3@@std@@QEAAXPEAU_Grp_t@?$_Tgt_state_t@PEBD@1@0@Z
   9A0994 ??$construct@IAEBI@?$_Default_allocator_traits@V?$allocator@I@std@@@std@@SAXAEAV?$allocator@I@1@QEAIAEBI@Z
   9A0994 ??$construct@U_Grp_t@?$_Tgt_state_t@PEBD@std@@$$V@?$_Default_allocator_traits@V?$allocator@U_Grp_t@?$_Tgt_state_t@PEBD@std@@@std@@@std@@SAXAEAV?$allocator@U_Grp_t@?$_Tgt_state_t@PEBD@std@@@1@QEAU_Grp_t@?$_Tgt_state_t@PEBD@1@@Z
   9A0994 ??$construct@U_Loop_vals_t@std@@$$V@?$_Default_allocator_traits@V?$allocator@U_Loop_vals_t@std@@@std@@@std@@SAXAEAV?$allocator@U_Loop_vals_t@std@@@1@QEAU_Loop_vals_t@1@@Z
   9A0994 ??$construct@V?$sub_match@PEBD@std@@$$V@?$_Default_allocator_traits@V?$allocator@V?$sub_match@PEBD@std@@@std@@@std@@SAXAEAV?$allocator@V?$sub_match@PEBD@std@@@1@QEAV?$sub_match@PEBD@1@@Z
   9A0994 ??$construct@V?$sub_match@PEBD@std@@V12@@?$_Default_allocator_traits@V?$allocator@V?$sub_match@PEBD@std@@@std@@@std@@SAXAEAV?$allocator@V?$sub_match@PEBD@std@@@1@QEAV?$sub_match@PEBD@1@$$QEAV31@@Z
   9A0994 ??$copy@PEAU?$pair@UShaderResource@@PEAUDescriptorInfo@@@eastl@@PEAU12@@eastl@@YAPEAU?$pair@UShaderResource@@PEAUDescriptorInfo@@@0@PEAU10@00@Z
   9A0994 ??$copy@V?$_Vb_iterator@U?$_Wrap_alloc@V?$allocator@I@std@@@std@@@std@@V12@@std@@YA?AV?$_Vb_iterator@U?$_Wrap_alloc@V?$allocator@I@std@@@std@@@0@V10@00@Z
   9A0994 ??$copy@V?$generic_iterator@PEAIX@eastl@@V12@@eastl@@YA?AV?$generic_iterator@PEAIX@0@V10@00@Z
   9A0994 ??$copy@V?$generic_iterator@PEAPEB_WX@eastl@@V12@@eastl@@YA?AV?$generic_iterator@PEAPEB_WX@0@V10@00@Z
   9A0994 ??$copy@V?$generic_iterator@PEAUD3D12_TILED_RESOURCE_COORDINATE@@X@eastl@@V12@@eastl@@YA?AV?$generic_iterator@PEAUD3D12_TILED_RESOURCE_COORDINATE@@X@0@V10@00@Z
   9A0994 ??$copy@V?$generic_iterator@PEAUD3D12_TILE_REGION_SIZE@@X@eastl@@V12@@eastl@@YA?AV?$generic_iterator@PEAUD3D12_TILE_REGION_SIZE@@X@0@V10@00@Z
   9A0994 ??$copy@V?$generic_iterator@PEAUDescriptorHandle@DescriptorHeap@@X@eastl@@V12@@eastl@@YA?AV?$generic_iterator@PEAUDescriptorHandle@DescriptorHeap@@X@0@V10@00@Z
   9A0994 ??$copy@V?$generic_iterator@PEAUShaderResource@@X@eastl@@V12@@eastl@@YA?AV?$generic_iterator@PEAUShaderResource@@X@0@V10@00@Z
   9A0994 ??$copy@V?$generic_iterator@PEAUVirtualTexturePage@@X@eastl@@V12@@eastl@@YA?AV?$generic_iterator@PEAUVirtualTexturePage@@X@0@V10@00@Z
   9A0994 ??$copy@V?$generic_iterator@PEAW4D3D12_TILE_RANGE_FLAGS@@X@eastl@@V12@@eastl@@YA?AV?$generic_iterator@PEAW4D3D12_TILE_RANGE_FLAGS@@X@0@V10@00@Z
   9A0994 ??$copy@V?$generic_iterator@V?$move_iterator@PEAI@eastl@@X@eastl@@V?$generic_iterator@PEAIX@2@@eastl@@YA?AV?$generic_iterator@PEAIX@0@V?$generic_iterator@V?$move_iterator@PEAI@eastl@@X@0@0V10@@Z
   9A0994 ??$copy@V?$generic_iterator@V?$move_iterator@PEAUD3D12_TILED_RESOURCE_COORDINATE@@@eastl@@X@eastl@@V?$generic_iterator@PEAUD3D12_TILED_RESOURCE_COORDINATE@@X@2@@eastl@@YA?AV?$generic_iterator@PEAUD3D12_TILED_RESOURCE_COORDINATE@@X@0@V?$generic_iterator@V?$move_iterator@PEAUD3D12_TILED_RESOURCE_COORDINATE@@@eastl@@X@0@0V10@@Z
   9A0994 ??$copy@V?$generic_iterator@V?$move_iterator@PEAUD3D12_TILE_REGION_SIZE@@@eastl@@X@eastl@@V?$generic_iterator@PEAUD3D12_TILE_REGION_SIZE@@X@2@@eastl@@YA?AV?$generic_iterator@PEAUD3D12_TILE_REGION_SIZE@@X@0@V?$generic_iterator@V?$move_iterator@PEAUD3D12_TILE_REGION_SIZE@@@eastl@@X@0@0V10@@Z
   9A0994 ??$copy@V?$generic_iterator@V?$move_iterator@PEAUVirtualTexturePage@@@eastl@@X@eastl@@V?$generic_iterator@PEAUVirtualTexturePage@@X@2@@eastl@@YA?AV?$generic_iterator@PEAUVirtualTexturePage@@X@0@V?$generic_iterator@V?$move_iterator@PEAUVirtualTexturePage@@@eastl@@X@0@0V10@@Z
   9A0994 ??$copy@V?$generic_iterator@V?$move_iterator@PEAW4D3D12_TILE_RANGE_FLAGS@@@eastl@@X@eastl@@V?$generic_iterator@PEAW4D3D12_TILE_RANGE_FLAGS@@X@2@@eastl@@YA?AV?$generic_iterator@PEAW4D3D12_TILE_RANGE_FLAGS@@X@0@V?$generic_iterator@V?$move_iterator@PEAW4D3D12_TILE_RANGE_FLAGS@@@eastl@@X@0@0V10@@Z
   9A0994 ??$copy_backward@V?$_Vb_iterator@U?$_Wrap_alloc@V?$allocator@I@std@@@std@@@std@@V12@@std@@YA?AV?$_Vb_iterator@U?$_Wrap_alloc@V?$allocator@I@std@@@std@@@0@V10@00@Z
   9A0994 ??$cp_swap@PEAI@eastl@@YAXAEAPEAI0@Z
   9A0994 ??$cp_swap@PEAUD3D12_TILED_RESOURCE_COORDINATE@@@eastl@@YAXAEAPEAUD3D12_TILED_RESOURCE_COORDINATE@@0@Z
   9A0994 ??$cp_swap@PEAUD3D12_TILE_REGION_SIZE@@@eastl@@YAXAEAPEAUD3D12_TILE_REGION_SIZE@@0@Z
   9A0994 ??$cp_swap@PEAUVirtualTexturePage@@@eastl@@YAXAEAPEAUVirtualTexturePage@@0@Z
   9A0994 ??$cp_swap@PEAW4D3D12_TILE_RANGE_FLAGS@@@eastl@@YAXAEAPEAW4D3D12_TILE_RANGE_FLAGS@@0@Z
   9A0994 ??$destruct@PEAI@eastl@@YAXPEAI0@Z
   9A0994 ??$destruct@PEAU?$pair@PEAUShaderResource@@PEAUSampler@@@eastl@@@eastl@@YAXPEAU?$pair@PEAUShaderResource@@PEAUSampler@@@0@0@Z
   9A0994 ??$destruct@PEAU?$pair@UShaderResource@@PEAUDescriptorInfo@@@eastl@@@eastl@@YAXPEAU?$pair@UShaderResource@@PEAUDescriptorInfo@@@0@0@Z
   9A0994 ??$destruct@PEAUD3D12_SUBRESOURCE_TILING@@@eastl@@YAXPEAUD3D12_SUBRESOURCE_TILING@@0@Z
   9A0994 ??$destruct@PEAUD3D12_TILED_RESOURCE_COORDINATE@@@eastl@@YAXPEAUD3D12_TILED_RESOURCE_COORDINATE@@0@Z
   9A0994 ??$destruct@PEAUD3D12_TILE_REGION_SIZE@@@eastl@@YAXPEAUD3D12_TILE_REGION_SIZE@@0@Z
   9A0994 ??$destruct@PEAUDescriptorHandle@DescriptorHeap@@@eastl@@YAXPEAUDescriptorHandle@DescriptorHeap@@0@Z
   9A0994 ??$destruct@PEAUShaderResource@@@eastl@@YAXPEAUShaderResource@@0@Z
   9A0994 ??$destruct@PEAUVirtualTexturePage@@@eastl@@YAXPEAUVirtualTexturePage@@0@Z
   9A0994 ??$destruct@PEAW4D3D12_TILE_RANGE_FLAGS@@@eastl@@YAXPEAW4D3D12_TILE_RANGE_FLAGS@@0@Z
   9A0994 ??$destruct_impl@PEAI@eastl@@YAXPEAI0U?$integral_constant@_N$00@0@@Z
   9A0994 ??$destruct_impl@PEAU?$pair@PEAUShaderResource@@PEAUSampler@@@eastl@@@eastl@@YAXPEAU?$pair@PEAUShaderResource@@PEAUSampler@@@0@0U?$integral_constant@_N$00@0@@Z
   9A0994 ??$destruct_impl@PEAU?$pair@UShaderResource@@PEAUDescriptorInfo@@@eastl@@@eastl@@YAXPEAU?$pair@UShaderResource@@PEAUDescriptorInfo@@@0@0U?$integral_constant@_N$00@0@@Z
   9A0994 ??$destruct_impl@PEAUD3D12_SUBRESOURCE_TILING@@@eastl@@YAXPEAUD3D12_SUBRESOURCE_TILING@@0U?$integral_constant@_N$00@0@@Z
   9A0994 ??$destruct_impl@PEAUD3D12_TILED_RESOURCE_COORDINATE@@@eastl@@YAXPEAUD3D12_TILED_RESOURCE_COORDINATE@@0U?$integral_constant@_N$00@0@@Z
   9A0994 ??$destruct_impl@PEAUD3D12_TILE_REGION_SIZE@@@eastl@@YAXPEAUD3D12_TILE_REGION_SIZE@@0U?$integral_constant@_N$00@0@@Z
   9A0994 ??$destruct_impl@PEAUDescriptorHandle@DescriptorHeap@@@eastl@@YAXPEAUDescriptorHandle@DescriptorHeap@@0U?$integral_constant@_N$00@0@@Z
   9A0994 ??$destruct_impl@PEAUShaderResource@@@eastl@@YAXPEAUShaderResource@@0U?$integral_constant@_N$00@0@@Z
   9A0994 ??$destruct_impl@PEAUVirtualTexturePage@@@eastl@@YAXPEAUVirtualTexturePage@@0U?$integral_constant@_N$00@0@@Z
   9A0994 ??$destruct_impl@PEAW4D3D12_TILE_RANGE_FLAGS@@@eastl@@YAXPEAW4D3D12_TILE_RANGE_FLAGS@@0U?$integral_constant@_N$00@0@@Z
   9A0994 ??$distance@PEAD@std@@YA_JPEAD0@Z
   9A0994 ??$distance@PEAI@std@@YA_JPEAI0@Z
   9A0994 ??$distance@PEAU_Grp_t@?$_Tgt_state_t@PEBD@std@@@std@@YA_JPEAU_Grp_t@?$_Tgt_state_t@PEBD@0@0@Z
   9A0994 ??$distance@PEBD@std@@YA_JPEBD0@Z
   9A0994 ??$distance@V?$move_iterator@PEAI@eastl@@@eastl@@YA_JV?$move_iterator@PEAI@0@0@Z
   9A0994 ??$distance@V?$move_iterator@PEAUD3D12_TILED_RESOURCE_COORDINATE@@@eastl@@@eastl@@YA_JV?$move_iterator@PEAUD3D12_TILED_RESOURCE_COORDINATE@@@0@0@Z
   9A0994 ??$distance@V?$move_iterator@PEAUD3D12_TILE_REGION_SIZE@@@eastl@@@eastl@@YA_JV?$move_iterator@PEAUD3D12_TILE_REGION_SIZE@@@0@0@Z
   9A0994 ??$distance@V?$move_iterator@PEAUVirtualTexturePage@@@eastl@@@eastl@@YA_JV?$move_iterator@PEAUVirtualTexturePage@@@0@0@Z
   9A0994 ??$distance@V?$move_iterator@PEAW4D3D12_TILE_RANGE_FLAGS@@@eastl@@@eastl@@YA_JV?$move_iterator@PEAW4D3D12_TILE_RANGE_FLAGS@@@0@0@Z
   9A0994 ??$distance_impl@V?$move_iterator@PEAI@eastl@@@eastl@@YA_JV?$move_iterator@PEAI@0@0Urandom_access_iterator_tag@0@@Z
   9A0994 ??$distance_impl@V?$move_iterator@PEAUD3D12_TILED_RESOURCE_COORDINATE@@@eastl@@@eastl@@YA_JV?$move_iterator@PEAUD3D12_TILED_RESOURCE_COORDINATE@@@0@0Urandom_access_iterator_tag@0@@Z
   9A0994 ??$distance_impl@V?$move_iterator@PEAUD3D12_TILE_REGION_SIZE@@@eastl@@@eastl@@YA_JV?$move_iterator@PEAUD3D12_TILE_REGION_SIZE@@@0@0Urandom_access_iterator_tag@0@@Z
   9A0994 ??$distance_impl@V?$move_iterator@PEAUVirtualTexturePage@@@eastl@@@eastl@@YA_JV?$move_iterator@PEAUVirtualTexturePage@@@0@0Urandom_access_iterator_tag@0@@Z
   9A0994 ??$distance_impl@V?$move_iterator@PEAW4D3D12_TILE_RANGE_FLAGS@@@eastl@@@eastl@@YA_JV?$move_iterator@PEAW4D3D12_TILE_RANGE_FLAGS@@@0@0Urandom_access_iterator_tag@0@@Z
   9A0994 ??$equal@PEBDPEBDU?$_Cmp_icase@V?$_Regex_traits@D@std@@@std@@@std@@YA_NQEBD000U?$_Cmp_icase@V?$_Regex_traits@D@std@@@0@@Z
   9A0994 ??$equal@PEBDPEBDU?$_Cmp_icase@V?$_Regex_traits@D@std@@@std@@@std@@YA_NQEBD00U?$_Cmp_icase@V?$_Regex_traits@D@std@@@0@@Z
   9A0994 ??$exchange@PEAV_Facet_base@std@@PEAV12@@std@@YAPEAV_Facet_base@0@AEAPEAV10@$$QEAPEAV10@@Z
   9A0994 ??$exchange@PEAV_Node_assert@std@@PEAV12@@std@@YAPEAV_Node_assert@0@AEAPEAV10@$$QEAPEAV10@@Z
   9A0994 ??$fill@V?$_Vb_iterator@U?$_Wrap_alloc@V?$allocator@I@std@@@std@@@std@@_N@std@@YAXV?$_Vb_iterator@U?$_Wrap_alloc@V?$allocator@I@std@@@std@@@0@0AEB_N@Z
   9A0994 ??$find@PEBDE@std@@YAPEBDPEBDQEBDAEBE@Z
   9A0994 ??$forward@AEAPEAUDescriptorInfo@@@eastl@@YAAEAPEAUDescriptorInfo@@AEAPEAU1@@Z
   9A0994 ??$forward@AEAPEAUSampler@@@eastl@@YAAEAPEAUSampler@@AEAPEAU1@@Z
   9A0994 ??$forward@AEAPEAUShaderResource@@@eastl@@YAAEAPEAUShaderResource@@AEAPEAU1@@Z
   9A0994 ??$forward@AEAPEAV_Facet_base@std@@@std@@YAAEAPEAV_Facet_base@0@AEAPEAV10@@Z
   9A0994 ??$forward@AEAPEAV_Node_assert@std@@@std@@YAAEAPEAV_Node_assert@0@AEAPEAV10@@Z
   9A0994 ??$forward@AEAUShaderResource@@@eastl@@YAAEAUShaderResource@@AEAU1@@Z
   9A0994 ??$forward@AEBI@eastl@@YAAEBIAEBI@Z
   9A0994 ??$forward@AEBI@std@@YAAEBIAEBI@Z
   9A0994 ??$forward@AEBQEAD@std@@YAAEBQEADAEBQEAD@Z
   9A0994 ??$forward@AEBQEAUSampler@@@eastl@@YAAEBQEAUSampler@@AEBQEAU1@@Z
   9A0994 ??$forward@AEBQEB_W@eastl@@YAAEBQEB_WAEBQEB_W@Z
   9A0994 ??$forward@AEBUD3D12_TILED_RESOURCE_COORDINATE@@@eastl@@YAAEBUD3D12_TILED_RESOURCE_COORDINATE@@AEBU1@@Z
   9A0994 ??$forward@AEBUD3D12_TILE_REGION_SIZE@@@eastl@@YAAEBUD3D12_TILE_REGION_SIZE@@AEBU1@@Z
   9A0994 ??$forward@AEBUShaderResource@@@eastl@@YAAEBUShaderResource@@AEBU1@@Z
   9A0994 ??$forward@AEBUVirtualTexturePage@@@eastl@@YAAEBUVirtualTexturePage@@AEBU1@@Z
   9A0994 ??$forward@AEBV?$allocator@D@std@@@std@@YAAEBV?$allocator@D@0@AEBV10@@Z
   9A0994 ??$forward@AEBV?$allocator@I@std@@@std@@YAAEBV?$allocator@I@0@AEBV10@@Z
   9A0994 ??$forward@AEBW4D3D12_TILE_RANGE_FLAGS@@@eastl@@YAAEBW4D3D12_TILE_RANGE_FLAGS@@AEBW41@@Z
   9A0994 ??$forward@H@std@@YA$$QEAHAEAH@Z
   9A0994 ??$forward@PEAD@eastl@@YA$$QEAPEADAEAPEAD@Z
   9A0994 ??$forward@PEAUSampler@@@eastl@@YA$$QEAPEAUSampler@@AEAPEAU1@@Z
   9A0994 ??$forward@PEAVAllocatorPimpl@D3D12MA@@@std@@YA$$QEAPEAVAllocatorPimpl@D3D12MA@@AEAPEAV12@@Z
   9A0994 ??$forward@PEAV_Node_assert@std@@@std@@YA$$QEAPEAV_Node_assert@0@AEAPEAV10@@Z
   9A0994 ??$forward@U?$default_delete@V_Node_assert@std@@@std@@@std@@YA$$QEAU?$default_delete@V_Node_assert@std@@@0@AEAU10@@Z
   9A0994 ??$forward@U?$hashtable_iterator@U?$pair@QEAUDescriptorInfo@@I@eastl@@$0A@$0A@@eastl@@@eastl@@YA$$QEAU?$hashtable_iterator@U?$pair@QEAUDescriptorInfo@@I@eastl@@$0A@$0A@@0@AEAU10@@Z
   9A0994 ??$forward@U?$hashtable_iterator@U?$pair@QEBDI@eastl@@$0A@$0A@@eastl@@@eastl@@YA$$QEAU?$hashtable_iterator@U?$pair@QEBDI@eastl@@$0A@$0A@@0@AEAU10@@Z
   9A0994 ??$forward@U?$hashtable_iterator@U?$pair@QEBDPEAUSampler@@@eastl@@$0A@$0A@@eastl@@@eastl@@YA$$QEAU?$hashtable_iterator@U?$pair@QEBDPEAUSampler@@@eastl@@$0A@$0A@@0@AEAU10@@Z
   9A0994 ??$forward@U?$pair@PEAUShaderResource@@PEAUSampler@@@eastl@@@eastl@@YA$$QEAU?$pair@PEAUShaderResource@@PEAUSampler@@@0@AEAU10@@Z
   9A0994 ??$forward@U?$pair@UShaderResource@@PEAUDescriptorInfo@@@eastl@@@eastl@@YA$$QEAU?$pair@UShaderResource@@PEAUDescriptorInfo@@@0@AEAU10@@Z
   9A0994 ??$forward@UDescriptorHandle@DescriptorHeap@@@eastl@@YA$$QEAUDescriptorHandle@DescriptorHeap@@AEAU12@@Z
   9A0994 ??$forward@V?$allocator@D@std@@@std@@YA$$QEAV?$allocator@D@0@AEAV10@@Z
   9A0994 ??$forward@V?$allocator@I@std@@@std@@YA$$QEAV?$allocator@I@0@AEAV10@@Z
   9A0994 ??$forward@V?$allocator@U_Grp_t@?$_Tgt_state_t@PEBD@std@@@std@@@std@@YA$$QEAV?$allocator@U_Grp_t@?$_Tgt_state_t@PEBD@std@@@0@AEAV10@@Z
   9A0994 ??$forward@V?$sub_match@PEBD@std@@@std@@YA$$QEAV?$sub_match@PEBD@0@AEAV10@@Z
   9A0994 ??$forward@W4_Node_type@std@@@std@@YA$$QEAW4_Node_type@0@AEAW410@@Z
   9A0994 ??$forward@_K@std@@YA$$QEA_KAEA_K@Z
   9A0994 ??$forward@_N@eastl@@YA$$QEA_NAEA_N@Z
   9A0994 ??$log2@I$0A@@@YANI@Z
   9A0994 ??$lookup_classname@PEBD@?$_Regex_traits@D@std@@QEBAFPEBD0_N@Z
   9A0994 ??$make_pair@PEADAEBI@eastl@@YA?AU?$pair@PEADI@0@$$QEAPEADAEBI@Z
   9A0994 ??$make_pair@PEADAEBQEAUSampler@@@eastl@@YA?AU?$pair@PEADPEAUSampler@@@0@$$QEAPEADAEBQEAUSampler@@@Z
   9A0994 ??$make_unique@V_Node_assert@std@@W4_Node_type@2@$0A@@std@@YA?AV?$unique_ptr@V_Node_assert@std@@U?$default_delete@V_Node_assert@std@@@2@@0@$$QEAW4_Node_type@0@@Z
   9A0994 ??$max@_K@std@@YAAEB_KAEB_K0@Z
   9A0994 ??$min@I@Vectormath@@YAIAEBI0@Z
   9A0994 ??$min@_K@std@@YAAEB_KAEB_K0@Z
   9A0994 ??$move@AEAI@eastl@@YA$$QEAIAEAI@Z
   9A0994 ??$move@AEAI@std@@YA$$QEAIAEAI@Z
   9A0994 ??$move@AEAPEAI@eastl@@YA$$QEAPEAIAEAPEAI@Z
   9A0994 ??$move@AEAPEAUD3D12_TILED_RESOURCE_COORDINATE@@@eastl@@YA$$QEAPEAUD3D12_TILED_RESOURCE_COORDINATE@@AEAPEAU1@@Z
   9A0994 ??$move@AEAPEAUD3D12_TILE_REGION_SIZE@@@eastl@@YA$$QEAPEAUD3D12_TILE_REGION_SIZE@@AEAPEAU1@@Z
   9A0994 ??$move@AEAPEAUVirtualTexturePage@@@eastl@@YA$$QEAPEAUVirtualTexturePage@@AEAPEAU1@@Z
   9A0994 ??$move@AEAPEAV_Node_base@std@@@std@@YA$$QEAPEAV_Node_base@0@AEAPEAV10@@Z
   9A0994 ??$move@AEAPEAW4D3D12_TILE_RANGE_FLAGS@@@eastl@@YA$$QEAPEAW4D3D12_TILE_RANGE_FLAGS@@AEAPEAW41@@Z
   9A0994 ??$move@AEAU?$pair@PEAUShaderResource@@PEAUSampler@@@eastl@@@eastl@@YA$$QEAU?$pair@PEAUShaderResource@@PEAUSampler@@@0@AEAU10@@Z
   9A0994 ??$move@AEAU?$pair@QEBDI@eastl@@@eastl@@YA$$QEAU?$pair@QEBDI@0@AEAU10@@Z
   9A0994 ??$move@AEAU?$pair@QEBDPEAUSampler@@@eastl@@@eastl@@YA$$QEAU?$pair@QEBDPEAUSampler@@@0@AEAU10@@Z
   9A0994 ??$move@AEAU?$pair@UShaderResource@@PEAUDescriptorInfo@@@eastl@@@eastl@@YA$$QEAU?$pair@UShaderResource@@PEAUDescriptorInfo@@@0@AEAU10@@Z
   9A0994 ??$move@AEAUDescriptorHandle@DescriptorHeap@@@eastl@@YA$$QEAUDescriptorHandle@DescriptorHeap@@AEAU12@@Z
   9A0994 ??$move@AEAV?$allocator@D@std@@@std@@YA$$QEAV?$allocator@D@0@AEAV10@@Z
   9A0994 ??$move@AEAV?$sub_match@PEBD@std@@@std@@YA$$QEAV?$sub_match@PEBD@0@AEAV10@@Z
   9A0994 ??$move@AEBQEBD@eastl@@YA$$QEBQEBDAEBQEBD@Z
   9A0994 ??$move_and_copy_chooser@$0A@PEAIPEAI@eastl@@YAPEAIPEAI00@Z
   9A0994 ??$move_and_copy_chooser@$0A@PEAPEB_WPEAPEB_W@eastl@@YAPEAPEB_WPEAPEB_W00@Z
   9A0994 ??$move_and_copy_chooser@$0A@PEAU?$pair@UShaderResource@@PEAUDescriptorInfo@@@eastl@@PEAU12@@eastl@@YAPEAU?$pair@UShaderResource@@PEAUDescriptorInfo@@@0@PEAU10@00@Z
   9A0994 ??$move_and_copy_chooser@$0A@PEAUD3D12_TILED_RESOURCE_COORDINATE@@PEAU1@@eastl@@YAPEAUD3D12_TILED_RESOURCE_COORDINATE@@PEAU1@00@Z
   9A0994 ??$move_and_copy_chooser@$0A@PEAUD3D12_TILE_REGION_SIZE@@PEAU1@@eastl@@YAPEAUD3D12_TILE_REGION_SIZE@@PEAU1@00@Z
   9A0994 ??$move_and_copy_chooser@$0A@PEAUDescriptorHandle@DescriptorHeap@@PEAU12@@eastl@@YAPEAUDescriptorHandle@DescriptorHeap@@PEAU12@00@Z
   9A0994 ??$move_and_copy_chooser@$0A@PEAUShaderResource@@PEAU1@@eastl@@YAPEAUShaderResource@@PEAU1@00@Z
   9A0994 ??$move_and_copy_chooser@$0A@PEAUVirtualTexturePage@@PEAU1@@eastl@@YAPEAUVirtualTexturePage@@PEAU1@00@Z
   9A0994 ??$move_and_copy_chooser@$0A@PEAW4D3D12_TILE_RANGE_FLAGS@@PEAW41@@eastl@@YAPEAW4D3D12_TILE_RANGE_FLAGS@@PEAW41@00@Z
   9A0994 ??$move_and_copy_unwrapper@$0A@PEAIV?$generic_iterator@PEAIX@eastl@@@eastl@@YA?AV?$generic_iterator@PEAIX@0@PEAI0V10@@Z
   9A0994 ??$move_and_copy_unwrapper@$0A@PEAPEB_WV?$generic_iterator@PEAPEB_WX@eastl@@@eastl@@YA?AV?$generic_iterator@PEAPEB_WX@0@PEAPEB_W0V10@@Z
   9A0994 ??$move_and_copy_unwrapper@$0A@PEAU?$pair@UShaderResource@@PEAUDescriptorInfo@@@eastl@@PEAU12@@eastl@@YAPEAU?$pair@UShaderResource@@PEAUDescriptorInfo@@@0@PEAU10@00@Z
   9A0994 ??$move_and_copy_unwrapper@$0A@PEAUD3D12_TILED_RESOURCE_COORDINATE@@V?$generic_iterator@PEAUD3D12_TILED_RESOURCE_COORDINATE@@X@eastl@@@eastl@@YA?AV?$generic_iterator@PEAUD3D12_TILED_RESOURCE_COORDINATE@@X@0@PEAUD3D12_TILED_RESOURCE_COORDINATE@@0V10@@Z
   9A0994 ??$move_and_copy_unwrapper@$0A@PEAUD3D12_TILE_REGION_SIZE@@V?$generic_iterator@PEAUD3D12_TILE_REGION_SIZE@@X@eastl@@@eastl@@YA?AV?$generic_iterator@PEAUD3D12_TILE_REGION_SIZE@@X@0@PEAUD3D12_TILE_REGION_SIZE@@0V10@@Z
   9A0994 ??$move_and_copy_unwrapper@$0A@PEAUDescriptorHandle@DescriptorHeap@@V?$generic_iterator@PEAUDescriptorHandle@DescriptorHeap@@X@eastl@@@eastl@@YA?AV?$generic_iterator@PEAUDescriptorHandle@DescriptorHeap@@X@0@PEAUDescriptorHandle@DescriptorHeap@@0V10@@Z
   9A0994 ??$move_and_copy_unwrapper@$0A@PEAUShaderResource@@V?$generic_iterator@PEAUShaderResource@@X@eastl@@@eastl@@YA?AV?$generic_iterator@PEAUShaderResource@@X@0@PEAUShaderResource@@0V10@@Z
   9A0994 ??$move_and_copy_unwrapper@$0A@PEAUVirtualTexturePage@@V?$generic_iterator@PEAUVirtualTexturePage@@X@eastl@@@eastl@@YA?AV?$generic_iterator@PEAUVirtualTexturePage@@X@0@PEAUVirtualTexturePage@@0V10@@Z
   9A0994 ??$move_and_copy_unwrapper@$0A@PEAW4D3D12_TILE_RANGE_FLAGS@@V?$generic_iterator@PEAW4D3D12_TILE_RANGE_FLAGS@@X@eastl@@@eastl@@YA?AV?$generic_iterator@PEAW4D3D12_TILE_RANGE_FLAGS@@X@0@PEAW4D3D12_TILE_RANGE_FLAGS@@0V10@@Z
   9A0994 ??$move_and_copy_unwrapper@$0A@V?$move_iterator@PEAI@eastl@@V?$generic_iterator@PEAIX@2@@eastl@@YA?AV?$generic_iterator@PEAIX@0@V?$move_iterator@PEAI@0@0V10@@Z
   9A0994 ??$move_and_copy_unwrapper@$0A@V?$move_iterator@PEAUD3D12_TILED_RESOURCE_COORDINATE@@@eastl@@V?$generic_iterator@PEAUD3D12_TILED_RESOURCE_COORDINATE@@X@2@@eastl@@YA?AV?$generic_iterator@PEAUD3D12_TILED_RESOURCE_COORDINATE@@X@0@V?$move_iterator@PEAUD3D12_TILED_RESOURCE_COORDINATE@@@0@0V10@@Z
   9A0994 ??$move_and_copy_unwrapper@$0A@V?$move_iterator@PEAUD3D12_TILE_REGION_SIZE@@@eastl@@V?$generic_iterator@PEAUD3D12_TILE_REGION_SIZE@@X@2@@eastl@@YA?AV?$generic_iterator@PEAUD3D12_TILE_REGION_SIZE@@X@0@V?$move_iterator@PEAUD3D12_TILE_REGION_SIZE@@@0@0V10@@Z
   9A0994 ??$move_and_copy_unwrapper@$0A@V?$move_iterator@PEAUVirtualTexturePage@@@eastl@@V?$generic_iterator@PEAUVirtualTexturePage@@X@2@@eastl@@YA?AV?$generic_iterator@PEAUVirtualTexturePage@@X@0@V?$move_iterator@PEAUVirtualTexturePage@@@0@0V10@@Z
   9A0994 ??$move_and_copy_unwrapper@$0A@V?$move_iterator@PEAW4D3D12_TILE_RANGE_FLAGS@@@eastl@@V?$generic_iterator@PEAW4D3D12_TILE_RANGE_FLAGS@@X@2@@eastl@@YA?AV?$generic_iterator@PEAW4D3D12_TILE_RANGE_FLAGS@@X@0@V?$move_iterator@PEAW4D3D12_TILE_RANGE_FLAGS@@@0@0V10@@Z
   9A0994 ??$move_or_copy@I@?$move_and_copy_helper@Urandom_access_iterator_tag@eastl@@$0A@$00@eastl@@SAPEAIPEBI0PEAI@Z
   9A0994 ??$move_or_copy@PEAU?$pair@UShaderResource@@PEAUDescriptorInfo@@@eastl@@PEAU12@@?$move_and_copy_helper@Urandom_access_iterator_tag@eastl@@$0A@$0A@@eastl@@SAPEAU?$pair@UShaderResource@@PEAUDescriptorInfo@@@1@PEAU21@00@Z
   9A0994 ??$move_or_copy@PEB_W@?$move_and_copy_helper@Urandom_access_iterator_tag@eastl@@$0A@$00@eastl@@SAPEAPEB_WPEBQEB_W0PEAPEB_W@Z
   9A0994 ??$move_or_copy@UD3D12_TILED_RESOURCE_COORDINATE@@@?$move_and_copy_helper@Urandom_access_iterator_tag@eastl@@$0A@$00@eastl@@SAPEAUD3D12_TILED_RESOURCE_COORDINATE@@PEBU2@0PEAU2@@Z
   9A0994 ??$move_or_copy@UD3D12_TILE_REGION_SIZE@@@?$move_and_copy_helper@Urandom_access_iterator_tag@eastl@@$0A@$00@eastl@@SAPEAUD3D12_TILE_REGION_SIZE@@PEBU2@0PEAU2@@Z
   9A0994 ??$move_or_copy@UDescriptorHandle@DescriptorHeap@@@?$move_and_copy_helper@Urandom_access_iterator_tag@eastl@@$0A@$00@eastl@@SAPEAUDescriptorHandle@DescriptorHeap@@PEBU23@0PEAU23@@Z
   9A0994 ??$move_or_copy@UShaderResource@@@?$move_and_copy_helper@Urandom_access_iterator_tag@eastl@@$0A@$00@eastl@@SAPEAUShaderResource@@PEBU2@0PEAU2@@Z
   9A0994 ??$move_or_copy@UVirtualTexturePage@@@?$move_and_copy_helper@Urandom_access_iterator_tag@eastl@@$0A@$00@eastl@@SAPEAUVirtualTexturePage@@PEBU2@0PEAU2@@Z
   9A0994 ??$move_or_copy@W4D3D12_TILE_RANGE_FLAGS@@@?$move_and_copy_helper@Urandom_access_iterator_tag@eastl@@$0A@$00@eastl@@SAPEAW4D3D12_TILE_RANGE_FLAGS@@PEBW42@0PEAW42@@Z
   9A0994 ??$pow@HI$0A@@@YANHI@Z
   9A0994 ??$regex_match@DV?$allocator@V?$sub_match@PEBD@std@@@std@@V?$regex_traits@D@2@@std@@YA_NPEBDAEAV?$match_results@PEBDV?$allocator@V?$sub_match@PEBD@std@@@std@@@0@AEBV?$basic_regex@DV?$regex_traits@D@std@@@0@W4match_flag_type@regex_constants@0@@Z
   9A0994 ??$strcpy_s@$0IA@@@YAHAEAY0IA@DPEBD@Z
   9A0994 ??$strncpy_s@$0IA@@@YAHAEAY0IA@DPEBD_K@Z
   9A0994 ??$swap@PEAI@eastl@@YAXAEAPEAI0@Z
   9A0994 ??$swap@PEAIVallocator_forge@eastl@@@eastl@@YAXAEAV?$compressed_pair@PEAIVallocator_forge@eastl@@@0@0@Z
   9A0994 ??$swap@PEAUD3D12_TILED_RESOURCE_COORDINATE@@@eastl@@YAXAEAPEAUD3D12_TILED_RESOURCE_COORDINATE@@0@Z
   9A0994 ??$swap@PEAUD3D12_TILED_RESOURCE_COORDINATE@@Vallocator_forge@eastl@@@eastl@@YAXAEAV?$compressed_pair@PEAUD3D12_TILED_RESOURCE_COORDINATE@@Vallocator_forge@eastl@@@0@0@Z
   9A0994 ??$swap@PEAUD3D12_TILE_REGION_SIZE@@@eastl@@YAXAEAPEAUD3D12_TILE_REGION_SIZE@@0@Z
   9A0994 ??$swap@PEAUD3D12_TILE_REGION_SIZE@@Vallocator_forge@eastl@@@eastl@@YAXAEAV?$compressed_pair@PEAUD3D12_TILE_REGION_SIZE@@Vallocator_forge@eastl@@@0@0@Z
   9A0994 ??$swap@PEAUVirtualTexturePage@@@eastl@@YAXAEAPEAUVirtualTexturePage@@0@Z
   9A0994 ??$swap@PEAUVirtualTexturePage@@Vallocator_forge@eastl@@@eastl@@YAXAEAV?$compressed_pair@PEAUVirtualTexturePage@@Vallocator_forge@eastl@@@0@0@Z
   9A0994 ??$swap@PEAV_Node_base@std@@$0A@@std@@YAXAEAPEAV_Node_base@0@0@Z
   9A0994 ??$swap@PEAW4D3D12_TILE_RANGE_FLAGS@@@eastl@@YAXAEAPEAW4D3D12_TILE_RANGE_FLAGS@@0@Z
   9A0994 ??$swap@PEAW4D3D12_TILE_RANGE_FLAGS@@Vallocator_forge@eastl@@@eastl@@YAXAEAV?$compressed_pair@PEAW4D3D12_TILE_RANGE_FLAGS@@Vallocator_forge@eastl@@@0@0@Z
   9A0994 ??$transform_primary@PEAD@?$_Regex_traits@D@std@@QEBA?AV?$basic_string@DU?$char_traits@D@std@@V?$allocator@D@2@@1@PEAD0@Z
   9A0994 ??$transform_primary@PEBD@?$_Regex_traits@D@std@@QEBA?AV?$basic_string@DU?$char_traits@D@std@@V?$allocator@D@2@@1@PEBD0@Z
   9A0994 ??$transform_primary@V?$_String_iterator@V?$_String_val@U?$_Simple_types@D@std@@@std@@@std@@@?$_Regex_traits@D@std@@QEBA?AV?$basic_string@DU?$char_traits@D@std@@V?$allocator@D@2@@1@V?$_String_iterator@V?$_String_val@U?$_Simple_types@D@std@@@std@@@1@0@Z
   9A0994 ??$uninitialized_copy_impl@V?$generic_iterator@V?$move_iterator@PEAI@eastl@@X@eastl@@V?$generic_iterator@PEAIX@2@@Internal@eastl@@YA?AV?$generic_iterator@PEAIX@1@V?$generic_iterator@V?$move_iterator@PEAI@eastl@@X@1@0V21@U?$integral_constant@_N$00@1@@Z
   9A0994 ??$uninitialized_copy_impl@V?$generic_iterator@V?$move_iterator@PEAUD3D12_TILED_RESOURCE_COORDINATE@@@eastl@@X@eastl@@V?$generic_iterator@PEAUD3D12_TILED_RESOURCE_COORDINATE@@X@2@@Internal@eastl@@YA?AV?$generic_iterator@PEAUD3D12_TILED_RESOURCE_COORDINATE@@X@1@V?$generic_iterator@V?$move_iterator@PEAUD3D12_TILED_RESOURCE_COORDINATE@@@eastl@@X@1@0V21@U?$integral_constant@_N$00@1@@Z
   9A0994 ??$uninitialized_copy_impl@V?$generic_iterator@V?$move_iterator@PEAUD3D12_TILE_REGION_SIZE@@@eastl@@X@eastl@@V?$generic_iterator@PEAUD3D12_TILE_REGION_SIZE@@X@2@@Internal@eastl@@YA?AV?$generic_iterator@PEAUD3D12_TILE_REGION_SIZE@@X@1@V?$generic_iterator@V?$move_iterator@PEAUD3D12_TILE_REGION_SIZE@@@eastl@@X@1@0V21@U?$integral_constant@_N$00@1@@Z
   9A0994 ??$uninitialized_copy_impl@V?$generic_iterator@V?$move_iterator@PEAUVirtualTexturePage@@@eastl@@X@eastl@@V?$generic_iterator@PEAUVirtualTexturePage@@X@2@@Internal@eastl@@YA?AV?$generic_iterator@PEAUVirtualTexturePage@@X@1@V?$generic_iterator@V?$move_iterator@PEAUVirtualTexturePage@@@eastl@@X@1@0V21@U?$integral_constant@_N$00@1@@Z
   9A0994 ??$uninitialized_copy_impl@V?$generic_iterator@V?$move_iterator@PEAW4D3D12_TILE_RANGE_FLAGS@@@eastl@@X@eastl@@V?$generic_iterator@PEAW4D3D12_TILE_RANGE_FLAGS@@X@2@@Internal@eastl@@YA?AV?$generic_iterator@PEAW4D3D12_TILE_RANGE_FLAGS@@X@1@V?$generic_iterator@V?$move_iterator@PEAW4D3D12_TILE_RANGE_FLAGS@@@eastl@@X@1@0V21@U?$integral_constant@_N$00@1@@Z
   9A0994 ??$uninitialized_copy_ptr@V?$move_iterator@PEAI@eastl@@V12@PEAI@eastl@@YAPEAIV?$move_iterator@PEAI@0@0PEAI@Z
   9A0994 ??$uninitialized_copy_ptr@V?$move_iterator@PEAUD3D12_TILED_RESOURCE_COORDINATE@@@eastl@@V12@PEAUD3D12_TILED_RESOURCE_COORDINATE@@@eastl@@YAPEAUD3D12_TILED_RESOURCE_COORDINATE@@V?$move_iterator@PEAUD3D12_TILED_RESOURCE_COORDINATE@@@0@0PEAU1@@Z
   9A0994 ??$uninitialized_copy_ptr@V?$move_iterator@PEAUD3D12_TILE_REGION_SIZE@@@eastl@@V12@PEAUD3D12_TILE_REGION_SIZE@@@eastl@@YAPEAUD3D12_TILE_REGION_SIZE@@V?$move_iterator@PEAUD3D12_TILE_REGION_SIZE@@@0@0PEAU1@@Z
   9A0994 ??$uninitialized_copy_ptr@V?$move_iterator@PEAUVirtualTexturePage@@@eastl@@V12@PEAUVirtualTexturePage@@@eastl@@YAPEAUVirtualTexturePage@@V?$move_iterator@PEAUVirtualTexturePage@@@0@0PEAU1@@Z
   9A0994 ??$uninitialized_copy_ptr@V?$move_iterator@PEAW4D3D12_TILE_RANGE_FLAGS@@@eastl@@V12@PEAW4D3D12_TILE_RANGE_FLAGS@@@eastl@@YAPEAW4D3D12_TILE_RANGE_FLAGS@@V?$move_iterator@PEAW4D3D12_TILE_RANGE_FLAGS@@@0@0PEAW41@@Z
   9A0994 ??$uninitialized_default_fill_n@PEAI_K@eastl@@YAXPEAI_K@Z
   9A0994 ??$uninitialized_default_fill_n@PEAUD3D12_SUBRESOURCE_TILING@@_K@eastl@@YAXPEAUD3D12_SUBRESOURCE_TILING@@_K@Z
   9A0994 ??$uninitialized_default_fill_n@PEAUD3D12_TILED_RESOURCE_COORDINATE@@_K@eastl@@YAXPEAUD3D12_TILED_RESOURCE_COORDINATE@@_K@Z
   9A0994 ??$uninitialized_default_fill_n@PEAUD3D12_TILE_REGION_SIZE@@_K@eastl@@YAXPEAUD3D12_TILE_REGION_SIZE@@_K@Z
   9A0994 ??$uninitialized_default_fill_n@PEAUVirtualTexturePage@@_K@eastl@@YAXPEAUVirtualTexturePage@@_K@Z
   9A0994 ??$uninitialized_default_fill_n@PEAW4D3D12_TILE_RANGE_FLAGS@@_K@eastl@@YAXPEAW4D3D12_TILE_RANGE_FLAGS@@_K@Z
   9A0994 ??$uninitialized_default_fill_n_impl@PEAI_K@Internal@eastl@@YAXPEAI_KU?$integral_constant@_N$00@1@@Z
   9A0994 ??$uninitialized_default_fill_n_impl@PEAUD3D12_SUBRESOURCE_TILING@@_K@Internal@eastl@@YAXPEAUD3D12_SUBRESOURCE_TILING@@_KU?$integral_constant@_N$0A@@1@@Z
   9A0994 ??$uninitialized_default_fill_n_impl@PEAUD3D12_TILED_RESOURCE_COORDINATE@@_K@Internal@eastl@@YAXPEAUD3D12_TILED_RESOURCE_COORDINATE@@_KU?$integral_constant@_N$0A@@1@@Z
   9A0994 ??$uninitialized_default_fill_n_impl@PEAUD3D12_TILE_REGION_SIZE@@_K@Internal@eastl@@YAXPEAUD3D12_TILE_REGION_SIZE@@_KU?$integral_constant@_N$0A@@1@@Z
   9A0994 ??$uninitialized_default_fill_n_impl@PEAUVirtualTexturePage@@_K@Internal@eastl@@YAXPEAUVirtualTexturePage@@_KU?$integral_constant@_N$0A@@1@@Z
   9A0994 ??$uninitialized_default_fill_n_impl@PEAW4D3D12_TILE_RANGE_FLAGS@@_K@Internal@eastl@@YAXPEAW4D3D12_TILE_RANGE_FLAGS@@_KU?$integral_constant@_N$00@1@@Z
   9A0994 ??$uninitialized_fill@PEAU?$pair@UShaderResource@@PEAUDescriptorInfo@@@eastl@@U12@@eastl@@YAXPEAU?$pair@UShaderResource@@PEAUDescriptorInfo@@@0@0AEBU10@@Z
   9A0994 ??$uninitialized_fill_impl@PEAU?$pair@UShaderResource@@PEAUDescriptorInfo@@@eastl@@U12@@Internal@eastl@@YAXPEAU?$pair@UShaderResource@@PEAUDescriptorInfo@@@1@0AEBU21@U?$integral_constant@_N$0A@@1@@Z
   9A0994 ??$uninitialized_move_impl@V?$generic_iterator@PEAIX@eastl@@V12@@Internal@eastl@@YA?AV?$generic_iterator@PEAIX@1@V21@00U?$integral_constant@_N$00@1@@Z
   9A0994 ??$uninitialized_move_impl@V?$generic_iterator@PEAPEB_WX@eastl@@V12@@Internal@eastl@@YA?AV?$generic_iterator@PEAPEB_WX@1@V21@00U?$integral_constant@_N$00@1@@Z
   9A0994 ??$uninitialized_move_impl@V?$generic_iterator@PEAU?$pair@PEAUShaderResource@@PEAUSampler@@@eastl@@X@eastl@@V12@@Internal@eastl@@YA?AV?$generic_iterator@PEAU?$pair@PEAUShaderResource@@PEAUSampler@@@eastl@@X@1@V21@00U?$integral_constant@_N$0A@@1@@Z
   9A0994 ??$uninitialized_move_impl@V?$generic_iterator@PEAU?$pair@UShaderResource@@PEAUDescriptorInfo@@@eastl@@X@eastl@@V12@@Internal@eastl@@YA?AV?$generic_iterator@PEAU?$pair@UShaderResource@@PEAUDescriptorInfo@@@eastl@@X@1@V21@00U?$integral_constant@_N$0A@@1@@Z
   9A0994 ??$uninitialized_move_impl@V?$generic_iterator@PEAUD3D12_TILED_RESOURCE_COORDINATE@@X@eastl@@V12@@Internal@eastl@@YA?AV?$generic_iterator@PEAUD3D12_TILED_RESOURCE_COORDINATE@@X@1@V21@00U?$integral_constant@_N$00@1@@Z
   9A0994 ??$uninitialized_move_impl@V?$generic_iterator@PEAUD3D12_TILE_REGION_SIZE@@X@eastl@@V12@@Internal@eastl@@YA?AV?$generic_iterator@PEAUD3D12_TILE_REGION_SIZE@@X@1@V21@00U?$integral_constant@_N$00@1@@Z
   9A0994 ??$uninitialized_move_impl@V?$generic_iterator@PEAUDescriptorHandle@DescriptorHeap@@X@eastl@@V12@@Internal@eastl@@YA?AV?$generic_iterator@PEAUDescriptorHandle@DescriptorHeap@@X@1@V21@00U?$integral_constant@_N$00@1@@Z
   9A0994 ??$uninitialized_move_impl@V?$generic_iterator@PEAUShaderResource@@X@eastl@@V12@@Internal@eastl@@YA?AV?$generic_iterator@PEAUShaderResource@@X@1@V21@00U?$integral_constant@_N$00@1@@Z
   9A0994 ??$uninitialized_move_impl@V?$generic_iterator@PEAUVirtualTexturePage@@X@eastl@@V12@@Internal@eastl@@YA?AV?$generic_iterator@PEAUVirtualTexturePage@@X@1@V21@00U?$integral_constant@_N$00@1@@Z
   9A0994 ??$uninitialized_move_impl@V?$generic_iterator@PEAW4D3D12_TILE_RANGE_FLAGS@@X@eastl@@V12@@Internal@eastl@@YA?AV?$generic_iterator@PEAW4D3D12_TILE_RANGE_FLAGS@@X@1@V21@00U?$integral_constant@_N$00@1@@Z
   9A0994 ??$uninitialized_move_ptr@PEAIPEAIPEAI@eastl@@YAPEAIPEAI00@Z
   9A0994 ??$uninitialized_move_ptr@PEAPEB_WPEAPEB_WPEAPEB_W@eastl@@YAPEAPEB_WPEAPEB_W00@Z
   9A0994 ??$uninitialized_move_ptr@PEAU?$pair@PEAUShaderResource@@PEAUSampler@@@eastl@@PEAU12@PEAU12@@eastl@@YAPEAU?$pair@PEAUShaderResource@@PEAUSampler@@@0@PEAU10@00@Z
   9A0994 ??$uninitialized_move_ptr@PEAU?$pair@UShaderResource@@PEAUDescriptorInfo@@@eastl@@PEAU12@PEAU12@@eastl@@YAPEAU?$pair@UShaderResource@@PEAUDescriptorInfo@@@0@PEAU10@00@Z
   9A0994 ??$uninitialized_move_ptr@PEAUD3D12_TILED_RESOURCE_COORDINATE@@PEAU1@PEAU1@@eastl@@YAPEAUD3D12_TILED_RESOURCE_COORDINATE@@PEAU1@00@Z
   9A0994 ??$uninitialized_move_ptr@PEAUD3D12_TILE_REGION_SIZE@@PEAU1@PEAU1@@eastl@@YAPEAUD3D12_TILE_REGION_SIZE@@PEAU1@00@Z
   9A0994 ??$uninitialized_move_ptr@PEAUDescriptorHandle@DescriptorHeap@@PEAU12@PEAU12@@eastl@@YAPEAUDescriptorHandle@DescriptorHeap@@PEAU12@00@Z
   9A0994 ??$uninitialized_move_ptr@PEAUShaderResource@@PEAU1@PEAU1@@eastl@@YAPEAUShaderResource@@PEAU1@00@Z
   9A0994 ??$uninitialized_move_ptr@PEAUVirtualTexturePage@@PEAU1@PEAU1@@eastl@@YAPEAUVirtualTexturePage@@PEAU1@00@Z
   9A0994 ??$uninitialized_move_ptr@PEAW4D3D12_TILE_RANGE_FLAGS@@PEAW41@PEAW41@@eastl@@YAPEAW4D3D12_TILE_RANGE_FLAGS@@PEAW41@00@Z
   9A0994 ??$uninitialized_move_ptr_if_noexcept@PEAIPEAIPEAI@eastl@@YAPEAIPEAI00@Z
   9A0994 ??$uninitialized_move_ptr_if_noexcept@PEAPEB_WPEAPEB_WPEAPEB_W@eastl@@YAPEAPEB_WPEAPEB_W00@Z
   9A0994 ??$uninitialized_move_ptr_if_noexcept@PEAU?$pair@PEAUShaderResource@@PEAUSampler@@@eastl@@PEAU12@PEAU12@@eastl@@YAPEAU?$pair@PEAUShaderResource@@PEAUSampler@@@0@PEAU10@00@Z
   9A0994 ??$uninitialized_move_ptr_if_noexcept@PEAU?$pair@UShaderResource@@PEAUDescriptorInfo@@@eastl@@PEAU12@PEAU12@@eastl@@YAPEAU?$pair@UShaderResource@@PEAUDescriptorInfo@@@0@PEAU10@00@Z
   9A0994 ??$uninitialized_move_ptr_if_noexcept@PEAUD3D12_TILED_RESOURCE_COORDINATE@@PEAU1@PEAU1@@eastl@@YAPEAUD3D12_TILED_RESOURCE_COORDINATE@@PEAU1@00@Z
   9A0994 ??$uninitialized_move_ptr_if_noexcept@PEAUD3D12_TILE_REGION_SIZE@@PEAU1@PEAU1@@eastl@@YAPEAUD3D12_TILE_REGION_SIZE@@PEAU1@00@Z
   9A0994 ??$uninitialized_move_ptr_if_noexcept@PEAUDescriptorHandle@DescriptorHeap@@PEAU12@PEAU12@@eastl@@YAPEAUDescriptorHandle@DescriptorHeap@@PEAU12@00@Z
   9A0994 ??$uninitialized_move_ptr_if_noexcept@PEAUShaderResource@@PEAU1@PEAU1@@eastl@@YAPEAUShaderResource@@PEAU1@00@Z
   9A0994 ??$uninitialized_move_ptr_if_noexcept@PEAUVirtualTexturePage@@PEAU1@PEAU1@@eastl@@YAPEAUVirtualTexturePage@@PEAU1@00@Z
   9A0994 ??$uninitialized_move_ptr_if_noexcept@PEAW4D3D12_TILE_RANGE_FLAGS@@PEAW41@PEAW41@@eastl@@YAPEAW4D3D12_TILE_RANGE_FLAGS@@PEAW41@00@Z
   9A0994 ??$unwrap_iterator@PEAI@eastl@@YAPEAIPEAI@Z
   9A0994 ??$unwrap_iterator@PEAPEB_W@eastl@@YAPEAPEB_WPEAPEB_W@Z
   9A0994 ??$unwrap_iterator@PEAU?$pair@UShaderResource@@PEAUDescriptorInfo@@@eastl@@@eastl@@YAPEAU?$pair@UShaderResource@@PEAUDescriptorInfo@@@0@PEAU10@@Z
   9A0994 ??$unwrap_iterator@PEAUD3D12_TILED_RESOURCE_COORDINATE@@@eastl@@YAPEAUD3D12_TILED_RESOURCE_COORDINATE@@PEAU1@@Z
   9A0994 ??$unwrap_iterator@PEAUD3D12_TILE_REGION_SIZE@@@eastl@@YAPEAUD3D12_TILE_REGION_SIZE@@PEAU1@@Z
   9A0994 ??$unwrap_iterator@PEAUDescriptorHandle@DescriptorHeap@@@eastl@@YAPEAUDescriptorHandle@DescriptorHeap@@PEAU12@@Z
   9A0994 ??$unwrap_iterator@PEAUShaderResource@@@eastl@@YAPEAUShaderResource@@PEAU1@@Z
   9A0994 ??$unwrap_iterator@PEAUVirtualTexturePage@@@eastl@@YAPEAUVirtualTexturePage@@PEAU1@@Z
   9A0994 ??$unwrap_iterator@PEAW4D3D12_TILE_RANGE_FLAGS@@@eastl@@YAPEAW4D3D12_TILE_RANGE_FLAGS@@PEAW41@@Z
   9A0994 ??$unwrap_iterator@V?$generic_iterator@PEAIX@eastl@@@eastl@@YAPEAIV?$generic_iterator@PEAIX@0@@Z
   9A0994 ??$unwrap_iterator@V?$generic_iterator@PEAPEB_WX@eastl@@@eastl@@YAPEAPEB_WV?$generic_iterator@PEAPEB_WX@0@@Z
   9A0994 ??$unwrap_iterator@V?$generic_iterator@PEAUD3D12_TILED_RESOURCE_COORDINATE@@X@eastl@@@eastl@@YAPEAUD3D12_TILED_RESOURCE_COORDINATE@@V?$generic_iterator@PEAUD3D12_TILED_RESOURCE_COORDINATE@@X@0@@Z
   9A0994 ??$unwrap_iterator@V?$generic_iterator@PEAUD3D12_TILE_REGION_SIZE@@X@eastl@@@eastl@@YAPEAUD3D12_TILE_REGION_SIZE@@V?$generic_iterator@PEAUD3D12_TILE_REGION_SIZE@@X@0@@Z
   9A0994 ??$unwrap_iterator@V?$generic_iterator@PEAUDescriptorHandle@DescriptorHeap@@X@eastl@@@eastl@@YAPEAUDescriptorHandle@DescriptorHeap@@V?$generic_iterator@PEAUDescriptorHandle@DescriptorHeap@@X@0@@Z
   9A0994 ??$unwrap_iterator@V?$generic_iterator@PEAUShaderResource@@X@eastl@@@eastl@@YAPEAUShaderResource@@V?$generic_iterator@PEAUShaderResource@@X@0@@Z
   9A0994 ??$unwrap_iterator@V?$generic_iterator@PEAUVirtualTexturePage@@X@eastl@@@eastl@@YAPEAUVirtualTexturePage@@V?$generic_iterator@PEAUVirtualTexturePage@@X@0@@Z
   9A0994 ??$unwrap_iterator@V?$generic_iterator@PEAW4D3D12_TILE_RANGE_FLAGS@@X@eastl@@@eastl@@YAPEAW4D3D12_TILE_RANGE_FLAGS@@V?$generic_iterator@PEAW4D3D12_TILE_RANGE_FLAGS@@X@0@@Z
   9A0994 ??$unwrap_iterator@V?$generic_iterator@V?$move_iterator@PEAI@eastl@@X@eastl@@@eastl@@YA?AV?$move_iterator@PEAI@0@V?$generic_iterator@V?$move_iterator@PEAI@eastl@@X@0@@Z
   9A0994 ??$unwrap_iterator@V?$generic_iterator@V?$move_iterator@PEAUD3D12_TILED_RESOURCE_COORDINATE@@@eastl@@X@eastl@@@eastl@@YA?AV?$move_iterator@PEAUD3D12_TILED_RESOURCE_COORDINATE@@@0@V?$generic_iterator@V?$move_iterator@PEAUD3D12_TILED_RESOURCE_COORDINATE@@@eastl@@X@0@@Z
   9A0994 ??$unwrap_iterator@V?$generic_iterator@V?$move_iterator@PEAUD3D12_TILE_REGION_SIZE@@@eastl@@X@eastl@@@eastl@@YA?AV?$move_iterator@PEAUD3D12_TILE_REGION_SIZE@@@0@V?$generic_iterator@V?$move_iterator@PEAUD3D12_TILE_REGION_SIZE@@@eastl@@X@0@@Z
   9A0994 ??$unwrap_iterator@V?$generic_iterator@V?$move_iterator@PEAUVirtualTexturePage@@@eastl@@X@eastl@@@eastl@@YA?AV?$move_iterator@PEAUVirtualTexturePage@@@0@V?$generic_iterator@V?$move_iterator@PEAUVirtualTexturePage@@@eastl@@X@0@@Z
   9A0994 ??$unwrap_iterator@V?$generic_iterator@V?$move_iterator@PEAW4D3D12_TILE_RANGE_FLAGS@@@eastl@@X@eastl@@@eastl@@YA?AV?$move_iterator@PEAW4D3D12_TILE_RANGE_FLAGS@@@0@V?$generic_iterator@V?$move_iterator@PEAW4D3D12_TILE_RANGE_FLAGS@@@eastl@@X@0@@Z
   9A0994 ??$unwrap_iterator@V?$move_iterator@PEAI@eastl@@@eastl@@YAPEAIV?$move_iterator@PEAI@0@@Z
   9A0994 ??$unwrap_iterator@V?$move_iterator@PEAUD3D12_TILED_RESOURCE_COORDINATE@@@eastl@@@eastl@@YAPEAUD3D12_TILED_RESOURCE_COORDINATE@@V?$move_iterator@PEAUD3D12_TILED_RESOURCE_COORDINATE@@@0@@Z
   9A0994 ??$unwrap_iterator@V?$move_iterator@PEAUD3D12_TILE_REGION_SIZE@@@eastl@@@eastl@@YAPEAUD3D12_TILE_REGION_SIZE@@V?$move_iterator@PEAUD3D12_TILE_REGION_SIZE@@@0@@Z
   9A0994 ??$unwrap_iterator@V?$move_iterator@PEAUVirtualTexturePage@@@eastl@@@eastl@@YAPEAUVirtualTexturePage@@V?$move_iterator@PEAUVirtualTexturePage@@@0@@Z
   9A0994 ??$unwrap_iterator@V?$move_iterator@PEAW4D3D12_TILE_RANGE_FLAGS@@@eastl@@@eastl@@YAPEAW4D3D12_TILE_RANGE_FLAGS@@V?$move_iterator@PEAW4D3D12_TILE_RANGE_FLAGS@@@0@@Z
   9A0994 ??$use_facet@V?$collate@D@std@@@std@@YAAEBV?$collate@D@0@AEBVlocale@0@@Z
   9A0994 ??$use_facet@V?$ctype@D@std@@@std@@YAAEBV?$ctype@D@0@AEBVlocale@0@@Z
   9A0994 ??0?$List@USuballocation@D3D12MA@@@D3D12MA@@QEAA@AEBUALLOCATION_CALLBACKS@1@@Z
   9A0994 ??0?$PoolAllocator@UItem@?$List@USuballocation@D3D12MA@@@D3D12MA@@@D3D12MA@@QEAA@AEBUALLOCATION_CALLBACKS@1@I@Z
   9A0994 ??0?$PoolAllocator@VAllocation@D3D12MA@@@D3D12MA@@QEAA@AEBUALLOCATION_CALLBACKS@1@I@Z
   9A0994 ??0?$Vector@PEAVAllocation@D3D12MA@@@D3D12MA@@QEAA@AEBUALLOCATION_CALLBACKS@1@@Z
   9A0994 ??0?$Vector@PEAVNormalBlock@D3D12MA@@@D3D12MA@@QEAA@AEBUALLOCATION_CALLBACKS@1@@Z
   9A0994 ??0?$Vector@PEAVPool@D3D12MA@@@D3D12MA@@QEAA@AEBUALLOCATION_CALLBACKS@1@@Z
   9A0994 ??0?$Vector@UItemBlock@?$PoolAllocator@UItem@?$List@USuballocation@D3D12MA@@@D3D12MA@@@D3D12MA@@@D3D12MA@@QEAA@AEBUALLOCATION_CALLBACKS@1@@Z
   9A0994 ??0?$Vector@UItemBlock@?$PoolAllocator@VAllocation@D3D12MA@@@D3D12MA@@@D3D12MA@@QEAA@AEBUALLOCATION_CALLBACKS@1@@Z
   9A0994 ??0?$Vector@UStackItem@JsonWriter@D3D12MA@@@D3D12MA@@QEAA@AEBUALLOCATION_CALLBACKS@1@@Z
   9A0994 ??0?$Vector@Viterator@?$List@USuballocation@D3D12MA@@@D3D12MA@@@D3D12MA@@QEAA@AEBUALLOCATION_CALLBACKS@1@@Z
   9A0994 ??0?$Vector@_W@D3D12MA@@QEAA@AEBUALLOCATION_CALLBACKS@1@@Z
   9A0994 ??0?$VectorBase@IVallocator_forge@eastl@@@eastl@@QEAA@AEBVallocator_forge@1@@Z
   9A0994 ??0?$VectorBase@IVallocator_forge@eastl@@@eastl@@QEAA@XZ
   9A0994 ??0?$VectorBase@PEB_WVallocator_forge@eastl@@@eastl@@QEAA@XZ
   9A0994 ??0?$VectorBase@U?$pair@PEAUShaderResource@@PEAUSampler@@@eastl@@Vallocator_forge@2@@eastl@@QEAA@XZ
   9A0994 ??0?$VectorBase@U?$pair@UShaderResource@@PEAUDescriptorInfo@@@eastl@@Vallocator_forge@2@@eastl@@QEAA@XZ
   9A0994 ??0?$VectorBase@UD3D12_SUBRESOURCE_TILING@@Vallocator_forge@eastl@@@eastl@@QEAA@_KAEBVallocator_forge@1@@Z
   9A0994 ??0?$VectorBase@UD3D12_TILED_RESOURCE_COORDINATE@@Vallocator_forge@eastl@@@eastl@@QEAA@AEBVallocator_forge@1@@Z
   9A0994 ??0?$VectorBase@UD3D12_TILE_REGION_SIZE@@Vallocator_forge@eastl@@@eastl@@QEAA@AEBVallocator_forge@1@@Z
   9A0994 ??0?$VectorBase@UD3D12_TILE_REGION_SIZE@@Vallocator_forge@eastl@@@eastl@@QEAA@XZ
   9A0994 ??0?$VectorBase@UShaderResource@@Vallocator_forge@eastl@@@eastl@@QEAA@XZ
   9A0994 ??0?$VectorBase@UVirtualTexturePage@@Vallocator_forge@eastl@@@eastl@@QEAA@AEBVallocator_forge@1@@Z
   9A0994 ??0?$VectorBase@W4D3D12_TILE_RANGE_FLAGS@@Vallocator_forge@eastl@@@eastl@@QEAA@AEBVallocator_forge@1@@Z
   9A0994 ??0?$VectorBase@W4D3D12_TILE_RANGE_FLAGS@@Vallocator_forge@eastl@@@eastl@@QEAA@XZ
   9A0994 ??0?$_Atomic_integral@I$03@std@@QEAA@I@Z
   9A0994 ??0?$_Atomic_integral_facade@I@std@@QEAA@I@Z
   9A0994 ??0?$_Atomic_storage@I$03@std@@QEAA@I@Z
   9A0994 ??0?$_Bt_state_t@PEBD@std@@QEAA@AEBV01@@Z
   9A0994 ??0?$_Bt_state_t@PEBD@std@@QEAA@XZ
   9A0994 ??0?$_Buf@D@std@@QEAA@XZ
   9A0994 ??0?$_Builder@PEBDDV?$regex_traits@D@std@@@std@@QEAA@AEBV?$regex_traits@D@1@W4syntax_option_type@regex_constants@1@@Z
   9A0994 ??0?$_Cmp_collate@V?$regex_traits@D@std@@@std@@QEAA@AEBV?$regex_traits@D@1@@Z
   9A0994 ??0?$_Cmp_icase@V?$_Regex_traits@D@std@@@std@@QEAA@AEBV?$_Regex_traits@D@1@@Z
   9A0994 ??0?$_Cmp_icase@V?$regex_traits@D@std@@@std@@QEAA@AEBV?$regex_traits@D@1@@Z
   9A0994 ??0?$_Matcher@PEBDDV?$regex_traits@D@std@@PEBD@std@@QEAA@PEBD0AEBV?$regex_traits@D@1@PEAV_Root_node@1@IW4syntax_option_type@regex_constants@1@W4match_flag_type@51@@Z
   9A0994 ??0?$_Node_class@DV?$regex_traits@D@std@@@std@@QEAA@W4_Node_type@1@W4_Node_flags@1@@Z
   9A0994 ??0?$_Node_str@D@std@@QEAA@W4_Node_flags@1@@Z
   9A0994 ??0?$_Parser@PEBDDV?$regex_traits@D@std@@@std@@QEAA@AEBV?$regex_traits@D@1@PEBD1W4syntax_option_type@regex_constants@1@@Z
   9A0994 ??0?$_Regex_traits@D@std@@QEAA@XZ
   9A0994 ??0?$_Sequence@D@std@@QEAA@I@Z
   9A0994 ??0?$_String_const_iterator@V?$_String_val@U?$_Simple_types@D@std@@@std@@@std@@QEAA@PEBDPEBU_Container_base0@1@@Z
   9A0994 ??0?$_String_iterator@V?$_String_val@U?$_Simple_types@D@std@@@std@@@std@@QEAA@PEBDPEBU_Container_base0@1@@Z
   9A0994 ??0?$_String_val@U?$_Simple_types@D@std@@@std@@QEAA@XZ
   9A0994 ??0?$_Tgt_state_t@PEBD@std@@QEAA@AEBV01@@Z
   9A0994 ??0?$_Tgt_state_t@PEBD@std@@QEAA@XZ
   9A0994 ??0?$_Uninitialized_backout_al@V?$allocator@I@std@@@std@@QEAA@PEAIAEAV?$allocator@I@1@@Z
   9A0994 ??0?$_Uninitialized_backout_al@V?$allocator@U_Grp_t@?$_Tgt_state_t@PEBD@std@@@std@@@std@@QEAA@PEAU_Grp_t@?$_Tgt_state_t@PEBD@1@AEAV?$allocator@U_Grp_t@?$_Tgt_state_t@PEBD@std@@@1@@Z
   9A0994 ??0?$_Uninitialized_backout_al@V?$allocator@U_Loop_vals_t@std@@@std@@@std@@QEAA@PEAU_Loop_vals_t@1@AEAV?$allocator@U_Loop_vals_t@std@@@1@@Z
   9A0994 ??0?$_Uninitialized_backout_al@V?$allocator@V?$sub_match@PEBD@std@@@std@@@std@@QEAA@PEAV?$sub_match@PEBD@1@AEAV?$allocator@V?$sub_match@PEBD@std@@@1@@Z
   9A0994 ??0?$_Vb_const_iterator@U?$_Wrap_alloc@V?$allocator@I@std@@@std@@@std@@QEAA@PEBIPEBU_Container_base0@1@@Z
   9A0994 ??0?$_Vb_iter_base@U?$_Wrap_alloc@V?$allocator@I@std@@@std@@@std@@QEAA@PEBI_KPEBU_Container_base0@1@@Z
   9A0994 ??0?$_Vb_iterator@U?$_Wrap_alloc@V?$allocator@I@std@@@std@@@std@@QEAA@PEBIPEBU_Container_base0@1@@Z
   9A0994 ??0?$_Vb_reference@U?$_Wrap_alloc@V?$allocator@I@std@@@std@@@std@@QEAA@AEBV?$_Vb_iter_base@U?$_Wrap_alloc@V?$allocator@I@std@@@std@@@1@@Z
   9A0994 ??0?$_Vb_val@V?$allocator@_N@std@@@std@@QEAA@AEBV01@@Z
   9A0994 ??0?$_Vb_val@V?$allocator@_N@std@@@std@@QEAA@XZ
   9A0994 ??0?$_Vb_val@V?$allocator@_N@std@@@std@@QEAA@_KAEB_NAEBV?$allocator@_N@1@@Z
   9A0994 ??0?$_Vector_const_iterator@V?$_Vector_val@U?$_Simple_types@I@std@@@std@@@std@@QEAA@PEAIPEBU_Container_base0@1@@Z
   9A0994 ??0?$_Vector_iterator@V?$_Vector_val@U?$_Simple_types@I@std@@@std@@@std@@QEAA@PEAIPEBU_Container_base0@1@@Z
   9A0994 ??0?$_Vector_val@U?$_Simple_types@D@std@@@std@@QEAA@XZ
   9A0994 ??0?$_Vector_val@U?$_Simple_types@U_Grp_t@?$_Tgt_state_t@PEBD@std@@@std@@@std@@QEAA@XZ
   9A0994 ??0?$_Vector_val@U?$_Simple_types@U_Loop_vals_t@std@@@std@@@std@@QEAA@XZ
   9A0994 ??0?$_Vector_val@U?$_Simple_types@V?$sub_match@PEBD@std@@@std@@@std@@QEAA@XZ
   9A0994 ??0?$allocator@D@std@@QEAA@XZ
   9A0994 ??0?$allocator@U_Grp_t@?$_Tgt_state_t@PEBD@std@@@std@@QEAA@XZ
   9A0994 ??0?$allocator@U_Loop_vals_t@std@@@std@@QEAA@XZ
   9A0994 ??0?$allocator@V?$sub_match@PEBD@std@@@std@@QEAA@XZ
   9A0994 ??0?$allocator@_N@std@@QEAA@XZ
   9A0994 ??0?$atomic@I@std@@QEAA@I@Z
   9A0994 ??0?$atomic@I@std@@QEAA@XZ
   9A0994 ??0?$atomic@_K@std@@QEAA@XZ
   9A0994 ??0?$basic_regex@DV?$regex_traits@D@std@@@std@@QEAA@PEBDW4syntax_option_type@regex_constants@1@@Z
   9A0994 ??0?$basic_string@DU?$char_traits@D@std@@V?$allocator@D@2@@std@@QEAA@$$QEAV01@@Z
   9A0994 ??0?$basic_string@DU?$char_traits@D@std@@V?$allocator@D@2@@std@@QEAA@QEBD@Z
   9A0994 ??0?$basic_string@DU?$char_traits@D@std@@V?$allocator@D@2@@std@@QEAA@XZ
   9A0994 ??0?$collate@D@std@@QEAA@AEBV_Locinfo@1@_K@Z
   9A0994 ??0?$compressed_pair@PEAIVallocator_forge@eastl@@@eastl@@QEAA@QEAIAEBVallocator_forge@1@@Z
   9A0994 ??0?$compressed_pair@PEAPEB_WVallocator_forge@eastl@@@eastl@@QEAA@QEAPEB_WAEBVallocator_forge@1@@Z
   9A0994 ??0?$compressed_pair@PEAU?$pair@PEAUShaderResource@@PEAUSampler@@@eastl@@Vallocator_forge@2@@eastl@@QEAA@QEAU?$pair@PEAUShaderResource@@PEAUSampler@@@1@AEBVallocator_forge@1@@Z
   9A0994 ??0?$compressed_pair@PEAU?$pair@UShaderResource@@PEAUDescriptorInfo@@@eastl@@Vallocator_forge@2@@eastl@@QEAA@QEAU?$pair@UShaderResource@@PEAUDescriptorInfo@@@1@AEBVallocator_forge@1@@Z
   9A0994 ??0?$compressed_pair@PEAUD3D12_SUBRESOURCE_TILING@@Vallocator_forge@eastl@@@eastl@@QEAA@AEBVallocator_forge@1@@Z
   9A0994 ??0?$compressed_pair@PEAUD3D12_TILED_RESOURCE_COORDINATE@@Vallocator_forge@eastl@@@eastl@@QEAA@QEAUD3D12_TILED_RESOURCE_COORDINATE@@AEBVallocator_forge@1@@Z
   9A0994 ??0?$compressed_pair@PEAUD3D12_TILE_REGION_SIZE@@Vallocator_forge@eastl@@@eastl@@QEAA@QEAUD3D12_TILE_REGION_SIZE@@AEBVallocator_forge@1@@Z
   9A0994 ??0?$compressed_pair@PEAUShaderResource@@Vallocator_forge@eastl@@@eastl@@QEAA@QEAUShaderResource@@AEBVallocator_forge@1@@Z
   9A0994 ??0?$compressed_pair@PEAUVirtualTexturePage@@Vallocator_forge@eastl@@@eastl@@QEAA@QEAUVirtualTexturePage@@AEBVallocator_forge@1@@Z
   9A0994 ??0?$compressed_pair@PEAW4D3D12_TILE_RANGE_FLAGS@@Vallocator_forge@eastl@@@eastl@@QEAA@QEAW4D3D12_TILE_RANGE_FLAGS@@AEBVallocator_forge@1@@Z
   9A0994 ??0?$compressed_pair_imp@PEAIVallocator_forge@eastl@@$01@eastl@@QEAA@QEAIAEBVallocator_forge@1@@Z
   9A0994 ??0?$compressed_pair_imp@PEAPEB_WVallocator_forge@eastl@@$01@eastl@@QEAA@QEAPEB_WAEBVallocator_forge@1@@Z
   9A0994 ??0?$compressed_pair_imp@PEAU?$pair@PEAUShaderResource@@PEAUSampler@@@eastl@@Vallocator_forge@2@$01@eastl@@QEAA@QEAU?$pair@PEAUShaderResource@@PEAUSampler@@@1@AEBVallocator_forge@1@@Z
   9A0994 ??0?$compressed_pair_imp@PEAU?$pair@UShaderResource@@PEAUDescriptorInfo@@@eastl@@Vallocator_forge@2@$01@eastl@@QEAA@QEAU?$pair@UShaderResource@@PEAUDescriptorInfo@@@1@AEBVallocator_forge@1@@Z
   9A0994 ??0?$compressed_pair_imp@PEAUD3D12_SUBRESOURCE_TILING@@Vallocator_forge@eastl@@$01@eastl@@QEAA@AEBVallocator_forge@1@@Z
   9A0994 ??0?$compressed_pair_imp@PEAUD3D12_TILED_RESOURCE_COORDINATE@@Vallocator_forge@eastl@@$01@eastl@@QEAA@QEAUD3D12_TILED_RESOURCE_COORDINATE@@AEBVallocator_forge@1@@Z
   9A0994 ??0?$compressed_pair_imp@PEAUD3D12_TILE_REGION_SIZE@@Vallocator_forge@eastl@@$01@eastl@@QEAA@QEAUD3D12_TILE_REGION_SIZE@@AEBVallocator_forge@1@@Z
   9A0994 ??0?$compressed_pair_imp@PEAUShaderResource@@Vallocator_forge@eastl@@$01@eastl@@QEAA@QEAUShaderResource@@AEBVallocator_forge@1@@Z
   9A0994 ??0?$compressed_pair_imp@PEAUVirtualTexturePage@@Vallocator_forge@eastl@@$01@eastl@@QEAA@QEAUVirtualTexturePage@@AEBVallocator_forge@1@@Z
   9A0994 ??0?$compressed_pair_imp@PEAW4D3D12_TILE_RANGE_FLAGS@@Vallocator_forge@eastl@@$01@eastl@@QEAA@QEAW4D3D12_TILE_RANGE_FLAGS@@AEBVallocator_forge@1@@Z
   9A0994 ??0?$generic_iterator@PEAIX@eastl@@QEAA@AEBQEAI@Z
   9A0994 ??0?$generic_iterator@PEAPEB_WX@eastl@@QEAA@AEBQEAPEB_W@Z
   9A0994 ??0?$generic_iterator@PEAU?$pair@PEAUShaderResource@@PEAUSampler@@@eastl@@X@eastl@@QEAA@AEBQEAU?$pair@PEAUShaderResource@@PEAUSampler@@@1@@Z
   9A0994 ??0?$generic_iterator@PEAU?$pair@UShaderResource@@PEAUDescriptorInfo@@@eastl@@X@eastl@@QEAA@AEBQEAU?$pair@UShaderResource@@PEAUDescriptorInfo@@@1@@Z
   9A0994 ??0?$generic_iterator@PEAUD3D12_TILED_RESOURCE_COORDINATE@@X@eastl@@QEAA@AEBQEAUD3D12_TILED_RESOURCE_COORDINATE@@@Z
   9A0994 ??0?$generic_iterator@PEAUD3D12_TILE_REGION_SIZE@@X@eastl@@QEAA@AEBQEAUD3D12_TILE_REGION_SIZE@@@Z
   9A0994 ??0?$generic_iterator@PEAUDescriptorHandle@DescriptorHeap@@X@eastl@@QEAA@AEBQEAUDescriptorHandle@DescriptorHeap@@@Z
   9A0994 ??0?$generic_iterator@PEAUShaderResource@@X@eastl@@QEAA@AEBQEAUShaderResource@@@Z
   9A0994 ??0?$generic_iterator@PEAUVirtualTexturePage@@X@eastl@@QEAA@AEBQEAUVirtualTexturePage@@@Z
   9A0994 ??0?$generic_iterator@PEAW4D3D12_TILE_RANGE_FLAGS@@X@eastl@@QEAA@AEBQEAW4D3D12_TILE_RANGE_FLAGS@@@Z
   9A0994 ??0?$generic_iterator@V?$move_iterator@PEAI@eastl@@X@eastl@@QEAA@AEBV?$move_iterator@PEAI@1@@Z
   9A0994 ??0?$generic_iterator@V?$move_iterator@PEAUD3D12_TILED_RESOURCE_COORDINATE@@@eastl@@X@eastl@@QEAA@AEBV?$move_iterator@PEAUD3D12_TILED_RESOURCE_COORDINATE@@@1@@Z
   9A0994 ??0?$generic_iterator@V?$move_iterator@PEAUD3D12_TILE_REGION_SIZE@@@eastl@@X@eastl@@QEAA@AEBV?$move_iterator@PEAUD3D12_TILE_REGION_SIZE@@@1@@Z
   9A0994 ??0?$generic_iterator@V?$move_iterator@PEAUVirtualTexturePage@@@eastl@@X@eastl@@QEAA@AEBV?$move_iterator@PEAUVirtualTexturePage@@@1@@Z
   9A0994 ??0?$generic_iterator@V?$move_iterator@PEAW4D3D12_TILE_RANGE_FLAGS@@@eastl@@X@eastl@@QEAA@AEBV?$move_iterator@PEAW4D3D12_TILE_RANGE_FLAGS@@@1@@Z
   9A0994 ??0?$hash_code_base@PEAUDescriptorInfo@@U?$pair@QEAUDescriptorInfo@@I@eastl@@U?$use_first@U?$pair@QEAUDescriptorInfo@@I@eastl@@@3@U?$equal_to@PEAUDescriptorInfo@@@3@U?$hash@PEAUDescriptorInfo@@@3@Umod_range_hashing@3@Udefault_ranged_hash@3@$0A@@eastl@@IEAA@AEBU?$use_first@U?$pair@QEAUDescriptorInfo@@I@eastl@@@1@AEBU?$equal_to@PEAUDescriptorInfo@@@1@AEBU?$hash@PEAUDescriptorInfo@@@1@AEBUmod_range_hashing@1@AEBUdefault_ranged_hash@1@@Z
   9A0994 ??0?$hash_code_base@PEBDU?$pair@QEBDI@eastl@@U?$use_first@U?$pair@QEBDI@eastl@@@2@U?$str_equal_to@PEBD@2@U?$hash@PEBD@2@Umod_range_hashing@2@Udefault_ranged_hash@2@$0A@@eastl@@IEAA@AEBU?$use_first@U?$pair@QEBDI@eastl@@@1@AEBU?$str_equal_to@PEBD@1@AEBU?$hash@PEBD@1@AEBUmod_range_hashing@1@AEBUdefault_ranged_hash@1@@Z
   9A0994 ??0?$hash_code_base@PEBDU?$pair@QEBDPEAUSampler@@@eastl@@U?$use_first@U?$pair@QEBDPEAUSampler@@@eastl@@@2@U?$str_equal_to@PEBD@2@U?$hash@PEBD@2@Umod_range_hashing@2@Udefault_ranged_hash@2@$0A@@eastl@@IEAA@AEBU?$use_first@U?$pair@QEBDPEAUSampler@@@eastl@@@1@AEBU?$str_equal_to@PEBD@1@AEBU?$hash@PEBD@1@AEBUmod_range_hashing@1@AEBUdefault_ranged_hash@1@@Z
   9A0994 ??0?$hash_map@PEAUDescriptorInfo@@IU?$hash@PEAUDescriptorInfo@@@eastl@@U?$equal_to@PEAUDescriptorInfo@@@3@Vallocator_forge@3@$0A@@eastl@@QEAA@AEBVallocator_forge@1@@Z
   9A0994 ??0?$hash_map@PEBDIU?$hash@PEBD@eastl@@U?$str_equal_to@PEBD@2@Vallocator_forge@2@$0A@@eastl@@QEAA@AEBVallocator_forge@1@@Z
   9A0994 ??0?$hash_map@PEBDPEAUSampler@@U?$hash@PEBD@eastl@@U?$str_equal_to@PEBD@3@Vallocator_forge@3@$0A@@eastl@@QEAA@AEBVallocator_forge@1@@Z
   9A0994 ??0?$hashtable@PEAUDescriptorInfo@@U?$pair@QEAUDescriptorInfo@@I@eastl@@Vallocator_forge@3@U?$use_first@U?$pair@QEAUDescriptorInfo@@I@eastl@@@3@U?$equal_to@PEAUDescriptorInfo@@@3@U?$hash@PEAUDescriptorInfo@@@3@Umod_range_hashing@3@Udefault_ranged_hash@3@Uprime_rehash_policy@3@$0A@$00$00@eastl@@QEAA@_KAEBU?$hash@PEAUDescriptorInfo@@@1@AEBUmod_range_hashing@1@AEBUdefault_ranged_hash@1@AEBU?$equal_to@PEAUDescriptorInfo@@@1@AEBU?$use_first@U?$pair@QEAUDescriptorInfo@@I@eastl@@@1@AEBVallocator_forge@1@@Z
   9A0994 ??0?$hashtable@PEBDU?$pair@QEBDI@eastl@@Vallocator_forge@2@U?$use_first@U?$pair@QEBDI@eastl@@@2@U?$str_equal_to@PEBD@2@U?$hash@PEBD@2@Umod_range_hashing@2@Udefault_ranged_hash@2@Uprime_rehash_policy@2@$0A@$00$00@eastl@@QEAA@_KAEBU?$hash@PEBD@1@AEBUmod_range_hashing@1@AEBUdefault_ranged_hash@1@AEBU?$str_equal_to@PEBD@1@AEBU?$use_first@U?$pair@QEBDI@eastl@@@1@AEBVallocator_forge@1@@Z
   9A0994 ??0?$hashtable@PEBDU?$pair@QEBDPEAUSampler@@@eastl@@Vallocator_forge@2@U?$use_first@U?$pair@QEBDPEAUSampler@@@eastl@@@2@U?$str_equal_to@PEBD@2@U?$hash@PEBD@2@Umod_range_hashing@2@Udefault_ranged_hash@2@Uprime_rehash_policy@2@$0A@$00$00@eastl@@QEAA@_KAEBU?$hash@PEBD@1@AEBUmod_range_hashing@1@AEBUdefault_ranged_hash@1@AEBU?$str_equal_to@PEBD@1@AEBU?$use_first@U?$pair@QEBDPEAUSampler@@@eastl@@@1@AEBVallocator_forge@1@@Z
   9A0994 ??0?$hashtable_iterator@U?$pair@QEAUDescriptorInfo@@I@eastl@@$0A@$0A@@eastl@@QEAA@AEBU01@@Z
   9A0994 ??0?$hashtable_iterator@U?$pair@QEAUDescriptorInfo@@I@eastl@@$0A@$0A@@eastl@@QEAA@PEAU?$hash_node@U?$pair@QEAUDescriptorInfo@@I@eastl@@$0A@@1@PEAPEAU21@@Z
   9A0994 ??0?$hashtable_iterator@U?$pair@QEBDI@eastl@@$00$0A@@eastl@@QEAA@AEBU?$hashtable_iterator@U?$pair@QEBDI@eastl@@$0A@$0A@@1@@Z
   9A0994 ??0?$hashtable_iterator@U?$pair@QEBDI@eastl@@$00$0A@@eastl@@QEAA@PEAPEAU?$hash_node@U?$pair@QEBDI@eastl@@$0A@@1@@Z
   9A0994 ??0?$hashtable_iterator@U?$pair@QEBDI@eastl@@$0A@$0A@@eastl@@QEAA@AEBU01@@Z
   9A0994 ??0?$hashtable_iterator@U?$pair@QEBDI@eastl@@$0A@$0A@@eastl@@QEAA@PEAPEAU?$hash_node@U?$pair@QEBDI@eastl@@$0A@@1@@Z
   9A0994 ??0?$hashtable_iterator@U?$pair@QEBDI@eastl@@$0A@$0A@@eastl@@QEAA@PEAU?$hash_node@U?$pair@QEBDI@eastl@@$0A@@1@PEAPEAU21@@Z
   9A0994 ??0?$hashtable_iterator@U?$pair@QEBDPEAUSampler@@@eastl@@$00$0A@@eastl@@QEAA@AEBU?$hashtable_iterator@U?$pair@QEBDPEAUSampler@@@eastl@@$0A@$0A@@1@@Z
   9A0994 ??0?$hashtable_iterator@U?$pair@QEBDPEAUSampler@@@eastl@@$0A@$0A@@eastl@@QEAA@AEBU01@@Z
   9A0994 ??0?$hashtable_iterator@U?$pair@QEBDPEAUSampler@@@eastl@@$0A@$0A@@eastl@@QEAA@PEAPEAU?$hash_node@U?$pair@QEBDPEAUSampler@@@eastl@@$0A@@1@@Z
   9A0994 ??0?$hashtable_iterator@U?$pair@QEBDPEAUSampler@@@eastl@@$0A@$0A@@eastl@@QEAA@PEAU?$hash_node@U?$pair@QEBDPEAUSampler@@@eastl@@$0A@@1@PEAPEAU21@@Z
   9A0994 ??0?$hashtable_iterator_base@U?$pair@QEAUDescriptorInfo@@I@eastl@@$0A@@eastl@@QEAA@PEAU?$hash_node@U?$pair@QEAUDescriptorInfo@@I@eastl@@$0A@@1@PEAPEAU21@@Z
   9A0994 ??0?$hashtable_iterator_base@U?$pair@QEBDI@eastl@@$0A@@eastl@@QEAA@PEAU?$hash_node@U?$pair@QEBDI@eastl@@$0A@@1@PEAPEAU21@@Z
   9A0994 ??0?$hashtable_iterator_base@U?$pair@QEBDPEAUSampler@@@eastl@@$0A@@eastl@@QEAA@PEAU?$hash_node@U?$pair@QEBDPEAUSampler@@@eastl@@$0A@@1@PEAPEAU21@@Z
   9A0994 ??0?$match_results@PEBDV?$allocator@V?$sub_match@PEBD@std@@@std@@@std@@QEAA@XZ
   9A0994 ??0?$move_iterator@PEAI@eastl@@QEAA@PEAI@Z
   9A0994 ??0?$move_iterator@PEAUD3D12_TILED_RESOURCE_COORDINATE@@@eastl@@QEAA@PEAUD3D12_TILED_RESOURCE_COORDINATE@@@Z
   9A0994 ??0?$move_iterator@PEAUD3D12_TILE_REGION_SIZE@@@eastl@@QEAA@PEAUD3D12_TILE_REGION_SIZE@@@Z
   9A0994 ??0?$move_iterator@PEAUVirtualTexturePage@@@eastl@@QEAA@PEAUVirtualTexturePage@@@Z
   9A0994 ??0?$move_iterator@PEAW4D3D12_TILE_RANGE_FLAGS@@@eastl@@QEAA@PEAW4D3D12_TILE_RANGE_FLAGS@@@Z
   9A0994 ??0?$pair@U?$hashtable_iterator@U?$pair@QEBDI@eastl@@$0A@$0A@@eastl@@_N@eastl@@QEAA@$$QEAU01@@Z
   9A0994 ??0?$pair@U?$hashtable_iterator@U?$pair@QEBDPEAUSampler@@@eastl@@$0A@$0A@@eastl@@_N@eastl@@QEAA@$$QEAU01@@Z
   9A0994 ??0?$regex_traits@D@std@@QEAA@XZ
   9A0994 ??0?$string_hash_map@IU?$hash@PEBD@eastl@@U?$str_equal_to@PEBD@2@Vallocator_forge@2@@eastl@@QEAA@AEBV01@AEBVallocator_forge@1@@Z
   9A0994 ??0?$string_hash_map@IU?$hash@PEBD@eastl@@U?$str_equal_to@PEBD@2@Vallocator_forge@2@@eastl@@QEAA@AEBVallocator_forge@1@@Z
   9A0994 ??0?$string_hash_map@PEAUSampler@@U?$hash@PEBD@eastl@@U?$str_equal_to@PEBD@3@Vallocator_forge@3@@eastl@@QEAA@AEBVallocator_forge@1@@Z
   9A0994 ??0?$sub_match@PEBD@std@@QEAA@XZ
   9A0994 ??0?$vector@IV?$allocator@I@std@@@std@@QEAA@AEBV01@@Z
   9A0994 ??0?$vector@IV?$allocator@I@std@@@std@@QEAA@_KAEBIAEBV?$allocator@I@1@@Z
   9A0994 ??0?$vector@IVallocator_forge@eastl@@@eastl@@QEAA@XZ
   9A0994 ??0?$vector@PEB_WVallocator_forge@eastl@@@eastl@@QEAA@XZ
   9A0994 ??0?$vector@U?$pair@PEAUShaderResource@@PEAUSampler@@@eastl@@Vallocator_forge@2@@eastl@@QEAA@XZ
   9A0994 ??0?$vector@U?$pair@UShaderResource@@PEAUDescriptorInfo@@@eastl@@Vallocator_forge@2@@eastl@@QEAA@XZ
   9A0994 ??0?$vector@UD3D12_SUBRESOURCE_TILING@@Vallocator_forge@eastl@@@eastl@@QEAA@_KAEBVallocator_forge@1@@Z
   9A0994 ??0?$vector@UD3D12_TILE_REGION_SIZE@@Vallocator_forge@eastl@@@eastl@@QEAA@XZ
   9A0994 ??0?$vector@UShaderResource@@Vallocator_forge@eastl@@@eastl@@QEAA@XZ
   9A0994 ??0?$vector@U_Grp_t@?$_Tgt_state_t@PEBD@std@@V?$allocator@U_Grp_t@?$_Tgt_state_t@PEBD@std@@@3@@std@@QEAA@AEBV01@@Z
   9A0994 ??0?$vector@U_Grp_t@?$_Tgt_state_t@PEBD@std@@V?$allocator@U_Grp_t@?$_Tgt_state_t@PEBD@std@@@3@@std@@QEAA@XZ
   9A0994 ??0?$vector@U_Loop_vals_t@std@@V?$allocator@U_Loop_vals_t@std@@@2@@std@@QEAA@XZ
   9A0994 ??0?$vector@V?$sub_match@PEBD@std@@V?$allocator@V?$sub_match@PEBD@std@@@2@@std@@QEAA@XZ
   9A0994 ??0?$vector@W4D3D12_TILE_RANGE_FLAGS@@Vallocator_forge@eastl@@@eastl@@QEAA@XZ
   9A0994 ??0?$vector@_NV?$allocator@_N@std@@@std@@QEAA@AEBV01@@Z
   9A0994 ??0?$vector@_NV?$allocator@_N@std@@@std@@QEAA@XZ
   9A0994 ??0?$vector@_NV?$allocator@_N@std@@@std@@QEAA@_KAEBV?$allocator@_N@1@@Z
   9A0994 ??0Allocation@D3D12MA@@AEAA@PEAVAllocatorPimpl@1@_KH@Z
   9A0994 ??0AllocationObjectAllocator@D3D12MA@@QEAA@AEBUALLOCATION_CALLBACKS@1@@Z
   9A0994 ??0Allocator@D3D12MA@@AEAA@AEBUALLOCATION_CALLBACKS@1@AEBUALLOCATOR_DESC@1@@Z
   9A0994 ??0AllocatorPimpl@D3D12MA@@QEAA@AEBUALLOCATION_CALLBACKS@1@AEBUALLOCATOR_DESC@1@@Z
   9A0994 ??0BlockMetadata@D3D12MA@@QEAA@PEBUALLOCATION_CALLBACKS@1@@Z
   9A0994 ??0BlockMetadata_Generic@D3D12MA@@QEAA@PEBUALLOCATION_CALLBACKS@1@@Z
   9A0994 ??0BlockVector@D3D12MA@@QEAA@PEAVAllocatorPimpl@1@W4D3D12_HEAP_TYPE@@W4D3D12_HEAP_FLAGS@@_K33_N@Z
   9A0994 ??0CurrentBudgetData@D3D12MA@@QEAA@XZ
   9A0994 ??0DescriptorIndexMap@@QEAA@XZ
   9A0994 ??0JsonWriter@D3D12MA@@QEAA@AEBUALLOCATION_CALLBACKS@1@AEAVStringBuilder@1@@Z
   9A0994 ??0MemoryBlock@D3D12MA@@QEAA@PEAVAllocatorPimpl@1@W4D3D12_HEAP_TYPE@@W4D3D12_HEAP_FLAGS@@II_KI@Z
   9A0994 ??0Mutex@D3D12MA@@QEAA@XZ
   9A0994 ??0MutexLock@@QEAA@AEAUMutex@@@Z
   9A0994 ??0MutexLock@D3D12MA@@QEAA@AEAVMutex@1@_N@Z
   9A0994 ??0MutexLockRead@D3D12MA@@QEAA@AEAVRWMutex@1@_N@Z
   9A0994 ??0MutexLockWrite@D3D12MA@@QEAA@AEAVRWMutex@1@_N@Z
   9A0994 ??0NormalBlock@D3D12MA@@QEAA@PEAVAllocatorPimpl@1@PEAVBlockVector@1@W4D3D12_HEAP_TYPE@@W4D3D12_HEAP_FLAGS@@II_KI@Z
   9A0994 ??0PackedData@Allocation@D3D12MA@@QEAA@XZ
   9A0994 ??0Pool@D3D12MA@@AEAA@PEAVAllocator@1@AEBUPOOL_DESC@1@@Z
   9A0994 ??0PoolPimpl@D3D12MA@@QEAA@PEAVAllocatorPimpl@1@AEBUPOOL_DESC@1@@Z
   9A0994 ??0RWMutex@D3D12MA@@QEAA@XZ
   9A0994 ??0StringBuilder@D3D12MA@@QEAA@AEBUALLOCATION_CALLBACKS@1@@Z
   9A0994 ??0UpdateFrequencyLayoutInfo@@QEAA@XZ
   9A0994 ??0ZeroInitializedRange@D3D12MA@@QEAA@XZ
   9A0994 ??0_Bitmap@std@@QEAA@XZ
   9A0994 ??0_Bxty@?$_String_val@U?$_Simple_types@D@std@@@std@@QEAA@XZ
   9A0994 ??0_Fake_proxy_ptr_impl@std@@QEAA@AEBU_Fake_allocator@1@AEBU_Container_base0@1@@Z
   9A0994 ??0_Mutex_base@std@@QEAA@H@Z
   9A0994 ??0_Node_assert@std@@QEAA@W4_Node_type@1@W4_Node_flags@1@@Z
   9A0994 ??0_Node_back@std@@QEAA@I@Z
   9A0994 ??0_Node_base@std@@QEAA@W4_Node_type@1@W4_Node_flags@1@@Z
   9A0994 ??0_Node_capture@std@@QEAA@I@Z
   9A0994 ??0_Node_end_group@std@@QEAA@W4_Node_type@1@W4_Node_flags@1@PEAV_Node_base@1@@Z
   9A0994 ??0_Node_end_rep@std@@QEAA@XZ
   9A0994 ??0_Node_endif@std@@QEAA@XZ
   9A0994 ??0_Node_if@std@@QEAA@PEAV_Node_base@1@@Z
   9A0994 ??0_Node_rep@std@@QEAA@_NHHPEAV_Node_end_rep@1@I@Z
   9A0994 ??0_Root_node@std@@QEAA@XZ
   9A0994 ??0bad_alloc@std@@AEAA@QEBD@Z
   9A0994 ??0bad_alloc@std@@QEAA@AEBV01@@Z
   9A0994 ??0bad_array_new_length@std@@QEAA@AEBV01@@Z
   9A0994 ??0bad_array_new_length@std@@QEAA@XZ
   9A0994 ??0bad_cast@std@@QEAA@AEBV01@@Z
   9A0994 ??0bad_cast@std@@QEAA@XZ
   9A0994 ??0const_iterator@?$List@USuballocation@D3D12MA@@@D3D12MA@@AEAA@PEBV12@PEBUItem@12@@Z
   9A0994 ??0const_iterator@?$List@USuballocation@D3D12MA@@@D3D12MA@@QEAA@AEBViterator@12@@Z
   9A0994 ??0exception@std@@QEAA@AEBV01@@Z
   9A0994 ??0exception@std@@QEAA@QEBDH@Z
   9A0994 ??0iterator@?$List@USuballocation@D3D12MA@@@D3D12MA@@AEAA@PEAV12@PEAUItem@12@@Z
   9A0994 ??0iterator@?$List@USuballocation@D3D12MA@@@D3D12MA@@QEAA@XZ
   9A0994 ??0locale@std@@QEAA@XZ
   9A0994 ??0mutex@std@@QEAA@XZ
   9A0994 ??0prime_rehash_policy@eastl@@QEAA@M@Z
   9A0994 ??1?$List@USuballocation@D3D12MA@@@D3D12MA@@QEAA@XZ
   9A0994 ??1?$PoolAllocator@UItem@?$List@USuballocation@D3D12MA@@@D3D12MA@@@D3D12MA@@QEAA@XZ
   9A0994 ??1?$PoolAllocator@VAllocation@D3D12MA@@@D3D12MA@@QEAA@XZ
   9A0994 ??1?$Vector@PEAVAllocation@D3D12MA@@@D3D12MA@@QEAA@XZ
   9A0994 ??1?$Vector@PEAVNormalBlock@D3D12MA@@@D3D12MA@@QEAA@XZ
   9A0994 ??1?$Vector@PEAVPool@D3D12MA@@@D3D12MA@@QEAA@XZ
   9A0994 ??1?$Vector@UItemBlock@?$PoolAllocator@UItem@?$List@USuballocation@D3D12MA@@@D3D12MA@@@D3D12MA@@@D3D12MA@@QEAA@XZ
   9A0994 ??1?$Vector@UItemBlock@?$PoolAllocator@VAllocation@D3D12MA@@@D3D12MA@@@D3D12MA@@QEAA@XZ
   9A0994 ??1?$Vector@UStackItem@JsonWriter@D3D12MA@@@D3D12MA@@QEAA@XZ
   9A0994 ??1?$Vector@Viterator@?$List@USuballocation@D3D12MA@@@D3D12MA@@@D3D12MA@@QEAA@XZ
   9A0994 ??1?$Vector@_W@D3D12MA@@QEAA@XZ
   9A0994 ??1?$VectorBase@IVallocator_forge@eastl@@@eastl@@QEAA@XZ
   9A0994 ??1?$VectorBase@U?$pair@PEAUShaderResource@@PEAUSampler@@@eastl@@Vallocator_forge@2@@eastl@@QEAA@XZ
   9A0994 ??1?$VectorBase@U?$pair@UShaderResource@@PEAUDescriptorInfo@@@eastl@@Vallocator_forge@2@@eastl@@QEAA@XZ
   9A0994 ??1?$VectorBase@UD3D12_SUBRESOURCE_TILING@@Vallocator_forge@eastl@@@eastl@@QEAA@XZ
   9A0994 ??1?$VectorBase@UD3D12_TILED_RESOURCE_COORDINATE@@Vallocator_forge@eastl@@@eastl@@QEAA@XZ
   9A0994 ??1?$VectorBase@UD3D12_TILE_REGION_SIZE@@Vallocator_forge@eastl@@@eastl@@QEAA@XZ
   9A0994 ??1?$VectorBase@UDescriptorHandle@DescriptorHeap@@Vallocator_forge@eastl@@@eastl@@QEAA@XZ
   9A0994 ??1?$VectorBase@UShaderResource@@Vallocator_forge@eastl@@@eastl@@QEAA@XZ
   9A0994 ??1?$VectorBase@UVirtualTexturePage@@Vallocator_forge@eastl@@@eastl@@QEAA@XZ
   9A0994 ??1?$VectorBase@W4D3D12_TILE_RANGE_FLAGS@@Vallocator_forge@eastl@@@eastl@@QEAA@XZ
   9A0994 ??1?$_Bt_state_t@PEBD@std@@QEAA@XZ
   9A0994 ??1?$_Buf@D@std@@QEAA@XZ
   9A0994 ??1?$_Compressed_pair@V?$allocator@D@std@@V?$_String_val@U?$_Simple_types@D@std@@@2@$00@std@@QEAA@XZ
   9A0994 ??1?$_Matcher@PEBDDV?$regex_traits@D@std@@PEBD@std@@QEAA@XZ
   9A0994 ??1?$_Node_class@DV?$regex_traits@D@std@@@std@@UEAA@XZ
   9A0994 ??1?$_Node_str@D@std@@UEAA@XZ
   9A0994 ??1?$_Parser@PEBDDV?$regex_traits@D@std@@@std@@QEAA@XZ
   9A0994 ??1?$_Regex_traits@D@std@@QEAA@XZ
   9A0994 ??1?$_Sequence@D@std@@QEAA@XZ
   9A0994 ??1?$_String_val@U?$_Simple_types@D@std@@@std@@QEAA@XZ
   9A0994 ??1?$_Tgt_state_t@PEBD@std@@QEAA@XZ
   9A0994 ??1?$_Tidy_guard@V?$_Builder@PEBDDV?$regex_traits@D@std@@@std@@@std@@QEAA@XZ
   9A0994 ??1?$_Tidy_guard@V?$vector@DV?$allocator@D@std@@@std@@@std@@QEAA@XZ
   9A0994 ??1?$_Tidy_guard@V?$vector@IV?$allocator@I@std@@@std@@@std@@QEAA@XZ
   9A0994 ??1?$_Tidy_guard@V?$vector@U_Grp_t@?$_Tgt_state_t@PEBD@std@@V?$allocator@U_Grp_t@?$_Tgt_state_t@PEBD@std@@@3@@std@@@std@@QEAA@XZ
   9A0994 ??1?$_Uninitialized_backout_al@V?$allocator@I@std@@@std@@QEAA@XZ
   9A0994 ??1?$_Uninitialized_backout_al@V?$allocator@U_Grp_t@?$_Tgt_state_t@PEBD@std@@@std@@@std@@QEAA@XZ
   9A0994 ??1?$_Uninitialized_backout_al@V?$allocator@U_Loop_vals_t@std@@@std@@@std@@QEAA@XZ
   9A0994 ??1?$_Uninitialized_backout_al@V?$allocator@V?$sub_match@PEBD@std@@@std@@@std@@QEAA@XZ
   9A0994 ??1?$_Vb_val@V?$allocator@_N@std@@@std@@QEAA@XZ
   9A0994 ??1?$basic_regex@DV?$regex_traits@D@std@@@std@@QEAA@XZ
   9A0994 ??1?$basic_string@DU?$char_traits@D@std@@V?$allocator@D@2@@std@@QEAA@XZ
   9A0994 ??1?$collate@D@std@@MEAA@XZ
   9A0994 ??1?$hash_map@PEAUDescriptorInfo@@IU?$hash@PEAUDescriptorInfo@@@eastl@@U?$equal_to@PEAUDescriptorInfo@@@3@Vallocator_forge@3@$0A@@eastl@@QEAA@XZ
   9A0994 ??1?$hash_map@PEBDIU?$hash@PEBD@eastl@@U?$str_equal_to@PEBD@2@Vallocator_forge@2@$0A@@eastl@@QEAA@XZ
   9A0994 ??1?$hash_map@PEBDPEAUSampler@@U?$hash@PEBD@eastl@@U?$str_equal_to@PEBD@3@Vallocator_forge@3@$0A@@eastl@@QEAA@XZ
   9A0994 ??1?$hashtable@PEAUDescriptorInfo@@U?$pair@QEAUDescriptorInfo@@I@eastl@@Vallocator_forge@3@U?$use_first@U?$pair@QEAUDescriptorInfo@@I@eastl@@@3@U?$equal_to@PEAUDescriptorInfo@@@3@U?$hash@PEAUDescriptorInfo@@@3@Umod_range_hashing@3@Udefault_ranged_hash@3@Uprime_rehash_policy@3@$0A@$00$00@eastl@@QEAA@XZ
   9A0994 ??1?$hashtable@PEBDU?$pair@QEBDI@eastl@@Vallocator_forge@2@U?$use_first@U?$pair@QEBDI@eastl@@@2@U?$str_equal_to@PEBD@2@U?$hash@PEBD@2@Umod_range_hashing@2@Udefault_ranged_hash@2@Uprime_rehash_policy@2@$0A@$00$00@eastl@@QEAA@XZ
   9A0994 ??1?$hashtable@PEBDU?$pair@QEBDPEAUSampler@@@eastl@@Vallocator_forge@2@U?$use_first@U?$pair@QEBDPEAUSampler@@@eastl@@@2@U?$str_equal_to@PEBD@2@U?$hash@PEBD@2@Umod_range_hashing@2@Udefault_ranged_hash@2@Uprime_rehash_policy@2@$0A@$00$00@eastl@@QEAA@XZ
   9A0994 ??1?$match_results@PEBDV?$allocator@V?$sub_match@PEBD@std@@@std@@@std@@QEAA@XZ
   9A0994 ??1?$regex_traits@D@std@@QEAA@XZ
   9A0994 ??1?$string_hash_map@IU?$hash@PEBD@eastl@@U?$str_equal_to@PEBD@2@Vallocator_forge@2@@eastl@@QEAA@XZ
   9A0994 ??1?$string_hash_map@PEAUSampler@@U?$hash@PEBD@eastl@@U?$str_equal_to@PEBD@3@Vallocator_forge@3@@eastl@@QEAA@XZ
   9A0994 ??1?$unique_ptr@V_Facet_base@std@@U?$default_delete@V_Facet_base@std@@@2@@std@@QEAA@XZ
   9A0994 ??1?$unique_ptr@V_Node_assert@std@@U?$default_delete@V_Node_assert@std@@@2@@std@@QEAA@XZ
   9A0994 ??1?$vector@DV?$allocator@D@std@@@std@@QEAA@XZ
   9A0994 ??1?$vector@IVallocator_forge@eastl@@@eastl@@QEAA@XZ
   9A0994 ??1?$vector@U?$pair@PEAUShaderResource@@PEAUSampler@@@eastl@@Vallocator_forge@2@@eastl@@QEAA@XZ
   9A0994 ??1?$vector@U?$pair@UShaderResource@@PEAUDescriptorInfo@@@eastl@@Vallocator_forge@2@@eastl@@QEAA@XZ
   9A0994 ??1?$vector@UD3D12_SUBRESOURCE_TILING@@Vallocator_forge@eastl@@@eastl@@QEAA@XZ
   9A0994 ??1?$vector@UD3D12_TILED_RESOURCE_COORDINATE@@Vallocator_forge@eastl@@@eastl@@QEAA@XZ
   9A0994 ??1?$vector@UD3D12_TILE_REGION_SIZE@@Vallocator_forge@eastl@@@eastl@@QEAA@XZ
   9A0994 ??1?$vector@UDescriptorHandle@DescriptorHeap@@Vallocator_forge@eastl@@@eastl@@QEAA@XZ
   9A0994 ??1?$vector@UShaderResource@@Vallocator_forge@eastl@@@eastl@@QEAA@XZ
   9A0994 ??1?$vector@UVirtualTexturePage@@Vallocator_forge@eastl@@@eastl@@QEAA@XZ
   9A0994 ??1?$vector@U_Grp_t@?$_Tgt_state_t@PEBD@std@@V?$allocator@U_Grp_t@?$_Tgt_state_t@PEBD@std@@@3@@std@@QEAA@XZ
   9A0994 ??1?$vector@U_Loop_vals_t@std@@V?$allocator@U_Loop_vals_t@std@@@2@@std@@QEAA@XZ
   9A0994 ??1?$vector@V?$sub_match@PEBD@std@@V?$allocator@V?$sub_match@PEBD@std@@@2@@std@@QEAA@XZ
   9A0994 ??1?$vector@W4D3D12_TILE_RANGE_FLAGS@@Vallocator_forge@eastl@@@eastl@@QEAA@XZ
   9A0994 ??1?$vector@_NV?$allocator@_N@std@@@std@@QEAA@XZ
   9A0994 ??1Allocation@D3D12MA@@AEAA@XZ
   9A0994 ??1AllocationObjectAllocator@D3D12MA@@QEAA@XZ
   9A0994 ??1Allocator@D3D12MA@@AEAA@XZ
   9A0994 ??1AllocatorPimpl@D3D12MA@@QEAA@XZ
   9A0994 ??1BlockMetadata@D3D12MA@@UEAA@XZ
   9A0994 ??1BlockMetadata_Generic@D3D12MA@@UEAA@XZ
   9A0994 ??1BlockVector@D3D12MA@@QEAA@XZ
   9A0994 ??1DescriptorIndexMap@@QEAA@XZ
   9A0994 ??1JsonWriter@D3D12MA@@QEAA@XZ
   9A0994 ??1MemoryBlock@D3D12MA@@UEAA@XZ
   9A0994 ??1Mutex@D3D12MA@@QEAA@XZ
   9A0994 ??1MutexLock@@QEAA@XZ
   9A0994 ??1MutexLock@D3D12MA@@QEAA@XZ
   9A0994 ??1MutexLockRead@D3D12MA@@QEAA@XZ
   9A0994 ??1MutexLockWrite@D3D12MA@@QEAA@XZ
   9A0994 ??1NormalBlock@D3D12MA@@UEAA@XZ
   9A0994 ??1Pool@D3D12MA@@AEAA@XZ
   9A0994 ??1PoolPimpl@D3D12MA@@QEAA@XZ
   9A0994 ??1StringBuilder@D3D12MA@@QEAA@XZ
   9A0994 ??1UpdateFrequencyLayoutInfo@@QEAA@XZ
   9A0994 ??1_Bxty@?$_String_val@U?$_Simple_types@D@std@@@std@@QEAA@XZ
   9A0994 ??1_Mutex_base@std@@QEAA@XZ
   9A0994 ??1_Node_assert@std@@UEAA@XZ
   9A0994 ??1_Node_back@std@@UEAA@XZ
   9A0994 ??1_Node_base@std@@UEAA@XZ
   9A0994 ??1_Node_capture@std@@UEAA@XZ
   9A0994 ??1_Node_end_group@std@@UEAA@XZ
   9A0994 ??1_Node_end_rep@std@@UEAA@XZ
   9A0994 ??1_Node_endif@std@@UEAA@XZ
   9A0994 ??1_Node_if@std@@UEAA@XZ
   9A0994 ??1_Node_rep@std@@UEAA@XZ
   9A0994 ??1_Root_node@std@@UEAA@XZ
   9A0994 ??1bad_alloc@std@@UEAA@XZ
   9A0994 ??1bad_array_new_length@std@@UEAA@XZ
   9A0994 ??1bad_cast@std@@UEAA@XZ
   9A0994 ??1exception@std@@UEAA@XZ
   9A0994 ??1locale@std@@QEAA@XZ
   9A0994 ??1mutex@std@@QEAA@XZ
   9A0994 ??4?$_Bt_state_t@PEBD@std@@QEAAAEAV01@AEBV01@@Z
   9A0994 ??4?$_Tgt_state_t@PEBD@std@@QEAAAEAV01@AEBV01@@Z
   9A0994 ??4?$_Tgt_state_t@PEBD@std@@QEAAXAEBV?$_Bt_state_t@PEBD@1@@Z
   9A0994 ??4?$_Vb_reference@U?$_Wrap_alloc@V?$allocator@I@std@@@std@@@std@@QEAAAEAV01@AEBV01@@Z
   9A0994 ??4?$_Vb_reference@U?$_Wrap_alloc@V?$allocator@I@std@@@std@@@std@@QEAAAEAV01@_N@Z
   9A0994 ??4?$atomic@I@std@@QEAAII@Z
   9A0994 ??4?$atomic@_K@std@@QEAA_K_K@Z
   9A0994 ??4?$basic_string@DU?$char_traits@D@std@@V?$allocator@D@2@@std@@QEAAAEAV01@$$QEAV01@@Z
   9A0994 ??4?$pair@UShaderResource@@PEAUDescriptorInfo@@@eastl@@QEAAAEAU01@AEBU01@@Z
   9A0994 ??4?$string_hash_map@IU?$hash@PEBD@eastl@@U?$str_equal_to@PEBD@2@Vallocator_forge@2@@eastl@@QEAAAEAV01@AEBV01@@Z
   9A0994 ??4?$vector@IV?$allocator@I@std@@@std@@QEAAAEAV01@AEBV01@@Z
   9A0994 ??4?$vector@U_Grp_t@?$_Tgt_state_t@PEBD@std@@V?$allocator@U_Grp_t@?$_Tgt_state_t@PEBD@std@@@3@@std@@QEAAAEAV01@AEBV01@@Z
   9A0994 ??4?$vector@_NV?$allocator@_N@std@@@std@@QEAAAEAV01@AEBV01@@Z
   9A0994 ??8?$_String_const_iterator@V?$_String_val@U?$_Simple_types@D@std@@@std@@@std@@QEBA_NAEBV01@@Z
   9A0994 ??8?$_Vb_const_iterator@U?$_Wrap_alloc@V?$allocator@I@std@@@std@@@std@@QEBA_NAEBV01@@Z
   9A0994 ??8iterator@?$List@USuballocation@D3D12MA@@@D3D12MA@@QEBA_NAEBV012@@Z
   9A0994 ??9?$_String_const_iterator@V?$_String_val@U?$_Simple_types@D@std@@@std@@@std@@QEBA_NAEBV01@@Z
   9A0994 ??9?$_Vb_const_iterator@U?$_Wrap_alloc@V?$allocator@I@std@@@std@@@std@@QEBA_NAEBV01@@Z
   9A0994 ??9const_iterator@?$List@USuballocation@D3D12MA@@@D3D12MA@@QEBA_NAEBV012@@Z
   9A0994 ??9iterator@?$List@USuballocation@D3D12MA@@@D3D12MA@@QEBA_NAEBV012@@Z
   9A0994 ??A?$Vector@PEAVAllocation@D3D12MA@@@D3D12MA@@QEBAAEBQEAVAllocation@1@_K@Z
   9A0994 ??A?$Vector@PEAVNormalBlock@D3D12MA@@@D3D12MA@@QEAAAEAPEAVNormalBlock@1@_K@Z
   9A0994 ??A?$Vector@PEAVNormalBlock@D3D12MA@@@D3D12MA@@QEBAAEBQEAVNormalBlock@1@_K@Z
   9A0994 ??A?$Vector@PEAVPool@D3D12MA@@@D3D12MA@@QEBAAEBQEAVPool@1@_K@Z
   9A0994 ??A?$Vector@UItemBlock@?$PoolAllocator@UItem@?$List@USuballocation@D3D12MA@@@D3D12MA@@@D3D12MA@@@D3D12MA@@QEAAAEAUItemBlock@?$PoolAllocator@UItem@?$List@USuballocation@D3D12MA@@@D3D12MA@@@1@_K@Z
   9A0994 ??A?$Vector@UItemBlock@?$PoolAllocator@VAllocation@D3D12MA@@@D3D12MA@@@D3D12MA@@QEAAAEAUItemBlock@?$PoolAllocator@VAllocation@D3D12MA@@@1@_K@Z
   9A0994 ??A?$Vector@Viterator@?$List@USuballocation@D3D12MA@@@D3D12MA@@@D3D12MA@@QEAAAEAViterator@?$List@USuballocation@D3D12MA@@@1@_K@Z
   9A0994 ??A?$Vector@Viterator@?$List@USuballocation@D3D12MA@@@D3D12MA@@@D3D12MA@@QEBAAEBViterator@?$List@USuballocation@D3D12MA@@@1@_K@Z
   9A0994 ??A?$basic_string@DU?$char_traits@D@std@@V?$allocator@D@2@@std@@QEAAAEAD_K@Z
   9A0994 ??A?$hash_map@PEAUDescriptorInfo@@IU?$hash@PEAUDescriptorInfo@@@eastl@@U?$equal_to@PEAUDescriptorInfo@@@3@Vallocator_forge@3@$0A@@eastl@@QEAAAEAIAEBQEAUDescriptorInfo@@@Z
   9A0994 ??A?$match_results@PEBDV?$allocator@V?$sub_match@PEBD@std@@@std@@@std@@QEBAAEBV?$sub_match@PEBD@1@_K@Z
   9A0994 ??A?$string_hash_map@IU?$hash@PEBD@eastl@@U?$str_equal_to@PEBD@2@Vallocator_forge@2@@eastl@@QEAAAEAIPEBD@Z
   9A0994 ??A?$vector@IVallocator_forge@eastl@@@eastl@@QEAAAEAI_K@Z
   9A0994 ??A?$vector@U?$pair@PEAUShaderResource@@PEAUSampler@@@eastl@@Vallocator_forge@2@@eastl@@QEAAAEAU?$pair@PEAUShaderResource@@PEAUSampler@@@1@_K@Z
   9A0994 ??A?$vector@U?$pair@UShaderResource@@PEAUDescriptorInfo@@@eastl@@Vallocator_forge@2@@eastl@@QEAAAEAU?$pair@UShaderResource@@PEAUDescriptorInfo@@@1@_K@Z
   9A0994 ??A?$vector@UD3D12_SUBRESOURCE_TILING@@Vallocator_forge@eastl@@@eastl@@QEAAAEAUD3D12_SUBRESOURCE_TILING@@_K@Z
   9A0994 ??A?$vector@UShaderResource@@Vallocator_forge@eastl@@@eastl@@QEAAAEAUShaderResource@@_K@Z
   9A0994 ??A?$vector@UVirtualTexturePage@@Vallocator_forge@eastl@@@eastl@@QEAAAEAUVirtualTexturePage@@_K@Z
   9A0994 ??A?$vector@U_Grp_t@?$_Tgt_state_t@PEBD@std@@V?$allocator@U_Grp_t@?$_Tgt_state_t@PEBD@std@@@3@@std@@QEAAAEAU_Grp_t@?$_Tgt_state_t@PEBD@1@_K@Z
   9A0994 ??A?$vector@U_Loop_vals_t@std@@V?$allocator@U_Loop_vals_t@std@@@2@@std@@QEAAAEAU_Loop_vals_t@1@_K@Z
   9A0994 ??A?$vector@V?$sub_match@PEBD@std@@V?$allocator@V?$sub_match@PEBD@std@@@2@@std@@QEAAAEAV?$sub_match@PEBD@1@_K@Z
   9A0994 ??A?$vector@V?$sub_match@PEBD@std@@V?$allocator@V?$sub_match@PEBD@std@@@2@@std@@QEBAAEBV?$sub_match@PEBD@1@_K@Z
   9A0994 ??A?$vector@_NV?$allocator@_N@std@@@std@@QEAA?AV?$_Vb_reference@U?$_Wrap_alloc@V?$allocator@I@std@@@std@@@1@_K@Z
   9A0994 ??B?$_Vb_reference@U?$_Wrap_alloc@V?$allocator@I@std@@@std@@@std@@QEBA_NXZ
   9A0994 ??B?$atomic@I@std@@QEBAIXZ
   9A0994 ??B?$atomic@_K@std@@QEBA_KXZ
   9A0994 ??C?$hashtable_iterator@U?$pair@QEBDI@eastl@@$00$0A@@eastl@@QEBAPEBU?$pair@QEBDI@1@XZ
   9A0994 ??C?$hashtable_iterator@U?$pair@QEBDI@eastl@@$0A@$0A@@eastl@@QEBAPEAU?$pair@QEBDI@1@XZ
   9A0994 ??C?$hashtable_iterator@U?$pair@QEBDPEAUSampler@@@eastl@@$00$0A@@eastl@@QEBAPEBU?$pair@QEBDPEAUSampler@@@1@XZ
   9A0994 ??C?$hashtable_iterator@U?$pair@QEBDPEAUSampler@@@eastl@@$0A@$0A@@eastl@@QEBAPEAU?$pair@QEBDPEAUSampler@@@1@XZ
   9A0994 ??Citerator@?$List@USuballocation@D3D12MA@@@D3D12MA@@QEBAPEAUSuballocation@2@XZ
   9A0994 ??D?$_Vb_iterator@U?$_Wrap_alloc@V?$allocator@I@std@@@std@@@std@@QEBA?AV?$_Vb_reference@U?$_Wrap_alloc@V?$allocator@I@std@@@std@@@1@XZ
   9A0994 ??D?$generic_iterator@PEAU?$pair@PEAUShaderResource@@PEAUSampler@@@eastl@@X@eastl@@QEBAAEAU?$pair@PEAUShaderResource@@PEAUSampler@@@1@XZ
   9A0994 ??D?$generic_iterator@PEAU?$pair@UShaderResource@@PEAUDescriptorInfo@@@eastl@@X@eastl@@QEBAAEAU?$pair@UShaderResource@@PEAUDescriptorInfo@@@1@XZ
   9A0994 ??D?$hashtable_iterator@U?$pair@QEAUDescriptorInfo@@I@eastl@@$0A@$0A@@eastl@@QEBAAEAU?$pair@QEAUDescriptorInfo@@I@1@XZ
   9A0994 ??Dconst_iterator@?$List@USuballocation@D3D12MA@@@D3D12MA@@QEBAAEBUSuballocation@2@XZ
   9A0994 ??Diterator@?$List@USuballocation@D3D12MA@@@D3D12MA@@QEBAAEAUSuballocation@2@XZ
   9A0994 ??E?$_Atomic_integral@I$03@std@@QEAAIXZ
   9A0994 ??E?$_Vb_const_iterator@U?$_Wrap_alloc@V?$allocator@I@std@@@std@@@std@@QEAAAEAV01@XZ
   9A0994 ??E?$_Vb_iterator@U?$_Wrap_alloc@V?$allocator@I@std@@@std@@@std@@QEAAAEAV01@XZ
   9A0994 ??E?$generic_iterator@PEAU?$pair@PEAUShaderResource@@PEAUSampler@@@eastl@@X@eastl@@QEAAAEAV01@XZ
   9A0994 ??E?$generic_iterator@PEAU?$pair@UShaderResource@@PEAUDescriptorInfo@@@eastl@@X@eastl@@QEAAAEAV01@XZ
   9A0994 ??E?$hashtable_iterator@U?$pair@QEBDI@eastl@@$00$0A@@eastl@@QEAAAEAU01@XZ
   9A0994 ??E?$hashtable_iterator@U?$pair@QEBDPEAUSampler@@@eastl@@$00$0A@@eastl@@QEAAAEAU01@XZ
   9A0994 ??Econst_iterator@?$List@USuballocation@D3D12MA@@@D3D12MA@@QEAAAEAV012@XZ
   9A0994 ??Eiterator@?$List@USuballocation@D3D12MA@@@D3D12MA@@QEAAAEAV012@XZ
   9A0994 ??F?$_Vb_const_iterator@U?$_Wrap_alloc@V?$allocator@I@std@@@std@@@std@@QEAAAEAV01@XZ
   9A0994 ??F?$_Vb_iterator@U?$_Wrap_alloc@V?$allocator@I@std@@@std@@@std@@QEAAAEAV01@XZ
   9A0994 ??Fiterator@?$List@USuballocation@D3D12MA@@@D3D12MA@@QEAAAEAV012@XZ
   9A0994 ??G?$_Vb_const_iterator@U?$_Wrap_alloc@V?$allocator@I@std@@@std@@@std@@QEBA_JAEBV01@@Z
   9A0994 ??H?$_Vb_iterator@U?$_Wrap_alloc@V?$allocator@I@std@@@std@@@std@@QEBA?AV01@_J@Z
   9A0994 ??H?$_Vector_iterator@V?$_Vector_val@U?$_Simple_types@I@std@@@std@@@std@@QEBA?AV01@_J@Z
   9A0994 ??I@YA?AW4ALLOCATION_FLAGS@D3D12MA@@W401@0@Z
   9A0994 ??I@YA?AW4ALLOCATOR_FLAGS@D3D12MA@@W401@0@Z
   9A0994 ??I@YA?AW4D3D12_DESCRIPTOR_HEAP_FLAGS@@W40@0@Z
   9A0994 ??I@YA?AW4D3D12_FORMAT_SUPPORT1@@W40@0@Z
   9A0994 ??I@YA?AW4D3D12_FORMAT_SUPPORT2@@W40@0@Z
   9A0994 ??I@YA?AW4D3D12_HEAP_FLAGS@@W40@0@Z
   9A0994 ??I@YA?AW4D3D12_RESOURCE_FLAGS@@W40@0@Z
   9A0994 ??I@YA?AW4D3D12_SHADER_CACHE_SUPPORT_FLAGS@@W40@0@Z
   9A0994 ??Iregex_constants@std@@YA?AW4match_flag_type@01@W4201@0@Z
   9A0994 ??Iregex_constants@std@@YA?AW4syntax_option_type@01@W4201@0@Z
   9A0994 ??Istd@@YA?AW4_Node_flags@0@W410@0@Z
   9A0994 ??R<lambda_319d5e083f45f90dcdce5dce53cbb275>@@QEBAXQEADQEBD_KD@Z
   9A0994 ??R<lambda_66f57f934f28d61049862f64df852ff0>@@QEBAXQEAD_KQEBD@Z
   9A0994 ??R<lambda_e1befb086ad3257e3f042a63030725f7>@@QEBAXQEADQEBD_K2D@Z
   9A0994 ??R?$_Cmp_collate@V?$regex_traits@D@std@@@std@@QEAA_NDD@Z
   9A0994 ??R?$_Cmp_cs@V?$regex_traits@D@std@@@std@@QEAA_NDD@Z
   9A0994 ??R?$_Cmp_icase@V?$_Regex_traits@D@std@@@std@@QEAA_NDD@Z
   9A0994 ??R?$_Cmp_icase@V?$regex_traits@D@std@@@std@@QEAA_NDD@Z
   9A0994 ??R?$default_delete@V_Facet_base@std@@@std@@QEBAXPEAV_Facet_base@1@@Z
   9A0994 ??R?$default_delete@V_Node_assert@std@@@std@@QEBAXPEAV_Node_assert@1@@Z
   9A0994 ??R?$equal_to@PEAUDescriptorInfo@@@eastl@@QEBA_NAEBQEAUDescriptorInfo@@0@Z
   9A0994 ??R?$hash@PEAUDescriptorInfo@@@eastl@@QEBA_KPEAUDescriptorInfo@@@Z
   9A0994 ??R?$hash@PEBD@eastl@@QEBA_KPEBD@Z
   9A0994 ??R?$str_equal_to@PEBD@eastl@@QEBA_NPEBD0@Z
   9A0994 ??R?$use_first@U?$pair@QEAUDescriptorInfo@@I@eastl@@@eastl@@QEBAAEBQEAUDescriptorInfo@@AEBU?$pair@QEAUDescriptorInfo@@I@1@@Z
   9A0994 ??R?$use_first@U?$pair@QEBDI@eastl@@@eastl@@QEBAAEBQEBDAEBU?$pair@QEBDI@1@@Z
   9A0994 ??R?$use_first@U?$pair@QEBDPEAUSampler@@@eastl@@@eastl@@QEBAAEBQEBDAEBU?$pair@QEBDPEAUSampler@@@1@@Z
   9A0994 ??RPointerLess@D3D12MA@@QEBA_NPEBX0@Z
   9A0994 ??RSuballocationItemSizeLess@D3D12MA@@QEBA_NViterator@?$List@USuballocation@D3D12MA@@@1@0@Z
   9A0994 ??RSuballocationItemSizeLess@D3D12MA@@QEBA_NViterator@?$List@USuballocation@D3D12MA@@@1@_K@Z
   9A0994 ??Rmod_range_hashing@eastl@@QEBAI_KI@Z
   9A0994 ??S@YA?AW4D3D12_HEAP_FLAGS@@W40@@Z
   9A0994 ??Tstd@@YA?AW4_Node_flags@0@W410@0@Z
   9A0994 ??U@YA?AW4D3D12_HEAP_FLAGS@@W40@0@Z
   9A0994 ??U@YA?AW4D3D12_RESOURCE_FLAGS@@W40@0@Z
   9A0994 ??Uregex_constants@std@@YA?AW4match_flag_type@01@W4201@0@Z
   9A0994 ??Ustd@@YA?AW4_Node_flags@0@W410@0@Z
   9A0994 ??Y?$_Atomic_integral_facade@_K@std@@QEAA_K_K@Z
   9A0994 ??Y?$_Vb_const_iterator@U?$_Wrap_alloc@V?$allocator@I@std@@@std@@@std@@QEAAAEAV01@_J@Z
   9A0994 ??Y?$_Vb_iterator@U?$_Wrap_alloc@V?$allocator@I@std@@@std@@@std@@QEAAAEAV01@_J@Z
   9A0994 ??Y?$_Vector_const_iterator@V?$_Vector_val@U?$_Simple_types@I@std@@@std@@@std@@QEAAAEAV01@_J@Z
   9A0994 ??Y?$_Vector_iterator@V?$_Vector_val@U?$_Simple_types@I@std@@@std@@@std@@QEAAAEAV01@_J@Z
   9A0994 ??Z?$_Atomic_integral_facade@_K@std@@QEAA_K_K@Z
   9A0994 ??_5@YAAEAW4ALLOCATION_FLAGS@D3D12MA@@AEAW401@W401@@Z
   9A0994 ??_5@YAAEAW4D3D12_BUFFER_SRV_FLAGS@@AEAW40@W40@@Z
   9A0994 ??_5@YAAEAW4D3D12_BUFFER_UAV_FLAGS@@AEAW40@W40@@Z
   9A0994 ??_5@YAAEAW4D3D12_CLEAR_FLAGS@@AEAW40@W40@@Z
   9A0994 ??_5@YAAEAW4D3D12_COMMAND_QUEUE_FLAGS@@AEAW40@W40@@Z
   9A0994 ??_5@YAAEAW4D3D12_RESOURCE_FLAGS@@AEAW40@W40@@Z
   9A0994 ??_5@YAAEAW4D3D12_RESOURCE_STATES@@AEAW40@W40@@Z
   9A0994 ??_5@YAAEAW4D3D12_ROOT_SIGNATURE_FLAGS@@AEAW40@W40@@Z
   9A0994 ??_5std@@YAAEAW4_Node_flags@0@AEAW410@W410@@Z
   9A0994 ??_6std@@YAAEAW4_Node_flags@0@AEAW410@W410@@Z
   9A0994 ??_7?$_Node_class@DV?$regex_traits@D@std@@@std@@6B@
   9A0994 ??_7?$_Node_str@D@std@@6B@
   9A0994 ??_7?$collate@D@std@@6B@
   9A0994 ??_7BlockMetadata@D3D12MA@@6B@
   9A0994 ??_7BlockMetadata_Generic@D3D12MA@@6B@
   9A0994 ??_7MemoryBlock@D3D12MA@@6B@
   9A0994 ??_7NormalBlock@D3D12MA@@6B@
   9A0994 ??_7_Node_assert@std@@6B@
   9A0994 ??_7_Node_back@std@@6B@
   9A0994 ??_7_Node_base@std@@6B@
   9A0994 ??_7_Node_capture@std@@6B@
   9A0994 ??_7_Node_end_group@std@@6B@
   9A0994 ??_7_Node_end_rep@std@@6B@
   9A0994 ??_7_Node_endif@std@@6B@
   9A0994 ??_7_Node_if@std@@6B@
   9A0994 ??_7_Node_rep@std@@6B@
   9A0994 ??_7_Root_node@std@@6B@
   9A0994 ??_7bad_alloc@std@@6B@
   9A0994 ??_7bad_array_new_length@std@@6B@
   9A0994 ??_7bad_cast@std@@6B@
   9A0994 ??_7exception@std@@6B@
   9A0994 ??_C@_00CNPNBAHC@@
   9A0994 ??_C@_01LKDEMHDF@s@
   9A0994 ??_C@_01LPLHEDKD@d@
   9A0994 ??_C@_01NOFIACDB@w@
   9A0994 ??_C@_03IMLOALHE@low@
   9A0994 ??_C@_04DGANLAON@high@
   9A0994 ??_C@_04MNFKOLHE@0x00@
   9A0994 ??_C@_05BABJKOGB@blank@
   9A0994 ??_C@_05IAEKHIAN@alpha@
   9A0994 ??_C@_05IGNOIJHB@ultra@
   9A0994 ??_C@_05IIMHCHIO@alnum@
   9A0994 ??_C@_05IJDJACGD@print@
   9A0994 ??_C@_05IPJEPLHL@lower@
   9A0994 ??_C@_05JMDPEFNK@cntrl@
   9A0994 ??_C@_05KCJBMLII@graph@
   9A0994 ??_C@_05KOBGHFJJ@punct@
   9A0994 ??_C@_05NECKJAMC@upper@
   9A0994 ??_C@_05ODNOIFML@digit@
   9A0994 ??_C@_05OLNILLAB@space@
   9A0994 ??_C@_06BAPHGFFK@xdigit@
   9A0994 ??_C@_06HIDOEFBI@medium@
   9A0994 ??_C@_06HILKPKBC@addCmd@
   9A0994 ??_C@_06IDIHINBN@space3@
   9A0994 ??_C@_06JKJMLMFM@space2@
   9A0994 ??_C@_06KIKKNONO@space0@
   9A0994 ??_C@_06LBLBOPJP@space1@
   9A0994 ??_C@_06MDIHCADF@office@
   9A0994 ??_C@_07MGPAEGBH@gpu?4cfg@
   9A0994 ??_C@_07OHADOICE@rootcbv@
   9A0994 ??_C@_08EPJLHIJG@bad?5cast@
   9A0994 ??_C@_08HIIHMDOG@addFence@
   9A0994 ??_C@_08LJACDMMP@addCmd_n@
   9A0994 ??_C@_08MJBODOIE@addQueue@
   9A0994 ??_C@_09BAIDAJGJ@BITANGENT@
   9A0994 ??_C@_09HCAHMGJL@?$CFs?5?$CI?5?$CFs?5?$CJ@
   9A0994 ??_C@_09IKLLJIED@removeCmd@
   9A0994 ??_C@_09KECPEGIB@addBuffer@
   9A0994 ??_C@_09LCPJANAA@AddDevice@
   9A0994 ??_C@_0BA@BGMIICGJ@addRenderTarget@
   9A0994 ??_C@_0BA@CBNNLLLA@freeMemoryStats@
   9A0994 ??_C@_0BA@COIGLLK@addShaderBinary@
   9A0994 ??_C@_0BA@DAMNOPNP@removeQueryPool@
   9A0994 ??_C@_0BA@FOIKENOD@vector?5too?5long@
   9A0994 ??_C@_0BA@JFNIOLAK@string?5too?5long@
   9A0994 ??_C@_0BA@OLMPLGDI@removeSwapChain@
   9A0994 ??_C@_0BB@CGAGNNLC@addDescriptorSet@
   9A0994 ??_C@_0BB@CKDCCKHE@RENDERDOC_GetAPI@
   9A0994 ??_C@_0BB@FDMNFFCJ@UPDATE_FREQ_NONE@
   9A0994 ??_C@_0BB@GDBKNMPA@addRootSignature@
   9A0994 ??_C@_0BB@MIOPGJH@?$CI?$FL0xA?9Fa?9f0?99?$FN?$CL?$CJ@
   9A0994 ??_C@_0BC@EOODALEL@Unknown?5exception@
   9A0994 ??_C@_0BC@PFDEALMP@addVirtualTexture@
   9A0994 ??_C@_0BD@BPACMDDM@removeRenderTarget@
   9A0994 ??_C@_0BD@GJJAPDGL@addComputePipeline@
   9A0994 ??_C@_0BD@LNHCIBDH@utils_caps_builder@
   9A0994 ??_C@_0BE@BFDPHIGH@add_descriptor_heap@
   9A0994 ??_C@_0BE@CKHKMFHC@removePipelineCache@
   9A0994 ??_C@_0BE@DNAOLCII@removeDescriptorSet@
   9A0994 ??_C@_0BE@HIBCLDMK@removeRootSignature@
   9A0994 ??_C@_0BE@JMLNPLAL@addGraphicsPipeline@
   9A0994 ??_C@_0BF@DDCDNKBC@removeVirtualTexture@
   9A0994 ??_C@_0BF@IEFPOCAK@UPDATE_FREQ_PER_DRAW@
   9A0994 ??_C@_0BF@JCDFDLGJ@calculateMemoryStats@
   9A0994 ??_C@_0BF@JJFEIHIH@activeTestingGpu?4cfg@
   9A0994 ??_C@_0BF@KINCDENJ@bad?5array?5new?5length@
   9A0994 ??_C@_0BG@DBCGIKBB@UPDATE_FREQ_PER_FRAME@
   9A0994 ??_C@_0BG@EOMJEIFA@vector?$DMbool?$DO?5too?5long@
   9A0994 ??_C@_0BG@FFAANBLP@UPDATE_FREQ_PER_BATCH@
   9A0994 ??_C@_0BG@MDHIDBEG@add_default_resources@
   9A0994 ??_C@_0BH@BABMFOPA@NVIDIA?5Build?5Branch?5?$CFs@
   9A0994 ??_C@_0BH@NAHNOHGA@remove_descriptor_heap@
   9A0994 ??_C@_0BJ@MBFALPLH@Name?5of?5selected?5gpu?3?5?$CFs@
   9A0994 ??_C@_0BJ@OMIJOMBG@remove_default_resources@
   9A0994 ??_C@_0BK@JNAAKCBC@pCmd?9?$DOpDxCmdList?9?$DOClose?$CI?$CJ@
   9A0994 ??_C@_0BL@DHENPGFO@consume_descriptor_handles@
   9A0994 ??_C@_0BL@GGPHOLJ@pResult?9?$DOGetResult?$CI?$CGpBlob?$CJ@
   9A0994 ??_C@_0BL@ILNLJBOD@Preset?5of?5selected?5gpu?3?5?$CFs@
   9A0994 ??_C@_0BM@CLGCMPKJ@addIndirectCommandSignature@
   9A0994 ??_C@_0BM@FIIJFCPP@Invalid?5DescriptorInfo?5Type@
   9A0994 ??_C@_0BN@GJKMKOLJ@Failed?5to?5acquire?5next?5image@
   9A0994 ??_C@_0BN@PEOBIIKE@Model?5id?5of?5selected?5gpu?3?5?$CFs@
   9A0994 ??_C@_0BO@BKDNOOPD@Invalid?5descriptor?5param?5?$CI?$CFs?$CJ@
   9A0994 ??_C@_0BO@DIPDGJBE@Vendor?5id?5of?5selected?5gpu?3?5?$CFs@
   9A0994 ??_C@_0BO@GCCBMBOH@AMD?5Display?5Driver?5Version?5?$CFu@
   9A0994 ??_C@_0BP@DKKNOEPG@AMD?5Radeon?5Software?5Version?5?$CFs@
   9A0994 ??_C@_0BP@FLECAMKJ@removeIndirectCommandSignature@
   9A0994 ??_C@_0BP@HMLHKPPF@pCmdPool?9?$DOpDxCmdAlloc?9?$DOReset?$CI?$CJ@
   9A0994 ??_C@_0CA@ENMNNBNC@Cannot?5use?5depth?5stencil?5as?5UAV@
   9A0994 ??_C@_0CA@HPOACOI@Revision?5id?5of?5selected?5gpu?3?5?$CFs@
   9A0994 ??_C@_0CA@PJECDHOJ@pResult?9?$DOGetStatus?$CI?$CGresultCode?$CJ@
   9A0994 ??_C@_0CB@IBHPKIKD@pResult?9?$DOGetErrorBuffer?$CI?$CGpError@
   9A0994 ??_C@_0CB@NJABHEBP@NVIDIA?5Display?5Driver?5Version?5?$CF@
   9A0994 ??_C@_0CD@EKIFJHEN@GPU?$FL?$CFd?$FN?5is?5selected?5as?5default?5@
   9A0994 ??_C@_0CF@JEAJPNKD@D3D12SerializeVersionedRootSign@
   9A0994 ??_C@_0CG@EIDEKGAP@No?5gpu?4cfg?5support?4?5Preset?5set?5@
   9A0994 ??_C@_0CK@DNKEKJLM@Failed?5to?5present?5swapchain?5ren@
   9A0994 ??_C@_0CK@LEBPGOMJ@Cannot?5use?5Typed?5UAV?5for?5buffer@
   9A0994 ??_C@_0CK@LJHOBJEA@Trying?5to?5map?5non?9cpu?5accessibl@
   9A0994 ??_C@_0CL@JBIJJPIN@Virtual?5Texture?5info?3?5Dim?5?$CFd?5x?5@
   9A0994 ??_C@_0CL@JFOOGJFF@Hardware?5does?5not?5support?5Shade@
   9A0994 ??_C@_0CM@HEEJMHCM@Multi?9Sampled?5textures?5cannot?5h@
   9A0994 ??_C@_0CM@MOPNOOKN@Trying?5to?5unmap?5non?9cpu?5accessi@
   9A0994 ??_C@_0CN@IHEHLMCG@Office?5preset?5is?5not?5supported?5@
   9A0994 ??_C@_0CO@FFDBDNKA@Selected?5GPU?5has?5an?5Office?5Pres@
   9A0994 ??_C@_0CO@LPPILDLP@D3D12CreateVersionedRootSignatu@
   9A0994 ??_C@_0CO@MGJFJEOK@C?3?2src?2The?9Forge?2Common_3?2OS?2Co@
   9A0994 ??_C@_0DA@GOGCKJDA@Descriptor?5?$CI?$CFs?$CJ?5?3?5User?5specifie@
   9A0994 ??_C@_0DC@CBNDINBH@Allocated?5memory?5in?5special?5pla@
   9A0994 ??_C@_0DD@NABHHGEL@pPipelineCache?9?$DOpLibrary?9?$DOSeria@
   9A0994 ??_C@_0DD@NIONFNAO@Failed?5to?5serialize?5root?5signat@
   9A0994 ??_C@_0DE@EOIFAGKA@Node?5Masking?5can?5only?5be?5used?5w@
   9A0994 ??_C@_0DI@IFFFBFCB@Root?5Signature?5size?5greater?5tha@
   9A0994 ??_C@_0DJ@FECMBGLM@DxcCreateInstance?$CICLSID_DxcUtil@
   9A0994 ??_C@_0DL@OKBICIAJ@pCmd?9?$DOpDxCmdList?9?$DOReset?$CIpCmd?9?$DOp@
   9A0994 ??_C@_0DM@DGAFLGJI@Raw?5buffers?5use?5R32?5typeless?5fo@
   9A0994 ??_C@_0DM@EHEGBJPE@activeTestingGpu?4cfg?5could?5not?5@
   9A0994 ??_C@_0DN@FLGNADIJ@C?3?2src?2The?9Forge?2Common_3?2Rende@
   9A0994 ??_C@_0DN@IKNABCCN@DxcCreateInstance?$CICLSID_DxcLibr@
   9A0994 ??_C@_0DO@BMLEDKMP@Image?5Format?5?$CI?$CFu?$CJ?5not?5supported@
   9A0994 ??_C@_0DO@INNIGDJ@CreateDXGIFactory2?$CIflags?0?5IID_A@
   9A0994 ??_C@_0DO@JJBLFLJO@pSwapChain?9?$DOpDxSwapChain?9?$DOGetBu@
   9A0994 ??_C@_0DP@IEJNLGFG@swapchain?9?$DOQueryInterface?$CIIID_A@
   9A0994 ??_C@_0DP@JNEDBMPN@DxcCreateInstance?$CICLSID_DxcComp@
   9A0994 ??_C@_0DP@PGHBHDCO@Descriptor?5?$CI?$CFs?$CJ?5?3?5User?5specifie@
   9A0994 ??_C@_0EA@CJGAEMDF@D3D12MA?3?3CreateAllocator?$CI?$CGdesc?0@
   9A0994 ??_C@_0EA@DNJENGNH@gpu?4cfg?5could?5not?5be?5found?0?5set@
   9A0994 ??_C@_0EA@GBJIDCLH@?$CFs?$DL?5?$CFs?$DL?5?$CI?$FLA?9Za?9z?$FN?$CL?$CJ?$DL?5?$CI?$FLA?9Za?9z0?9@
   9A0994 ??_C@_0EA@NPNJABGO@C?3?2src?2The?9Forge?2Common_3?2Third@
   9A0994 ??_C@_0EC@BOFBCMMG@pBuffer?9?$DOpDxResource?9?$DOMap?$CI0?0?5?$CGr@
   9A0994 ??_C@_0EC@JEHNABMO@Sample?5Count?5?$CI?$CFu?$CJ?5not?5supported@
   9A0994 ??_C@_0ED@FPNDNFMM@psoCache?9?$DOStorePipeline?$CIpipelin@
   9A0994 ??_C@_0EE@HBDAHEJM@C?3?2src?2The?9Forge?2Common_3?2Third@
   9A0994 ??_C@_0EF@IDBNALDI@The?5only?5available?5GPU?5has?5DXGI@
   9A0994 ??_C@_0EF@IPILLGCM@pDevice?9?$DOCreateDescriptorHeap?$CI?$CG@
   9A0994 ??_C@_0EF@JHPNHNIG@initRenderer?3?3?$DMlambda_58614d201@
   9A0994 ??_C@_0EF@KIIEPAIB@initRenderer?3?3?$DMlambda_128f6f869@
   9A0994 ??_C@_0EF@OKCHFMDA@C?3?2src?2The?9Forge?2Common_3?2Rende@
   9A0994 ??_C@_0EF@PALBNBAF@Dx12?5Doesn?8t?5support?5Descriptor@
   9A0994 ??_C@_0EL@CBEFDOIP@gpuDesc?$FLgpuIndex?$FN?4pGpu?9?$DOQueryIn@
   9A0994 ??_C@_0EM@NNECJHHD@pRenderer?9?$DOpDXGIFactory?9?$DOMakeWi@
   9A0994 ??_C@_0EP@CBCHGPIE@hook_create_command_queue?$CIpRend@
   9A0994 ??_C@_0EP@MNPKIBBI@Pipeline?5Cache?5Library?5feature?5@
   9A0994 ??_C@_0FG@GJFINJOF@hook_create_copy_cmd?$CIpRenderer?9@
   9A0994 ??_C@_0FJ@CCAAFMCC@GPU?$FL?$CFi?$FN?5detected?4?5Vendor?5ID?3?5?$CFx@
   9A0994 ??_C@_0FJ@PEANPEHK@pRenderer?9?$DOpDxDevice?9?$DOCreateFen@
   9A0994 ??_C@_0FK@DGBKLKK@pLibrary?9?$DOCreateBlobWithEncodin@
   9A0994 ??_C@_0GI@LBOHFENJ@pRenderer?9?$DOpDxDevice?9?$DOCreateRes@
   9A0994 ??_C@_0HA@HBHMALAM@Root?5constant?5?$CI?$CFs?$CJ?5has?5?$CI?$CFu?$CJ?532?5@
   9A0994 ??_C@_0HA@HMKDFLE@D3D12?5does?5not?5support?5host?5vis@
   9A0994 ??_C@_0HJ@BNDFFLGJ@D3D12CreateDevice?$CIpRenderer?9?$DOpD@
   9A0994 ??_C@_0HK@JAGCFCGG@pRenderer?9?$DOpDXGIFactory?9?$DOCreate@
   9A0994 ??_C@_0HO@HPNLFGBM@pRenderer?9?$DOpDxDevice?9?$DOCreateCom@
   9A0994 ??_C@_0II@IFDHENOE@pRenderer?9?$DOpDxDevice?9?$DOCreateHea@
   9A0994 ??_C@_0IO@DFEOIEAM@pRenderer?9?$DOpResourceAllocator?9?$DO@
   9A0994 ??_C@_0IP@FFLGIBHH@pRenderer?9?$DOpDxDevice?9?$DOCreateCom@
   9A0994 ??_C@_0JA@DPOHLNKC@?6RenderDoc?5does?5not?5support?5SM?5@
   9A0994 ??_C@_0JH@GHDOMFGL@pRenderer?9?$DOpResourceAllocator?9?$DO@
   9A0994 ??_C@_0JK@EGEHBLHE@pCompiler?9?$DOCompile?$CI?5pTextBlob?0?5@
   9A0994 ??_C@_0KH@KKFFHONG@pRenderer?9?$DOpDxDevice?9?$DOCreateCom@
   9A0994 ??_C@_0KJ@EHIDJNFK@hook_create_compute_pipeline_st@
   9A0994 ??_C@_0KK@LBEIBJFO@hook_create_graphics_pipeline_s@
   9A0994 ??_C@_0L@CMHOFHOG@addTexture@
   9A0994 ??_C@_0L@EFJEGGHC@addSampler@
   9A0994 ??_C@_0L@GKGPONAP@COMPUTEPSO@
   9A0994 ??_C@_0L@NDCCFGAG@addCmdPool@
   9A0994 ??_C@_0LK@JPMCLPOG@pRenderer?9?$DOpDxDevice?9?$DOCreateCom@
   9A0994 ??_C@_0M@HIJLFNIG@removeFence@
   9A0994 ??_C@_0M@LJBOKCKP@removeCmd_n@
   9A0994 ??_C@_0M@MJACKAOE@removeQueue@
   9A0994 ??_C@_0M@OMKLMGEI@GRAPHICSPSO@
   9A0994 ??_C@_0MB@BCLPJDJH@?6Failed?5to?5create?5root?5signatur@
   9A0994 ??_C@_0ME@PDCCPNHH@?6Failed?5to?5create?5root?5signatur@
   9A0994 ??_C@_0ML@NHHAOEEB@?6Failed?5to?5create?5root?5signatur@
   9A0994 ??_C@_0N@BKBBNAHL@addQueryPool@
   9A0994 ??_C@_0N@CDAHGEMM@initRenderer@
   9A0994 ??_C@_0N@IPFFKJOD@removeShader@
   9A0994 ??_C@_0N@LPFKKEBD@?3AM?3am?3PM?3pm@
   9A0994 ??_C@_0N@MBBDIJJM@addSwapChain@
   9A0994 ??_C@_0N@OJJNDLEH@removeBuffer@
   9A0994 ??_C@_0N@PAKDAPMH@rootconstant@
   9A0994 ??_C@_0ND@HFJEMDLE@pRenderer?9?$DOpDxDevice?9?$DOCreateRoo@
   9A0994 ??_C@_0O@BLGDOODB@renderdoc?4dll@
   9A0994 ??_C@_0O@DHNOLDIK@removeSampler@
   9A0994 ??_C@_0O@FJDLNGK@compileShader@
   9A0994 ??_C@_0O@FODEICBO@removeTexture@
   9A0994 ??_C@_0O@KBGIIDPO@removeCmdPool@
   9A0994 ??_C@_0P@MCCMPGGA@EASTL?5hash_map@
   9A0994 ??_C@_0P@PDHKFHPC@removeRenderer@
   9A0994 ??_C@_0P@PFEAIHJF@removePipeline@
   9A0994 ??_C@_13CIFDLIMG@?$AAw@
   9A0994 ??_C@_13GKPPEALH@?$AAd@
   9A0994 ??_C@_13JGCMLPCH@?$AA1@
   9A0994 ??_C@_13KHDBCPJB@?$AAs@
   9A0994 ??_C@_15BDBDFPAD@?$AA?9?$AAI@
   9A0994 ??_C@_15OJKDPEFE@?$AA?5?$AA?5@
   9A0994 ??_C@_17BDJFMEAJ@?$AA?9?$AAZ?$AAi@
   9A0994 ??_C@_17EFGGKDCG@?$AAM?$AAa?$AAx@
   9A0994 ??_C@_17EGAMDID@?$AAA?$AAv?$AAg@
   9A0994 ??_C@_17EJNIBMAF@?$AAG?$AAP?$AAU@
   9A0994 ??_C@_17MNJCBCPP@?$AAC?$AAP?$AAU@
   9A0994 ??_C@_17NMEHCJAI@?$AAM?$AAi?$AAn@
   9A0994 ??_C@_17OEDOLIOH@?$AA?9?$AAO?$AA3@
   9A0994 ??_C@_19BIEPDBPA@?$AAT?$AAy?$AAp?$AAe@
   9A0994 ??_C@_19CHLDDIME@?$AAS?$AAi?$AAz?$AAe@
   9A0994 ??_C@_19DINFBLAK@?$AAN?$AAa?$AAm?$AAe@
   9A0994 ??_C@_19DJCNLLCE@?$AAn?$AAu?$AAl?$AAl@
   9A0994 ??_C@_19FKLFLPMF@?$AAt?$AAr?$AAu?$AAe@
   9A0994 ??_C@_19GLINCHAF@?$AAF?$AAR?$AAE?$AAE@
   9A0994 ??_C@_19NACPGGMO@?$AAm?$AAa?$AAi?$AAn@
   9A0994 ??_C@_1BA@HABJOAEE@?$AAU?$AAN?$AAK?$AAN?$AAO?$AAW?$AAN@
   9A0994 ??_C@_1BA@HOEKBGIK@?$AA?$CF?$AAS?$AA_?$AAS?$AA?$CF?$AAz?$AAu@
   9A0994 ??_C@_1BA@KDAEEGIF@?$AAD?$AAE?$AAF?$AAA?$AAU?$AAL?$AAT@
   9A0994 ??_C@_1BC@CFCFEAFJ@?$AAc?$AAs?$AA_?$AA?$CF?$AAd?$AA_?$AA?$CF?$AAd@
   9A0994 ??_C@_1BC@COINJHFP@?$AAg?$AAs?$AA_?$AA?$CF?$AAd?$AA_?$AA?$CF?$AAd@
   9A0994 ??_C@_1BC@IELHELN@?$AAR?$AAE?$AAA?$AAD?$AAB?$AAA?$AAC?$AAK@
   9A0994 ??_C@_1BC@MEALEKDN@?$AAd?$AAs?$AA_?$AA?$CF?$AAd?$AA_?$AA?$CF?$AAd@
   9A0994 ??_C@_1BC@NIPCDDDH@?$AAh?$AAs?$AA_?$AA?$CF?$AAd?$AA_?$AA?$CF?$AAd@
   9A0994 ??_C@_1BC@OBAAMBCD@?$AAp?$AAs?$AA_?$AA?$CF?$AAd?$AA_?$AA?$CF?$AAd@
   9A0994 ??_C@_1BC@OPHMHNKG@?$AAv?$AAs?$AA_?$AA?$CF?$AAd?$AA_?$AA?$CF?$AAd@
   9A0994 ??_C@_1BE@BDHHCKLA@?$AAT?$AAE?$AAX?$AAT?$AAU?$AAR?$AAE?$AA1?$AAD@
   9A0994 ??_C@_1BE@CELECPBL@?$AAU?$AAs?$AAe?$AAd?$AAB?$AAy?$AAt?$AAe?$AAs@
   9A0994 ??_C@_1BE@FOLPILLL@?$AAT?$AAE?$AAX?$AAT?$AAU?$AAR?$AAE?$AA3?$AAD@
   9A0994 ??_C@_1BE@JFODFIBO@?$AAT?$AAE?$AAX?$AAT?$AAU?$AAR?$AAE?$AA2?$AAD@
   9A0994 ??_C@_1BE@NPFABCMP@?$AA?5?$AA?$CL?$AA?5?$AAb?$AAu?$AAf?$AAf?$AAe?$AAr@
   9A0994 ??_C@_1BE@OLBDLDOP@?$AAl?$AAi?$AAb?$AA_?$AA?$CF?$AAd?$AA_?$AA?$CF?$AAd@
   9A0994 ??_C@_1BG@BHDJPMDF@?$AAT?$AAo?$AAt?$AAa?$AAl?$AAB?$AAy?$AAt?$AAe?$AAs@
   9A0994 ??_C@_1BG@EHPKFGA@?$AAU?$AAs?$AAa?$AAg?$AAe?$AAB?$AAy?$AAt?$AAe?$AAs@
   9A0994 ??_C@_1BG@FCIPABOL@?$AAB?$AAl?$AAo?$AAc?$AAk?$AAB?$AAy?$AAt?$AAe?$AAs@
   9A0994 ??_C@_1BG@MIPICEBI@?$AAC?$AAO?$AAP?$AAY?$AA?5?$AAQ?$AAU?$AAE?$AAU?$AAE@
   9A0994 ??_C@_1BG@NKOOFHKC@?$AA?5?$AA?$CL?$AA?5?$AAt?$AAe?$AAx?$AAt?$AAu?$AAr?$AAe@
   9A0994 ??_C@_1BI@KDOKFADB@?$AAD?$AAe?$AAt?$AAa?$AAi?$AAl?$AAe?$AAd?$AAM?$AAa?$AAp@
   9A0994 ??_C@_1BI@KKKLJNMJ@?$AAU?$AAn?$AAu?$AAs?$AAe?$AAd?$AAB?$AAy?$AAt?$AAe?$AAs@
   9A0994 ??_C@_1BI@LAMDDJD@?$AAB?$AAu?$AAd?$AAg?$AAe?$AAt?$AAB?$AAy?$AAt?$AAe?$AAs@
   9A0994 ??_C@_1BI@NEPLADAM@?$AA?$CF?$AAS?$AA_?$AAS?$AA?$CF?$AAz?$AAu?$AAR?$AA?$CF?$AAz?$AAu@
   9A0994 ??_C@_1BI@PICIBOND@?$AAA?$AAl?$AAl?$AAo?$AAc?$AAa?$AAt?$AAi?$AAo?$AAn?$AAs@
   9A0994 ??_C@_1BK@CGIMHGJD@?$AAU?$AAn?$AAu?$AAs?$AAe?$AAd?$AAR?$AAa?$AAn?$AAg?$AAe?$AAs@
   9A0994 ??_C@_1BK@KHOFIPFD@?$AAD?$AAe?$AAf?$AAa?$AAu?$AAl?$AAt?$AAP?$AAo?$AAo?$AAl?$AAs@
   9A0994 ??_C@_1BK@KNLKBBEJ@?$AAU?$AAn?$AAu?$AAs?$AAu?$AAe?$AAd?$AAB?$AAy?$AAt?$AAe?$AAs@
   9A0994 ??_C@_1BK@MHIKGOKE@?$AA?3?$AAA?$AAM?$AA?3?$AAa?$AAm?$AA?3?$AAP?$AAM?$AA?3?$AAp?$AAm@
   9A0994 ??_C@_1BM@LHDDHIPG@?$AAC?$AAO?$AAM?$AAP?$AAU?$AAT?$AAE?$AA?5?$AAQ?$AAU?$AAE?$AAU?$AAE@
   9A0994 ??_C@_1BO@JAAPFLML@?$AAS?$AAu?$AAb?$AAa?$AAl?$AAl?$AAo?$AAc?$AAa?$AAt?$AAi?$AAo?$AAn?$AAs@
   9A0994 ??_C@_1BO@LDJDHDAN@?$AAA?$AAl?$AAl?$AAo?$AAc?$AAa?$AAt?$AAi?$AAo?$AAn?$AAS?$AAi?$AAz?$AAe@
   9A0994 ??_C@_1BO@PGIDPBGJ@?$AAG?$AAR?$AAA?$AAP?$AAH?$AAI?$AAC?$AAS?$AA?5?$AAQ?$AAU?$AAE?$AAU?$AAE@
   9A0994 ??_C@_1CA@FAJHNDIF@?$AAU?$AAn?$AAu?$AAs?$AAe?$AAd?$AAR?$AAa?$AAn?$AAg?$AAe?$AAS?$AAi?$AAz?$AAe@
   9A0994 ??_C@_1CA@KALBNAGD@?$AAA?$AAl?$AAl?$AAo?$AAc?$AAa?$AAt?$AAi?$AAo?$AAn?$AAB?$AAy?$AAt?$AAe?$AAs@
   9A0994 ??_C@_1CG@GAJKCLGK@?$AAC?$AAr?$AAe?$AAa?$AAt?$AAi?$AAo?$AAn?$AAF?$AAr?$AAa?$AAm?$AAe?$AAI?$AAn@
   9A0994 ??_C@_1CI@DICEINMA@?$AA?5?$AA?$CL?$AA?5?$AAt?$AAe?$AAx?$AAt?$AAu?$AAr?$AAe?$AA?5?$AAR?$AAT?$AA?5?$AAo@
   9A0994 ??_C@_1CK@GAFGEABK@?$AA?9?$AAa?$AAl?$AAl?$AA_?$AAr?$AAe?$AAs?$AAo?$AAu?$AAr?$AAc?$AAe?$AAs?$AA_@
   9A0994 ??_C@_1CK@OBHEAOEK@?$AAC?$AAo?$AAm?$AAm?$AAi?$AAt?$AAt?$AAe?$AAd?$AAA?$AAl?$AAl?$AAo?$AAc?$AAa@
   9A0994 ??_C@_1M@BPFMAOAO@?$AAp?$AAu?$AAn?$AAc?$AAt@
   9A0994 ??_C@_1M@BPJAMDA@?$AAT?$AAo?$AAt?$AAa?$AAl@
   9A0994 ??_C@_1M@DHGLHBMI@?$AAa?$AAl?$AAp?$AAh?$AAa@
   9A0994 ??_C@_1M@EJAAJBPE@?$AAb?$AAl?$AAa?$AAn?$AAk@
   9A0994 ??_C@_1M@ELNLAPLA@?$AAp?$AAr?$AAi?$AAn?$AAt@
   9A0994 ??_C@_1M@HLGKFCJM@?$AAf?$AAa?$AAl?$AAs?$AAe@
   9A0994 ??_C@_1M@JDAEIBKG@?$AAd?$AAi?$AAg?$AAi?$AAt@
   9A0994 ??_C@_1M@KLMEPMCM@?$AAa?$AAl?$AAn?$AAu?$AAm@
   9A0994 ??_C@_1M@LGAECJJD@?$AAl?$AAo?$AAw?$AAe?$AAr@
   9A0994 ??_C@_1M@LMIMILA@?$AAc?$AAn?$AAt?$AAr?$AAl@
   9A0994 ??_C@_1M@LPGODFOM@?$AAs?$AAp?$AAa?$AAc?$AAe@
   9A0994 ??_C@_1M@MDKNJLLK@?$AAg?$AAr?$AAa?$AAp?$AAh@
   9A0994 ??_C@_1M@MFIKEBB@?$AAD?$AA3?$AAD?$AA1?$AA2@
   9A0994 ??_C@_1M@OAJFFPML@?$AAF?$AAl?$AAa?$AAg?$AAs@
   9A0994 ??_C@_1M@PLNFCNIC@?$AAu?$AAp?$AAp?$AAe?$AAr@
   9A0994 ??_C@_1O@BFNOFIAI@?$AAU?$AAP?$AAL?$AAO?$AAA?$AAD@
   9A0994 ??_C@_1O@EKNKHHHP@?$AAL?$AAa?$AAy?$AAo?$AAu?$AAt@
   9A0994 ??_C@_1O@GIIMHIAD@?$AAB?$AAU?$AAF?$AAF?$AAE?$AAR@
   9A0994 ??_C@_1O@IMDMOHAK@?$AAB?$AAu?$AAd?$AAg?$AAe?$AAt@
   9A0994 ??_C@_1O@KFFDCJOC@?$AA?$CF?$AAl?$AAs?$AA?5?$AA?$CF?$AAu@
   9A0994 ??_C@_1O@LMEEEHLB@?$AAO?$AAf?$AAf?$AAs?$AAe?$AAt@
   9A0994 ??_C@_1O@MGPKJMKD@?$AAB?$AAl?$AAo?$AAc?$AAk?$AAs@
   9A0994 ??_C@_1O@OAFMJDHN@?$AAx?$AAd?$AAi?$AAg?$AAi?$AAt@
   9A0994 ??_G?$Vector@PEAVAllocation@D3D12MA@@@D3D12MA@@QEAAPEAXI@Z
   9A0994 ??_G?$Vector@PEAVPool@D3D12MA@@@D3D12MA@@QEAAPEAXI@Z
   9A0994 ??_G?$_Buf@D@std@@QEAAPEAXI@Z
   9A0994 ??_G?$_Node_class@DV?$regex_traits@D@std@@@std@@UEAAPEAXI@Z
   9A0994 ??_G?$_Node_str@D@std@@UEAAPEAXI@Z
   9A0994 ??_G?$_Sequence@D@std@@QEAAPEAXI@Z
   9A0994 ??_G?$collate@D@std@@MEAAPEAXI@Z
   9A0994 ??_G?$string_hash_map@IU?$hash@PEBD@eastl@@U?$str_equal_to@PEBD@2@Vallocator_forge@2@@eastl@@QEAAPEAXI@Z
   9A0994 ??_G?$vector@UDescriptorHandle@DescriptorHeap@@Vallocator_forge@eastl@@@eastl@@QEAAPEAXI@Z
   9A0994 ??_GAllocation@D3D12MA@@AEAAPEAXI@Z
   9A0994 ??_GAllocator@D3D12MA@@AEAAPEAXI@Z
   9A0994 ??_GAllocatorPimpl@D3D12MA@@QEAAPEAXI@Z
   9A0994 ??_GBlockMetadata@D3D12MA@@UEAAPEAXI@Z
   9A0994 ??_GBlockMetadata_Generic@D3D12MA@@UEAAPEAXI@Z
   9A0994 ??_GBlockVector@D3D12MA@@QEAAPEAXI@Z
   9A0994 ??_GMemoryBlock@D3D12MA@@UEAAPEAXI@Z
   9A0994 ??_GNormalBlock@D3D12MA@@UEAAPEAXI@Z
   9A0994 ??_GPool@D3D12MA@@AEAAPEAXI@Z
   9A0994 ??_GPoolPimpl@D3D12MA@@QEAAPEAXI@Z
   9A0994 ??_G_Node_assert@std@@UEAAPEAXI@Z
   9A0994 ??_G_Node_back@std@@UEAAPEAXI@Z
   9A0994 ??_G_Node_base@std@@UEAAPEAXI@Z
   9A0994 ??_G_Node_capture@std@@UEAAPEAXI@Z
   9A0994 ??_G_Node_end_group@std@@UEAAPEAXI@Z
   9A0994 ??_G_Node_end_rep@std@@UEAAPEAXI@Z
   9A0994 ??_G_Node_endif@std@@UEAAPEAXI@Z
   9A0994 ??_G_Node_if@std@@UEAAPEAXI@Z
   9A0994 ??_G_Node_rep@std@@UEAAPEAXI@Z
   9A0994 ??_G_Root_node@std@@UEAAPEAXI@Z
   9A0994 ??_Gbad_alloc@std@@UEAAPEAXI@Z
   9A0994 ??_Gbad_array_new_length@std@@UEAAPEAXI@Z
   9A0994 ??_Gbad_cast@std@@UEAAPEAXI@Z
   9A0994 ??_Gexception@std@@UEAAPEAXI@Z
   9A0994 ??_H@YAXPEAX_K1P6APEAX0@Z@Z
   9A0994 ??_R0?AU_Crt_new_delete@std@@@8
   9A0994 ??_R0?AV?$_Node_class@DV?$regex_traits@D@std@@@std@@@8
   9A0994 ??_R0?AV?$_Node_str@D@std@@@8
   9A0994 ??_R0?AV?$collate@D@std@@@8
   9A0994 ??_R0?AVBlockMetadata@D3D12MA@@@8
   9A0994 ??_R0?AVBlockMetadata_Generic@D3D12MA@@@8
   9A0994 ??_R0?AVMemoryBlock@D3D12MA@@@8
   9A0994 ??_R0?AVNormalBlock@D3D12MA@@@8
   9A0994 ??_R0?AV_Facet_base@std@@@8
   9A0994 ??_R0?AV_Node_assert@std@@@8
   9A0994 ??_R0?AV_Node_back@std@@@8
   9A0994 ??_R0?AV_Node_base@std@@@8
   9A0994 ??_R0?AV_Node_capture@std@@@8
   9A0994 ??_R0?AV_Node_end_group@std@@@8
   9A0994 ??_R0?AV_Node_end_rep@std@@@8
   9A0994 ??_R0?AV_Node_endif@std@@@8
   9A0994 ??_R0?AV_Node_if@std@@@8
   9A0994 ??_R0?AV_Node_rep@std@@@8
   9A0994 ??_R0?AV_Root_node@std@@@8
   9A0994 ??_R0?AVbad_alloc@std@@@8
   9A0994 ??_R0?AVbad_array_new_length@std@@@8
   9A0994 ??_R0?AVbad_cast@std@@@8
   9A0994 ??_R0?AVexception@std@@@8
   9A0994 ??_R0?AVfacet@locale@std@@@8
   9A0994 ??_R17?0A@EA@_Crt_new_delete@std@@8
   9A0994 ??_R1A@?0A@EA@?$_Node_class@DV?$regex_traits@D@std@@@std@@8
   9A0994 ??_R1A@?0A@EA@?$_Node_str@D@std@@8
   9A0994 ??_R1A@?0A@EA@?$collate@D@std@@8
   9A0994 ??_R1A@?0A@EA@BlockMetadata@D3D12MA@@8
   9A0994 ??_R1A@?0A@EA@BlockMetadata_Generic@D3D12MA@@8
   9A0994 ??_R1A@?0A@EA@MemoryBlock@D3D12MA@@8
   9A0994 ??_R1A@?0A@EA@NormalBlock@D3D12MA@@8
   9A0994 ??_R1A@?0A@EA@_Crt_new_delete@std@@8
   9A0994 ??_R1A@?0A@EA@_Facet_base@std@@8
   9A0994 ??_R1A@?0A@EA@_Node_assert@std@@8
   9A0994 ??_R1A@?0A@EA@_Node_back@std@@8
   9A0994 ??_R1A@?0A@EA@_Node_base@std@@8
   9A0994 ??_R1A@?0A@EA@_Node_capture@std@@8
   9A0994 ??_R1A@?0A@EA@_Node_end_group@std@@8
   9A0994 ??_R1A@?0A@EA@_Node_end_rep@std@@8
   9A0994 ??_R1A@?0A@EA@_Node_endif@std@@8
   9A0994 ??_R1A@?0A@EA@_Node_if@std@@8
   9A0994 ??_R1A@?0A@EA@_Node_rep@std@@8
   9A0994 ??_R1A@?0A@EA@_Root_node@std@@8
   9A0994 ??_R1A@?0A@EA@bad_alloc@std@@8
   9A0994 ??_R1A@?0A@EA@bad_array_new_length@std@@8
   9A0994 ??_R1A@?0A@EA@bad_cast@std@@8
   9A0994 ??_R1A@?0A@EA@exception@std@@8
   9A0994 ??_R1A@?0A@EA@facet@locale@std@@8
   9A0994 ??_R2?$_Node_class@DV?$regex_traits@D@std@@@std@@8
   9A0994 ??_R2?$_Node_str@D@std@@8
   9A0994 ??_R2?$collate@D@std@@8
   9A0994 ??_R2BlockMetadata@D3D12MA@@8
   9A0994 ??_R2BlockMetadata_Generic@D3D12MA@@8
   9A0994 ??_R2MemoryBlock@D3D12MA@@8
   9A0994 ??_R2NormalBlock@D3D12MA@@8
   9A0994 ??_R2_Crt_new_delete@std@@8
   9A0994 ??_R2_Facet_base@std@@8
   9A0994 ??_R2_Node_assert@std@@8
   9A0994 ??_R2_Node_back@std@@8
   9A0994 ??_R2_Node_base@std@@8
   9A0994 ??_R2_Node_capture@std@@8
   9A0994 ??_R2_Node_end_group@std@@8
   9A0994 ??_R2_Node_end_rep@std@@8
   9A0994 ??_R2_Node_endif@std@@8
   9A0994 ??_R2_Node_if@std@@8
   9A0994 ??_R2_Node_rep@std@@8
   9A0994 ??_R2_Root_node@std@@8
   9A0994 ??_R2bad_alloc@std@@8
   9A0994 ??_R2bad_array_new_length@std@@8
   9A0994 ??_R2bad_cast@std@@8
   9A0994 ??_R2exception@std@@8
   9A0994 ??_R2facet@locale@std@@8
   9A0994 ??_R3?$_Node_class@DV?$regex_traits@D@std@@@std@@8
   9A0994 ??_R3?$_Node_str@D@std@@8
   9A0994 ??_R3?$collate@D@std@@8
   9A0994 ??_R3BlockMetadata@D3D12MA@@8
   9A0994 ??_R3BlockMetadata_Generic@D3D12MA@@8
   9A0994 ??_R3MemoryBlock@D3D12MA@@8
   9A0994 ??_R3NormalBlock@D3D12MA@@8
   9A0994 ??_R3_Crt_new_delete@std@@8
   9A0994 ??_R3_Facet_base@std@@8
   9A0994 ??_R3_Node_assert@std@@8
   9A0994 ??_R3_Node_back@std@@8
   9A0994 ??_R3_Node_base@std@@8
   9A0994 ??_R3_Node_capture@std@@8
   9A0994 ??_R3_Node_end_group@std@@8
   9A0994 ??_R3_Node_end_rep@std@@8
   9A0994 ??_R3_Node_endif@std@@8
   9A0994 ??_R3_Node_if@std@@8
   9A0994 ??_R3_Node_rep@std@@8
   9A0994 ??_R3_Root_node@std@@8
   9A0994 ??_R3bad_alloc@std@@8
   9A0994 ??_R3bad_array_new_length@std@@8
   9A0994 ??_R3bad_cast@std@@8
   9A0994 ??_R3exception@std@@8
   9A0994 ??_R3facet@locale@std@@8
   9A0994 ??_R4?$_Node_class@DV?$regex_traits@D@std@@@std@@6B@
   9A0994 ??_R4?$_Node_str@D@std@@6B@
   9A0994 ??_R4?$collate@D@std@@6B@
   9A0994 ??_R4BlockMetadata@D3D12MA@@6B@
   9A0994 ??_R4BlockMetadata_Generic@D3D12MA@@6B@
   9A0994 ??_R4MemoryBlock@D3D12MA@@6B@
   9A0994 ??_R4NormalBlock@D3D12MA@@6B@
   9A0994 ??_R4_Node_assert@std@@6B@
   9A0994 ??_R4_Node_back@std@@6B@
   9A0994 ??_R4_Node_base@std@@6B@
   9A0994 ??_R4_Node_capture@std@@6B@
   9A0994 ??_R4_Node_end_group@std@@6B@
   9A0994 ??_R4_Node_end_rep@std@@6B@
   9A0994 ??_R4_Node_endif@std@@6B@
   9A0994 ??_R4_Node_if@std@@6B@
   9A0994 ??_R4_Node_rep@std@@6B@
   9A0994 ??_R4_Root_node@std@@6B@
   9A0994 ??_R4bad_alloc@std@@6B@
   9A0994 ??_R4bad_array_new_length@std@@6B@
   9A0994 ??_R4bad_cast@std@@6B@
   9A0994 ??_R4exception@std@@6B@
   9A0994 ?Add@StringBuilder@D3D12MA@@QEAAXPEB_W@Z
   9A0994 ?Add@StringBuilder@D3D12MA@@QEAAX_W@Z
   9A0994 ?AddAllocation@CurrentBudgetData@D3D12MA@@QEAAXI_K@Z
   9A0994 ?AddAllocationToObject@JsonWriter@D3D12MA@@QEAAXAEBVAllocation@2@@Z
   9A0994 ?AddNewLine@StringBuilder@D3D12MA@@QEAAXXZ
   9A0994 ?AddNumber@StringBuilder@D3D12MA@@QEAAXI@Z
   9A0994 ?AddNumber@StringBuilder@D3D12MA@@QEAAX_K@Z
   9A0994 ?AddStats@BlockVector@D3D12MA@@QEAAXAEAUStatInfo@2@@Z
   9A0994 ?AddStats@BlockVector@D3D12MA@@QEAAXAEAUStats@2@@Z
   9A0994 ?Alloc@BlockMetadata_Generic@D3D12MA@@UEAAXAEBUAllocationRequest@2@_KPEAVAllocation@2@@Z
   9A0994 ?Allocate@BlockVector@D3D12MA@@QEAAJ_K0AEBUALLOCATION_DESC@2@0PEAPEAVAllocation@2@@Z
   9A0994 ?AllocateCommittedResource@AllocatorPimpl@D3D12MA@@AEAAJPEBUALLOCATION_DESC@2@PEBUD3D12_RESOURCE_DESC@@AEBUD3D12_RESOURCE_ALLOCATION_INFO@@W4D3D12_RESOURCE_STATES@@PEBUD3D12_CLEAR_VALUE@@PEAPEAVAllocation@2@AEBU_GUID@@PEAPEAX@Z
   9A0994 ?AllocateFromBlock@BlockVector@D3D12MA@@AEAAJPEAVNormalBlock@2@_K1W4ALLOCATION_FLAGS@2@AEBUALLOCATION_DESC@2@PEAPEAVAllocation@2@@Z
   9A0994 ?AllocateHeap@AllocatorPimpl@D3D12MA@@AEAAJPEBUALLOCATION_DESC@2@AEBUD3D12_RESOURCE_ALLOCATION_INFO@@PEAPEAVAllocation@2@@Z
   9A0994 ?AllocateMemory@Allocator@D3D12MA@@QEAAJPEBUALLOCATION_DESC@2@PEBUD3D12_RESOURCE_ALLOCATION_INFO@@PEAPEAVAllocation@2@@Z
   9A0994 ?AllocateMemory@AllocatorPimpl@D3D12MA@@QEAAJPEBUALLOCATION_DESC@2@PEBUD3D12_RESOURCE_ALLOCATION_INFO@@PEAPEAVAllocation@2@@Z
   9A0994 ?AllocatePage@BlockVector@D3D12MA@@AEAAJ_K0AEBUALLOCATION_DESC@2@PEAPEAVAllocation@2@@Z
   9A0994 ?Back@?$List@USuballocation@D3D12MA@@@D3D12MA@@QEAAPEAUItem@12@XZ
   9A0994 ?BeginArray@JsonWriter@D3D12MA@@QEAAX_N@Z
   9A0994 ?BeginObject@JsonWriter@D3D12MA@@QEAAX_N@Z
   9A0994 ?BeginString@JsonWriter@D3D12MA@@QEAAXPEB_W@Z
   9A0994 ?BeginValue@JsonWriter@D3D12MA@@AEAAX_N@Z
   9A0994 ?BuildStatsString@Allocator@D3D12MA@@QEAAXPEAPEA_WH@Z
   9A0994 ?BuildStatsString@AllocatorPimpl@D3D12MA@@QEAAXPEAPEA_WH@Z
   9A0994 ?CalcAllocationStatInfo@BlockMetadata_Generic@D3D12MA@@UEBAXAEAUStatInfo@2@@Z
   9A0994 ?CalcDefaultPoolCount@AllocatorPimpl@D3D12MA@@AEBAIXZ
   9A0994 ?CalcDefaultPoolIndex@AllocatorPimpl@D3D12MA@@AEBAIAEBUALLOCATION_DESC@2@@Z
   9A0994 ?CalcDefaultPoolIndex@AllocatorPimpl@D3D12MA@@AEBAIAEBUALLOCATION_DESC@2@AEBUD3D12_RESOURCE_DESC@@@Z
   9A0994 ?CalcDefaultPoolIndex@AllocatorPimpl@D3D12MA@@AEBAIW4D3D12_HEAP_TYPE@@W4D3D12_HEAP_FLAGS@@@Z
   9A0994 ?CalcDefaultPoolIndex@AllocatorPimpl@D3D12MA@@CAIW4D3D12_HEAP_TYPE@@W4D3D12_HEAP_FLAGS@@_N@Z
   9A0994 ?CalcDefaultPoolParams@AllocatorPimpl@D3D12MA@@AEBAXAEAW4D3D12_HEAP_TYPE@@AEAW4D3D12_HEAP_FLAGS@@I@Z
   9A0994 ?CalcMaxBlockSize@BlockVector@D3D12MA@@AEBA_KXZ
   9A0994 ?CalcSumBlockSize@BlockVector@D3D12MA@@AEBA_KXZ
   9A0994 ?CalculateStats@Allocator@D3D12MA@@QEAAXPEAUStats@2@@Z
   9A0994 ?CalculateStats@AllocatorPimpl@D3D12MA@@QEAAXAEAUStats@2@@Z
   9A0994 ?CalculateStats@Pool@D3D12MA@@QEAAXPEAUStatInfo@2@@Z
   9A0994 ?CalculateStats@PoolPimpl@D3D12MA@@QEAAXAEAUStatInfo@2@@Z
   9A0994 ?CharToLower@eastl@@YADD@Z
   9A0994 ?CheckAllocation@BlockMetadata_Generic@D3D12MA@@AEBA_N_K0Vconst_iterator@?$List@USuballocation@D3D12MA@@@2@PEA_K22PEAH@Z
   9A0994 ?Clear@?$PoolAllocator@UItem@?$List@USuballocation@D3D12MA@@@D3D12MA@@@D3D12MA@@QEAAXXZ
   9A0994 ?Clear@?$PoolAllocator@VAllocation@D3D12MA@@@D3D12MA@@QEAAXXZ
   9A0994 ?ContinueString@JsonWriter@D3D12MA@@QEAAXI@Z
   9A0994 ?ContinueString@JsonWriter@D3D12MA@@QEAAXPEB_W@Z
   9A0994 ?ContinueString@JsonWriter@D3D12MA@@QEAAX_K@Z
   9A0994 ?CreateAliasingResource@Allocator@D3D12MA@@QEAAJPEAVAllocation@2@_KPEBUD3D12_RESOURCE_DESC@@W4D3D12_RESOURCE_STATES@@PEBUD3D12_CLEAR_VALUE@@AEBU_GUID@@PEAPEAX@Z
   9A0994 ?CreateAliasingResource@AllocatorPimpl@D3D12MA@@QEAAJPEAVAllocation@2@_KPEBUD3D12_RESOURCE_DESC@@W4D3D12_RESOURCE_STATES@@PEBUD3D12_CLEAR_VALUE@@AEBU_GUID@@PEAPEAX@Z
   9A0994 ?CreateAllocationRequest@BlockMetadata_Generic@D3D12MA@@UEAA_N_K0PEAUAllocationRequest@2@@Z
   9A0994 ?CreateAllocator@D3D12MA@@YAJPEBUALLOCATOR_DESC@1@PEAPEAVAllocator@1@@Z
   9A0994 ?CreateBlock@BlockVector@D3D12MA@@AEAAJ_KIIPEA_K@Z
   9A0994 ?CreateMinBlocks@BlockVector@D3D12MA@@QEAAJXZ
   9A0994 ?CreateNewBlock@?$PoolAllocator@UItem@?$List@USuballocation@D3D12MA@@@D3D12MA@@@D3D12MA@@AEAAAEAUItemBlock@12@XZ
   9A0994 ?CreateNewBlock@?$PoolAllocator@VAllocation@D3D12MA@@@D3D12MA@@AEAAAEAUItemBlock@12@XZ
   9A0994 ?CreatePool@Allocator@D3D12MA@@QEAAJPEBUPOOL_DESC@2@PEAPEAVPool@2@@Z
   9A0994 ?CreateResource@Allocator@D3D12MA@@QEAAJPEBUALLOCATION_DESC@2@PEBUD3D12_RESOURCE_DESC@@W4D3D12_RESOURCE_STATES@@PEBUD3D12_CLEAR_VALUE@@PEAPEAVAllocation@2@AEBU_GUID@@PEAPEAX@Z
   9A0994 ?CreateResource@AllocatorPimpl@D3D12MA@@QEAAJPEBUALLOCATION_DESC@2@PEBUD3D12_RESOURCE_DESC@@W4D3D12_RESOURCE_STATES@@PEBUD3D12_CLEAR_VALUE@@PEAPEAVAllocation@2@AEBU_GUID@@PEAPEAX@Z
   9A0994 ?CreateResource@BlockVector@D3D12MA@@QEAAJ_K0AEBUALLOCATION_DESC@2@AEBUD3D12_RESOURCE_DESC@@W4D3D12_RESOURCE_STATES@@PEBUD3D12_CLEAR_VALUE@@PEAPEAVAllocation@2@AEBU_GUID@@PEAPEAX@Z
   9A0994 ?DoAllocate@?$VectorBase@IVallocator_forge@eastl@@@eastl@@IEAAPEAI_K@Z
   9A0994 ?DoAllocate@?$VectorBase@U?$pair@PEAUShaderResource@@PEAUSampler@@@eastl@@Vallocator_forge@2@@eastl@@IEAAPEAU?$pair@PEAUShaderResource@@PEAUSampler@@@2@_K@Z
   9A0994 ?DoAllocate@?$VectorBase@U?$pair@UShaderResource@@PEAUDescriptorInfo@@@eastl@@Vallocator_forge@2@@eastl@@IEAAPEAU?$pair@UShaderResource@@PEAUDescriptorInfo@@@2@_K@Z
   9A0994 ?DoAllocate@?$VectorBase@UD3D12_SUBRESOURCE_TILING@@Vallocator_forge@eastl@@@eastl@@IEAAPEAUD3D12_SUBRESOURCE_TILING@@_K@Z
   9A0994 ?DoAllocate@?$VectorBase@UD3D12_TILED_RESOURCE_COORDINATE@@Vallocator_forge@eastl@@@eastl@@IEAAPEAUD3D12_TILED_RESOURCE_COORDINATE@@_K@Z
   9A0994 ?DoAllocate@?$VectorBase@UD3D12_TILE_REGION_SIZE@@Vallocator_forge@eastl@@@eastl@@IEAAPEAUD3D12_TILE_REGION_SIZE@@_K@Z
   9A0994 ?DoAllocate@?$VectorBase@UDescriptorHandle@DescriptorHeap@@Vallocator_forge@eastl@@@eastl@@IEAAPEAUDescriptorHandle@DescriptorHeap@@_K@Z
   9A0994 ?DoAllocate@?$VectorBase@UShaderResource@@Vallocator_forge@eastl@@@eastl@@IEAAPEAUShaderResource@@_K@Z
   9A0994 ?DoAllocate@?$VectorBase@UVirtualTexturePage@@Vallocator_forge@eastl@@@eastl@@IEAAPEAUVirtualTexturePage@@_K@Z
   9A0994 ?DoAllocate@?$VectorBase@W4D3D12_TILE_RANGE_FLAGS@@Vallocator_forge@eastl@@@eastl@@IEAAPEAW4D3D12_TILE_RANGE_FLAGS@@_K@Z
   9A0994 ?DoAllocateBuckets@?$hashtable@PEAUDescriptorInfo@@U?$pair@QEAUDescriptorInfo@@I@eastl@@Vallocator_forge@3@U?$use_first@U?$pair@QEAUDescriptorInfo@@I@eastl@@@3@U?$equal_to@PEAUDescriptorInfo@@@3@U?$hash@PEAUDescriptorInfo@@@3@Umod_range_hashing@3@Udefault_ranged_hash@3@Uprime_rehash_policy@3@$0A@$00$00@eastl@@IEAAPEAPEAU?$hash_node@U?$pair@QEAUDescriptorInfo@@I@eastl@@$0A@@2@_K@Z
   9A0994 ?DoAllocateBuckets@?$hashtable@PEBDU?$pair@QEBDI@eastl@@Vallocator_forge@2@U?$use_first@U?$pair@QEBDI@eastl@@@2@U?$str_equal_to@PEBD@2@U?$hash@PEBD@2@Umod_range_hashing@2@Udefault_ranged_hash@2@Uprime_rehash_policy@2@$0A@$00$00@eastl@@IEAAPEAPEAU?$hash_node@U?$pair@QEBDI@eastl@@$0A@@2@_K@Z
   9A0994 ?DoAllocateBuckets@?$hashtable@PEBDU?$pair@QEBDPEAUSampler@@@eastl@@Vallocator_forge@2@U?$use_first@U?$pair@QEBDPEAUSampler@@@eastl@@@2@U?$str_equal_to@PEBD@2@U?$hash@PEBD@2@Umod_range_hashing@2@Udefault_ranged_hash@2@Uprime_rehash_policy@2@$0A@$00$00@eastl@@IEAAPEAPEAU?$hash_node@U?$pair@QEBDPEAUSampler@@@eastl@@$0A@@2@_K@Z
   9A0994 ?DoAllocateNode@?$hashtable@PEBDU?$pair@QEBDI@eastl@@Vallocator_forge@2@U?$use_first@U?$pair@QEBDI@eastl@@@2@U?$str_equal_to@PEBD@2@U?$hash@PEBD@2@Umod_range_hashing@2@Udefault_ranged_hash@2@Uprime_rehash_policy@2@$0A@$00$00@eastl@@IEAAPEAU?$hash_node@U?$pair@QEBDI@eastl@@$0A@@2@$$QEAU?$pair@QEBDI@2@@Z
   9A0994 ?DoAllocateNode@?$hashtable@PEBDU?$pair@QEBDPEAUSampler@@@eastl@@Vallocator_forge@2@U?$use_first@U?$pair@QEBDPEAUSampler@@@eastl@@@2@U?$str_equal_to@PEBD@2@U?$hash@PEBD@2@Umod_range_hashing@2@Udefault_ranged_hash@2@Uprime_rehash_policy@2@$0A@$00$00@eastl@@IEAAPEAU?$hash_node@U?$pair@QEBDPEAUSampler@@@eastl@@$0A@@2@$$QEAU?$pair@QEBDPEAUSampler@@@2@@Z
   9A0994 ?DoAllocateNodeFromKey@?$hashtable@PEAUDescriptorInfo@@U?$pair@QEAUDescriptorInfo@@I@eastl@@Vallocator_forge@3@U?$use_first@U?$pair@QEAUDescriptorInfo@@I@eastl@@@3@U?$equal_to@PEAUDescriptorInfo@@@3@U?$hash@PEAUDescriptorInfo@@@3@Umod_range_hashing@3@Udefault_ranged_hash@3@Uprime_rehash_policy@3@$0A@$00$00@eastl@@IEAAPEAU?$hash_node@U?$pair@QEAUDescriptorInfo@@I@eastl@@$0A@@2@AEBQEAUDescriptorInfo@@@Z
   9A0994 ?DoFindNode@?$hashtable@PEAUDescriptorInfo@@U?$pair@QEAUDescriptorInfo@@I@eastl@@Vallocator_forge@3@U?$use_first@U?$pair@QEAUDescriptorInfo@@I@eastl@@@3@U?$equal_to@PEAUDescriptorInfo@@@3@U?$hash@PEAUDescriptorInfo@@@3@Umod_range_hashing@3@Udefault_ranged_hash@3@Uprime_rehash_policy@3@$0A@$00$00@eastl@@IEBAPEAU?$hash_node@U?$pair@QEAUDescriptorInfo@@I@eastl@@$0A@@2@PEAU32@AEBQEAUDescriptorInfo@@_K@Z
   9A0994 ?DoFindNode@?$hashtable@PEBDU?$pair@QEBDI@eastl@@Vallocator_forge@2@U?$use_first@U?$pair@QEBDI@eastl@@@2@U?$str_equal_to@PEBD@2@U?$hash@PEBD@2@Umod_range_hashing@2@Udefault_ranged_hash@2@Uprime_rehash_policy@2@$0A@$00$00@eastl@@IEBAPEAU?$hash_node@U?$pair@QEBDI@eastl@@$0A@@2@PEAU32@AEBQEBD_K@Z
   9A0994 ?DoFindNode@?$hashtable@PEBDU?$pair@QEBDPEAUSampler@@@eastl@@Vallocator_forge@2@U?$use_first@U?$pair@QEBDPEAUSampler@@@eastl@@@2@U?$str_equal_to@PEBD@2@U?$hash@PEBD@2@Umod_range_hashing@2@Udefault_ranged_hash@2@Uprime_rehash_policy@2@$0A@$00$00@eastl@@IEBAPEAU?$hash_node@U?$pair@QEBDPEAUSampler@@@eastl@@$0A@@2@PEAU32@AEBQEBD_K@Z
   9A0994 ?DoFree@?$VectorBase@IVallocator_forge@eastl@@@eastl@@IEAAXPEAI_K@Z
   9A0994 ?DoFree@?$VectorBase@PEB_WVallocator_forge@eastl@@@eastl@@IEAAXPEAPEB_W_K@Z
   9A0994 ?DoFree@?$VectorBase@U?$pair@PEAUShaderResource@@PEAUSampler@@@eastl@@Vallocator_forge@2@@eastl@@IEAAXPEAU?$pair@PEAUShaderResource@@PEAUSampler@@@2@_K@Z
   9A0994 ?DoFree@?$VectorBase@U?$pair@UShaderResource@@PEAUDescriptorInfo@@@eastl@@Vallocator_forge@2@@eastl@@IEAAXPEAU?$pair@UShaderResource@@PEAUDescriptorInfo@@@2@_K@Z
   9A0994 ?DoFree@?$VectorBase@UD3D12_TILED_RESOURCE_COORDINATE@@Vallocator_forge@eastl@@@eastl@@IEAAXPEAUD3D12_TILED_RESOURCE_COORDINATE@@_K@Z
   9A0994 ?DoFree@?$VectorBase@UD3D12_TILE_REGION_SIZE@@Vallocator_forge@eastl@@@eastl@@IEAAXPEAUD3D12_TILE_REGION_SIZE@@_K@Z
   9A0994 ?DoFree@?$VectorBase@UDescriptorHandle@DescriptorHeap@@Vallocator_forge@eastl@@@eastl@@IEAAXPEAUDescriptorHandle@DescriptorHeap@@_K@Z
   9A0994 ?DoFree@?$VectorBase@UShaderResource@@Vallocator_forge@eastl@@@eastl@@IEAAXPEAUShaderResource@@_K@Z
   9A0994 ?DoFree@?$VectorBase@UVirtualTexturePage@@Vallocator_forge@eastl@@@eastl@@IEAAXPEAUVirtualTexturePage@@_K@Z
   9A0994 ?DoFree@?$VectorBase@W4D3D12_TILE_RANGE_FLAGS@@Vallocator_forge@eastl@@@eastl@@IEAAXPEAW4D3D12_TILE_RANGE_FLAGS@@_K@Z
   9A0994 ?DoFreeBuckets@?$hashtable@PEAUDescriptorInfo@@U?$pair@QEAUDescriptorInfo@@I@eastl@@Vallocator_forge@3@U?$use_first@U?$pair@QEAUDescriptorInfo@@I@eastl@@@3@U?$equal_to@PEAUDescriptorInfo@@@3@U?$hash@PEAUDescriptorInfo@@@3@Umod_range_hashing@3@Udefault_ranged_hash@3@Uprime_rehash_policy@3@$0A@$00$00@eastl@@IEAAXPEAPEAU?$hash_node@U?$pair@QEAUDescriptorInfo@@I@eastl@@$0A@@2@_K@Z
   9A0994 ?DoFreeBuckets@?$hashtable@PEBDU?$pair@QEBDI@eastl@@Vallocator_forge@2@U?$use_first@U?$pair@QEBDI@eastl@@@2@U?$str_equal_to@PEBD@2@U?$hash@PEBD@2@Umod_range_hashing@2@Udefault_ranged_hash@2@Uprime_rehash_policy@2@$0A@$00$00@eastl@@IEAAXPEAPEAU?$hash_node@U?$pair@QEBDI@eastl@@$0A@@2@_K@Z
   9A0994 ?DoFreeBuckets@?$hashtable@PEBDU?$pair@QEBDPEAUSampler@@@eastl@@Vallocator_forge@2@U?$use_first@U?$pair@QEBDPEAUSampler@@@eastl@@@2@U?$str_equal_to@PEBD@2@U?$hash@PEBD@2@Umod_range_hashing@2@Udefault_ranged_hash@2@Uprime_rehash_policy@2@$0A@$00$00@eastl@@IEAAXPEAPEAU?$hash_node@U?$pair@QEBDPEAUSampler@@@eastl@@$0A@@2@_K@Z
   9A0994 ?DoFreeNode@?$hashtable@PEAUDescriptorInfo@@U?$pair@QEAUDescriptorInfo@@I@eastl@@Vallocator_forge@3@U?$use_first@U?$pair@QEAUDescriptorInfo@@I@eastl@@@3@U?$equal_to@PEAUDescriptorInfo@@@3@U?$hash@PEAUDescriptorInfo@@@3@Umod_range_hashing@3@Udefault_ranged_hash@3@Uprime_rehash_policy@3@$0A@$00$00@eastl@@IEAAXPEAU?$hash_node@U?$pair@QEAUDescriptorInfo@@I@eastl@@$0A@@2@@Z
   9A0994 ?DoFreeNode@?$hashtable@PEBDU?$pair@QEBDI@eastl@@Vallocator_forge@2@U?$use_first@U?$pair@QEBDI@eastl@@@2@U?$str_equal_to@PEBD@2@U?$hash@PEBD@2@Umod_range_hashing@2@Udefault_ranged_hash@2@Uprime_rehash_policy@2@$0A@$00$00@eastl@@IEAAXPEAU?$hash_node@U?$pair@QEBDI@eastl@@$0A@@2@@Z
   9A0994 ?DoFreeNode@?$hashtable@PEBDU?$pair@QEBDPEAUSampler@@@eastl@@Vallocator_forge@2@U?$use_first@U?$pair@QEBDPEAUSampler@@@eastl@@@2@U?$str_equal_to@PEBD@2@U?$hash@PEBD@2@Umod_range_hashing@2@Udefault_ranged_hash@2@Uprime_rehash_policy@2@$0A@$00$00@eastl@@IEAAXPEAU?$hash_node@U?$pair@QEBDPEAUSampler@@@eastl@@$0A@@2@@Z
   9A0994 ?DoFreeNodes@?$hashtable@PEAUDescriptorInfo@@U?$pair@QEAUDescriptorInfo@@I@eastl@@Vallocator_forge@3@U?$use_first@U?$pair@QEAUDescriptorInfo@@I@eastl@@@3@U?$equal_to@PEAUDescriptorInfo@@@3@U?$hash@PEAUDescriptorInfo@@@3@Umod_range_hashing@3@Udefault_ranged_hash@3@Uprime_rehash_policy@3@$0A@$00$00@eastl@@IEAAXPEAPEAU?$hash_node@U?$pair@QEAUDescriptorInfo@@I@eastl@@$0A@@2@_K@Z
   9A0994 ?DoFreeNodes@?$hashtable@PEBDU?$pair@QEBDI@eastl@@Vallocator_forge@2@U?$use_first@U?$pair@QEBDI@eastl@@@2@U?$str_equal_to@PEBD@2@U?$hash@PEBD@2@Umod_range_hashing@2@Udefault_ranged_hash@2@Uprime_rehash_policy@2@$0A@$00$00@eastl@@IEAAXPEAPEAU?$hash_node@U?$pair@QEBDI@eastl@@$0A@@2@_K@Z
   9A0994 ?DoFreeNodes@?$hashtable@PEBDU?$pair@QEBDPEAUSampler@@@eastl@@Vallocator_forge@2@U?$use_first@U?$pair@QEBDPEAUSampler@@@eastl@@@2@U?$str_equal_to@PEBD@2@U?$hash@PEBD@2@Umod_range_hashing@2@Udefault_ranged_hash@2@Uprime_rehash_policy@2@$0A@$00$00@eastl@@IEAAXPEAPEAU?$hash_node@U?$pair@QEBDPEAUSampler@@@eastl@@$0A@@2@_K@Z
   9A0994 ?DoInsertKey@?$hashtable@PEAUDescriptorInfo@@U?$pair@QEAUDescriptorInfo@@I@eastl@@Vallocator_forge@3@U?$use_first@U?$pair@QEAUDescriptorInfo@@I@eastl@@@3@U?$equal_to@PEAUDescriptorInfo@@@3@U?$hash@PEAUDescriptorInfo@@@3@Umod_range_hashing@3@Udefault_ranged_hash@3@Uprime_rehash_policy@3@$0A@$00$00@eastl@@IEAA?AU?$pair@U?$hashtable_iterator@U?$pair@QEAUDescriptorInfo@@I@eastl@@$0A@$0A@@eastl@@_N@2@U?$integral_constant@_N$00@2@AEBQEAUDescriptorInfo@@@Z
   9A0994 ?DoInsertKey@?$hashtable@PEAUDescriptorInfo@@U?$pair@QEAUDescriptorInfo@@I@eastl@@Vallocator_forge@3@U?$use_first@U?$pair@QEAUDescriptorInfo@@I@eastl@@@3@U?$equal_to@PEAUDescriptorInfo@@@3@U?$hash@PEAUDescriptorInfo@@@3@Umod_range_hashing@3@Udefault_ranged_hash@3@Uprime_rehash_policy@3@$0A@$00$00@eastl@@IEAA?AU?$pair@U?$hashtable_iterator@U?$pair@QEAUDescriptorInfo@@I@eastl@@$0A@$0A@@eastl@@_N@2@U?$integral_constant@_N$00@2@AEBQEAUDescriptorInfo@@_K@Z
   9A0994 ?DoInsertValuesEnd@?$vector@IVallocator_forge@eastl@@@eastl@@IEAAX_K@Z
   9A0994 ?DoInsertValuesEnd@?$vector@PEB_WVallocator_forge@eastl@@@eastl@@IEAAX_K@Z
   9A0994 ?DoInsertValuesEnd@?$vector@UD3D12_TILED_RESOURCE_COORDINATE@@Vallocator_forge@eastl@@@eastl@@IEAAX_K@Z
   9A0994 ?DoInsertValuesEnd@?$vector@UD3D12_TILE_REGION_SIZE@@Vallocator_forge@eastl@@@eastl@@IEAAX_K@Z
   9A0994 ?DoInsertValuesEnd@?$vector@UVirtualTexturePage@@Vallocator_forge@eastl@@@eastl@@IEAAX_K@Z
   9A0994 ?DoInsertValuesEnd@?$vector@W4D3D12_TILE_RANGE_FLAGS@@Vallocator_forge@eastl@@@eastl@@IEAAX_K@Z
   9A0994 ?DoRehash@?$hashtable@PEAUDescriptorInfo@@U?$pair@QEAUDescriptorInfo@@I@eastl@@Vallocator_forge@3@U?$use_first@U?$pair@QEAUDescriptorInfo@@I@eastl@@@3@U?$equal_to@PEAUDescriptorInfo@@@3@U?$hash@PEAUDescriptorInfo@@@3@Umod_range_hashing@3@Udefault_ranged_hash@3@Uprime_rehash_policy@3@$0A@$00$00@eastl@@IEAAX_K@Z
   9A0994 ?DoRehash@?$hashtable@PEBDU?$pair@QEBDI@eastl@@Vallocator_forge@2@U?$use_first@U?$pair@QEBDI@eastl@@@2@U?$str_equal_to@PEBD@2@U?$hash@PEBD@2@Umod_range_hashing@2@Udefault_ranged_hash@2@Uprime_rehash_policy@2@$0A@$00$00@eastl@@IEAAX_K@Z
   9A0994 ?DoRehash@?$hashtable@PEBDU?$pair@QEBDPEAUSampler@@@eastl@@Vallocator_forge@2@U?$use_first@U?$pair@QEBDPEAUSampler@@@eastl@@@2@U?$str_equal_to@PEBD@2@U?$hash@PEBD@2@Umod_range_hashing@2@Udefault_ranged_hash@2@Uprime_rehash_policy@2@$0A@$00$00@eastl@@IEAAX_K@Z
   9A0994 ?DoSwap@?$vector@IVallocator_forge@eastl@@@eastl@@IEAAXAEAV12@@Z
   9A0994 ?DoSwap@?$vector@UD3D12_TILED_RESOURCE_COORDINATE@@Vallocator_forge@eastl@@@eastl@@IEAAXAEAV12@@Z
   9A0994 ?DoSwap@?$vector@UD3D12_TILE_REGION_SIZE@@Vallocator_forge@eastl@@@eastl@@IEAAXAEAV12@@Z
   9A0994 ?DoSwap@?$vector@UVirtualTexturePage@@Vallocator_forge@eastl@@@eastl@@IEAAXAEAV12@@Z
   9A0994 ?DoSwap@?$vector@W4D3D12_TILE_RANGE_FLAGS@@Vallocator_forge@eastl@@@eastl@@IEAAXAEAV12@@Z
   9A0994 ?EndArray@JsonWriter@D3D12MA@@QEAAXXZ
   9A0994 ?EndObject@JsonWriter@D3D12MA@@QEAAXXZ
   9A0994 ?EndString@JsonWriter@D3D12MA@@QEAAXPEB_W@Z
   9A0994 ?Free@?$PoolAllocator@UItem@?$List@USuballocation@D3D12MA@@@D3D12MA@@@D3D12MA@@QEAAXPEAUItem@?$List@USuballocation@D3D12MA@@@2@@Z
   9A0994 ?Free@?$PoolAllocator@VAllocation@D3D12MA@@@D3D12MA@@QEAAXPEAVAllocation@2@@Z
   9A0994 ?Free@AllocationObjectAllocator@D3D12MA@@QEAAXPEAVAllocation@2@@Z
   9A0994 ?Free@BlockMetadata_Generic@D3D12MA@@UEAAXPEBVAllocation@2@@Z
   9A0994 ?Free@BlockVector@D3D12MA@@QEAAXPEAVAllocation@2@@Z
   9A0994 ?FreeAtOffset@BlockMetadata_Generic@D3D12MA@@UEAAX_K@Z
   9A0994 ?FreeCommittedMemory@AllocatorPimpl@D3D12MA@@QEAAXPEAVAllocation@2@@Z
   9A0994 ?FreeHeapMemory@AllocatorPimpl@D3D12MA@@QEAAXPEAVAllocation@2@@Z
   9A0994 ?FreeName@Allocation@D3D12MA@@AEAAXXZ
   9A0994 ?FreeName@PoolPimpl@D3D12MA@@AEAAXXZ
   9A0994 ?FreePlacedMemory@AllocatorPimpl@D3D12MA@@QEAAXPEAVAllocation@2@@Z
   9A0994 ?FreeStatsString@Allocator@D3D12MA@@QEAAXPEA_W@Z
   9A0994 ?FreeStatsString@AllocatorPimpl@D3D12MA@@QEAAXPEA_W@Z
   9A0994 ?FreeSuballocation@BlockMetadata_Generic@D3D12MA@@AEAA?AViterator@?$List@USuballocation@D3D12MA@@@2@V342@@Z
   9A0994 ?Front@?$List@USuballocation@D3D12MA@@@D3D12MA@@QEAAPEAUItem@12@XZ
   9A0994 ?Front@?$List@USuballocation@D3D12MA@@@D3D12MA@@QEBAPEBUItem@12@XZ
   9A0994 ?GetAllocationCount@BlockMetadata_Generic@D3D12MA@@UEBA_KXZ
   9A0994 ?GetAllocationObjectAllocator@AllocatorPimpl@D3D12MA@@QEAAAEAVAllocationObjectAllocator@2@XZ
   9A0994 ?GetAllocator@PoolPimpl@D3D12MA@@QEBAPEAVAllocatorPimpl@2@XZ
   9A0994 ?GetAllocs@AllocatorPimpl@D3D12MA@@QEBAAEBUALLOCATION_CALLBACKS@2@XZ
   9A0994 ?GetBlockVector@NormalBlock@D3D12MA@@QEBAPEAVBlockVector@2@XZ
   9A0994 ?GetBlockVector@PoolPimpl@D3D12MA@@QEAAPEAVBlockVector@2@XZ
   9A0994 ?GetBudget@Allocator@D3D12MA@@QEAAXPEAUBudget@2@0@Z
   9A0994 ?GetBudget@AllocatorPimpl@D3D12MA@@QEAAXPEAUBudget@2@0@Z
   9A0994 ?GetBudgetForHeapType@AllocatorPimpl@D3D12MA@@QEAAXAEAUBudget@2@W4D3D12_HEAP_TYPE@@@Z
   9A0994 ?GetCount@?$List@USuballocation@D3D12MA@@@D3D12MA@@QEBA_KXZ
   9A0994 ?GetCreationNodeMask@MemoryBlock@D3D12MA@@QEBAIXZ
   9A0994 ?GetCurrentFrameIndex@AllocatorPimpl@D3D12MA@@QEBAIXZ
   9A0994 ?GetD3D12Options@Allocator@D3D12MA@@QEBAAEBUD3D12_FEATURE_DATA_D3D12_OPTIONS@@XZ
   9A0994 ?GetD3D12Options@AllocatorPimpl@D3D12MA@@QEBAAEBUD3D12_FEATURE_DATA_D3D12_OPTIONS@@XZ
   9A0994 ?GetData@StringBuilder@D3D12MA@@QEBAPEB_WXZ
   9A0994 ?GetDesc@Pool@D3D12MA@@QEBA?AUPOOL_DESC@2@XZ
   9A0994 ?GetDesc@PoolPimpl@D3D12MA@@QEBAAEBUPOOL_DESC@2@XZ
   9A0994 ?GetDevice@AllocatorPimpl@D3D12MA@@QEBAPEAUID3D12Device@@XZ
   9A0994 ?GetHeap@Allocation@D3D12MA@@QEBAPEAUID3D12Heap@@XZ
   9A0994 ?GetHeap@MemoryBlock@D3D12MA@@QEBAPEAUID3D12Heap@@XZ
   9A0994 ?GetHeapType@MemoryBlock@D3D12MA@@QEBA?AW4D3D12_HEAP_TYPE@@XZ
   9A0994 ?GetId@MemoryBlock@D3D12MA@@QEBAIXZ
   9A0994 ?GetLength@StringBuilder@D3D12MA@@QEBA_KXZ
   9A0994 ?GetName@Allocation@D3D12MA@@QEBAPEB_WXZ
   9A0994 ?GetName@Pool@D3D12MA@@QEBAPEB_WXZ
   9A0994 ?GetName@PoolPimpl@D3D12MA@@QEBAPEB_WXZ
   9A0994 ?GetNewCapacity@?$VectorBase@IVallocator_forge@eastl@@@eastl@@IEAA_K_K@Z
   9A0994 ?GetNewCapacity@?$VectorBase@PEB_WVallocator_forge@eastl@@@eastl@@IEAA_K_K@Z
   9A0994 ?GetNewCapacity@?$VectorBase@U?$pair@PEAUShaderResource@@PEAUSampler@@@eastl@@Vallocator_forge@2@@eastl@@IEAA_K_K@Z
   9A0994 ?GetNewCapacity@?$VectorBase@U?$pair@UShaderResource@@PEAUDescriptorInfo@@@eastl@@Vallocator_forge@2@@eastl@@IEAA_K_K@Z
   9A0994 ?GetNewCapacity@?$VectorBase@UD3D12_TILED_RESOURCE_COORDINATE@@Vallocator_forge@eastl@@@eastl@@IEAA_K_K@Z
   9A0994 ?GetNewCapacity@?$VectorBase@UD3D12_TILE_REGION_SIZE@@Vallocator_forge@eastl@@@eastl@@IEAA_K_K@Z
   9A0994 ?GetNewCapacity@?$VectorBase@UDescriptorHandle@DescriptorHeap@@Vallocator_forge@eastl@@@eastl@@IEAA_K_K@Z
   9A0994 ?GetNewCapacity@?$VectorBase@UShaderResource@@Vallocator_forge@eastl@@@eastl@@IEAA_K_K@Z
   9A0994 ?GetNewCapacity@?$VectorBase@UVirtualTexturePage@@Vallocator_forge@eastl@@@eastl@@IEAA_K_K@Z
   9A0994 ?GetNewCapacity@?$VectorBase@W4D3D12_TILE_RANGE_FLAGS@@Vallocator_forge@eastl@@@eastl@@IEAA_K_K@Z
   9A0994 ?GetOffset@Allocation@D3D12MA@@QEBA_KXZ
   9A0994 ?GetPreferredBlockSize@BlockVector@D3D12MA@@QEBA_KXZ
   9A0994 ?GetResourceAllocationInfo@AllocatorPimpl@D3D12MA@@AEBA?AUD3D12_RESOURCE_ALLOCATION_INFO@@AEAUD3D12_RESOURCE_DESC@@@Z
   9A0994 ?GetResourceDimension@PackedData@Allocation@D3D12MA@@QEBA?AW4D3D12_RESOURCE_DIMENSION@@XZ
   9A0994 ?GetResourceFlags@PackedData@Allocation@D3D12MA@@QEBA?AW4D3D12_RESOURCE_FLAGS@@XZ
   9A0994 ?GetSize@Allocation@D3D12MA@@QEBA_KXZ
   9A0994 ?GetSize@BlockMetadata@D3D12MA@@QEBA_KXZ
   9A0994 ?GetSize@MemoryBlock@D3D12MA@@QEBA_KXZ
   9A0994 ?GetSumFreeSize@BlockMetadata_Generic@D3D12MA@@UEBA_KXZ
   9A0994 ?GetTextureLayout@PackedData@Allocation@D3D12MA@@QEBA?AW4D3D12_TEXTURE_LAYOUT@@XZ
   9A0994 ?GetType@PackedData@Allocation@D3D12MA@@QEBA?AW4Type@23@XZ
   9A0994 ?GetUnusedRangeSizeMax@BlockMetadata_Generic@D3D12MA@@UEBA_KXZ
   9A0994 ?GetVisibleNodeMask@MemoryBlock@D3D12MA@@QEBAIXZ
   9A0994 ?HeapFlagsFulfillResourceHeapTier@AllocatorPimpl@D3D12MA@@QEBA_NW4D3D12_HEAP_FLAGS@@@Z
   9A0994 ?INDENT@JsonWriter@D3D12MA@@0QEB_WEB
   9A0994 ?IncrementallySortBlocks@BlockVector@D3D12MA@@AEAAXXZ
   9A0994 ?Init@AllocatorPimpl@D3D12MA@@QEAAJAEBUALLOCATOR_DESC@2@@Z
   9A0994 ?Init@BlockMetadata@D3D12MA@@UEAAX_K@Z
   9A0994 ?Init@BlockMetadata_Generic@D3D12MA@@UEAAX_K@Z
   9A0994 ?Init@MemoryBlock@D3D12MA@@IEAAJXZ
   9A0994 ?Init@NormalBlock@D3D12MA@@QEAAJXZ
   9A0994 ?Init@PoolPimpl@D3D12MA@@QEAAJXZ
   9A0994 ?InitCommitted@Allocation@D3D12MA@@AEAAXW4D3D12_HEAP_TYPE@@@Z
   9A0994 ?InitHeap@Allocation@D3D12MA@@AEAAXW4D3D12_HEAP_TYPE@@PEAUID3D12Heap@@@Z
   9A0994 ?InitPlaced@Allocation@D3D12MA@@AEAAX_K0PEAVNormalBlock@2@@Z
   9A0994 ?InsertBefore@?$List@USuballocation@D3D12MA@@@D3D12MA@@QEAAPEAUItem@12@PEAU312@@Z
   9A0994 ?InsertBefore@?$List@USuballocation@D3D12MA@@@D3D12MA@@QEAAPEAUItem@12@PEAU312@AEBUSuballocation@2@@Z
   9A0994 ?IsEmpty@?$List@USuballocation@D3D12MA@@@D3D12MA@@QEBA_NXZ
   9A0994 ?IsEmpty@BlockMetadata_Generic@D3D12MA@@UEBA_NXZ
   9A0994 ?IsEmpty@BlockVector@D3D12MA@@QEAA_NXZ
   9A0994 ?IsRangeZeroInitialized@ZeroInitializedRange@D3D12MA@@QEBAH_K0@Z
   9A0994 ?Lock@Mutex@D3D12MA@@QEAAXXZ
   9A0994 ?LockRead@RWMutex@D3D12MA@@QEAAXXZ
   9A0994 ?LockWrite@RWMutex@D3D12MA@@QEAAXXZ
   9A0994 ?MarkRangeAsUsed@ZeroInitializedRange@D3D12MA@@QEAAX_K0@Z
   9A0994 ?MergeFreeWithNext@BlockMetadata_Generic@D3D12MA@@AEAAXViterator@?$List@USuballocation@D3D12MA@@@2@@Z
   9A0994 ?PIX_COLOR_INDEX@@YAIE@Z
   9A0994 ?PrefersCommittedAllocation@AllocatorPimpl@D3D12MA@@CA_NAEBUD3D12_RESOURCE_DESC@@@Z
   9A0994 ?PushBack@?$List@USuballocation@D3D12MA@@@D3D12MA@@QEAAPEAUItem@12@AEBUSuballocation@2@@Z
   9A0994 ?PushBack@?$List@USuballocation@D3D12MA@@@D3D12MA@@QEAAPEAUItem@12@XZ
   9A0994 ?RegisterCommittedAllocation@AllocatorPimpl@D3D12MA@@AEAAXPEAVAllocation@2@W4D3D12_HEAP_TYPE@@@Z
   9A0994 ?RegisterFreeSuballocation@BlockMetadata_Generic@D3D12MA@@AEAAXViterator@?$List@USuballocation@D3D12MA@@@2@@Z
   9A0994 ?RegisterPool@AllocatorPimpl@D3D12MA@@AEAAXPEAVPool@2@W4D3D12_HEAP_TYPE@@@Z
   9A0994 ?Release@Allocation@D3D12MA@@QEAAXXZ
   9A0994 ?Release@Allocator@D3D12MA@@QEAAXXZ
   9A0994 ?Release@Pool@D3D12MA@@QEAAXXZ
   9A0994 ?Remove@?$List@USuballocation@D3D12MA@@@D3D12MA@@QEAAXPEAUItem@12@@Z
   9A0994 ?Remove@BlockVector@D3D12MA@@AEAAXPEAVNormalBlock@2@@Z
   9A0994 ?RemoveAllocation@CurrentBudgetData@D3D12MA@@QEAAXI_K@Z
   9A0994 ?Reset@ZeroInitializedRange@D3D12MA@@QEAAX_K@Z
   9A0994 ?SetCurrentFrameIndex@Allocator@D3D12MA@@QEAAXI@Z
   9A0994 ?SetCurrentFrameIndex@AllocatorPimpl@D3D12MA@@QEAAXI@Z
   9A0994 ?SetDefaultHeapMinBytes@Allocator@D3D12MA@@QEAAJW4D3D12_HEAP_TYPE@@W4D3D12_HEAP_FLAGS@@_K@Z
   9A0994 ?SetDefaultHeapMinBytes@AllocatorPimpl@D3D12MA@@QEAAJW4D3D12_HEAP_TYPE@@W4D3D12_HEAP_FLAGS@@_K@Z
   9A0994 ?SetMinBytes@BlockVector@D3D12MA@@QEAAJ_K@Z
   9A0994 ?SetMinBytes@Pool@D3D12MA@@QEAAJ_K@Z
   9A0994 ?SetMinBytes@PoolPimpl@D3D12MA@@QEAAJ_K@Z
   9A0994 ?SetName@Allocation@D3D12MA@@QEAAXPEB_W@Z
   9A0994 ?SetName@Pool@D3D12MA@@QEAAXPEB_W@Z
   9A0994 ?SetName@PoolPimpl@D3D12MA@@QEAAXPEB_W@Z
   9A0994 ?SetResource@Allocation@D3D12MA@@AEAAXPEAUID3D12Resource@@PEBUD3D12_RESOURCE_DESC@@@Z
   9A0994 ?SetResourceDimension@PackedData@Allocation@D3D12MA@@QEAAXW4D3D12_RESOURCE_DIMENSION@@@Z
   9A0994 ?SetResourceFlags@PackedData@Allocation@D3D12MA@@QEAAXW4D3D12_RESOURCE_FLAGS@@@Z
   9A0994 ?SetTextureLayout@PackedData@Allocation@D3D12MA@@QEAAXW4D3D12_TEXTURE_LAYOUT@@@Z
   9A0994 ?SetType@PackedData@Allocation@D3D12MA@@QEAAXW4Type@23@@Z
   9A0994 ?SetWasZeroInitialized@PackedData@Allocation@D3D12MA@@QEAAXH@Z
   9A0994 ?SupportsResourceHeapTier2@AllocatorPimpl@D3D12MA@@QEBA_NXZ
   9A0994 ?TinyImageFormat_DXGI_FORMATToTypeless@@YA?AW4TinyImageFormat_DXGI_FORMAT@@W41@@Z
   9A0994 ?TinyImageFormat_HasDepth@@YA_NW4TinyImageFormat@@@Z
   9A0994 ?TinyImageFormat_IsDepthAndStencil@@YA_NW4TinyImageFormat@@@Z
   9A0994 ?TinyImageFormat_IsDepthOnly@@YA_NW4TinyImageFormat@@@Z
   9A0994 ?TinyImageFormat_ToDXGI_FORMAT@@YA?AW4TinyImageFormat_DXGI_FORMAT@@W4TinyImageFormat@@@Z
   9A0994 ?Unlock@Mutex@D3D12MA@@QEAAXXZ
   9A0994 ?UnlockRead@RWMutex@D3D12MA@@QEAAXXZ
   9A0994 ?UnlockWrite@RWMutex@D3D12MA@@QEAAXXZ
   9A0994 ?UnregisterCommittedAllocation@AllocatorPimpl@D3D12MA@@AEAAXPEAVAllocation@2@W4D3D12_HEAP_TYPE@@@Z
   9A0994 ?UnregisterFreeSuballocation@BlockMetadata_Generic@D3D12MA@@AEAAXViterator@?$List@USuballocation@D3D12MA@@@2@@Z
   9A0994 ?UnregisterPool@AllocatorPimpl@D3D12MA@@AEAAXPEAVPool@2@W4D3D12_HEAP_TYPE@@@Z
   9A0994 ?UpdateD3D12Budget@AllocatorPimpl@D3D12MA@@AEAAJXZ
   9A0994 ?UseMutex@AllocatorPimpl@D3D12MA@@QEBA_NXZ
   9A0994 ?Validate@BlockMetadata_Generic@D3D12MA@@UEBA_NXZ
   9A0994 ?Validate@NormalBlock@D3D12MA@@QEBA_NXZ
   9A0994 ?ValidateFreeSuballocationList@BlockMetadata_Generic@D3D12MA@@AEBA_NXZ
   9A0994 ?WriteAllocationInfoToJson@BlockMetadata_Generic@D3D12MA@@UEBAXAEAVJsonWriter@2@@Z
   9A0994 ?WriteBlockInfoToJson@BlockVector@D3D12MA@@QEAAXAEAVJsonWriter@2@@Z
   9A0994 ?WriteBool@JsonWriter@D3D12MA@@QEAAX_N@Z
   9A0994 ?WriteBudgetToJson@AllocatorPimpl@D3D12MA@@CAXAEAVJsonWriter@2@AEBUBudget@2@@Z
   9A0994 ?WriteIndent@JsonWriter@D3D12MA@@AEAAX_N@Z
   9A0994 ?WriteNull@JsonWriter@D3D12MA@@QEAAXXZ
   9A0994 ?WriteNumber@JsonWriter@D3D12MA@@QEAAXI@Z
   9A0994 ?WriteNumber@JsonWriter@D3D12MA@@QEAAX_K@Z
   9A0994 ?WriteString@JsonWriter@D3D12MA@@QEAAXPEB_W@Z
   9A0994 ?_Add_backreference@?$_Builder@PEBDDV?$regex_traits@D@std@@@std@@QEAAXI@Z
   9A0994 ?_Add_bol@?$_Builder@PEBDDV?$regex_traits@D@std@@@std@@QEAAXXZ
   9A0994 ?_Add_char@?$_Builder@PEBDDV?$regex_traits@D@std@@@std@@QEAAXD@Z
   9A0994 ?_Add_char_to_array@?$_Builder@PEBDDV?$regex_traits@D@std@@@std@@AEAAXD@Z
   9A0994 ?_Add_char_to_bitmap@?$_Builder@PEBDDV?$regex_traits@D@std@@@std@@AEAAXD@Z
   9A0994 ?_Add_char_to_class@?$_Builder@PEBDDV?$regex_traits@D@std@@@std@@QEAAXD@Z
   9A0994 ?_Add_class@?$_Builder@PEBDDV?$regex_traits@D@std@@@std@@QEAAXXZ
   9A0994 ?_Add_coll@?$_Builder@PEBDDV?$regex_traits@D@std@@@std@@QEAAXPEBD0_J@Z
   9A0994 ?_Add_dot@?$_Builder@PEBDDV?$regex_traits@D@std@@@std@@QEAAXXZ
   9A0994 ?_Add_elts@?$_Builder@PEBDDV?$regex_traits@D@std@@@std@@AEAAXPEAV?$_Node_class@DV?$regex_traits@D@std@@@2@F_N@Z
   9A0994 ?_Add_eol@?$_Builder@PEBDDV?$regex_traits@D@std@@@std@@QEAAXXZ
   9A0994 ?_Add_equiv@?$_Builder@PEBDDV?$regex_traits@D@std@@@std@@QEAAXPEBD0_J@Z
   9A0994 ?_Add_named_class@?$_Builder@PEBDDV?$regex_traits@D@std@@@std@@QEAAXF_N@Z
   9A0994 ?_Add_range@?$_Builder@PEBDDV?$regex_traits@D@std@@@std@@QEAAXDD@Z
   9A0994 ?_Add_rep@?$_Builder@PEBDDV?$regex_traits@D@std@@@std@@QEAAXHH_N@Z
   9A0994 ?_Add_str_node@?$_Builder@PEBDDV?$regex_traits@D@std@@@std@@AEAAXXZ
   9A0994 ?_Add_wbound@?$_Builder@PEBDDV?$regex_traits@D@std@@@std@@QEAAXXZ
   9A0994 ?_Adopt@_Iterator_base0@std@@QEAAXPEBX@Z
   9A0994 ?_Advance@?$_Vb_iter_base@U?$_Wrap_alloc@V?$allocator@I@std@@@std@@@std@@QEAAX_K@Z
   9A0994 ?_Allocate@_Default_allocate_traits@std@@SAPEAX_K@Z
   9A0994 ?_Alternative@?$_Parser@PEBDDV?$regex_traits@D@std@@@std@@AEAA_NXZ
   9A0994 ?_At@?$_Buf@D@std@@QEBADI@Z
   9A0994 ?_At@?$match_results@PEBDV?$allocator@V?$sub_match@PEBD@std@@@std@@@std@@QEAAAEAV?$sub_match@PEBD@2@I@Z
   9A0994 ?_AtomEscape@?$_Parser@PEBDDV?$regex_traits@D@std@@@std@@AEAAXXZ
   9A0994 ?_Beg_expr@?$_Builder@PEBDDV?$regex_traits@D@std@@@std@@AEBA_NPEAV_Node_base@2@@Z
   9A0994 ?_Beg_expr@?$_Builder@PEBDDV?$regex_traits@D@std@@@std@@QEBA_NXZ
   9A0994 ?_Begin_assert_group@?$_Builder@PEBDDV?$regex_traits@D@std@@@std@@QEAAPEAV_Node_base@2@_N@Z
   9A0994 ?_Begin_capture_group@?$_Builder@PEBDDV?$regex_traits@D@std@@@std@@QEAAPEAV_Node_base@2@I@Z
   9A0994 ?_Begin_group@?$_Builder@PEBDDV?$regex_traits@D@std@@@std@@QEAAPEAV_Node_base@2@XZ
   9A0994 ?_Begin_if@?$_Builder@PEBDDV?$regex_traits@D@std@@@std@@QEAAPEAV_Node_base@2@PEAV32@@Z
   9A0994 ?_Better_match@?$_Matcher@PEBDDV?$regex_traits@D@std@@PEBD@std@@AEAA_NXZ
   9A0994 ?_Buy_nonzero@?$vector@DV?$allocator@D@std@@@std@@AEAAX_K@Z
   9A0994 ?_Buy_nonzero@?$vector@IV?$allocator@I@std@@@std@@AEAAX_K@Z
   9A0994 ?_Buy_raw@?$vector@DV?$allocator@D@std@@@std@@AEAAX_K@Z
   9A0994 ?_Buy_raw@?$vector@IV?$allocator@I@std@@@std@@AEAAX_K@Z
   9A0994 ?_Buy_raw@?$vector@U_Grp_t@?$_Tgt_state_t@PEBD@std@@V?$allocator@U_Grp_t@?$_Tgt_state_t@PEBD@std@@@3@@std@@AEAAX_K@Z
   9A0994 ?_Cache_locale@?$_Regex_traits@D@std@@AEAAXXZ
   9A0994 ?_Calculate_growth@?$basic_string@DU?$char_traits@D@std@@V?$allocator@D@2@@std@@AEBA_K_K@Z
   9A0994 ?_Calculate_growth@?$basic_string@DU?$char_traits@D@std@@V?$allocator@D@2@@std@@CA_K_K00@Z
   9A0994 ?_Calculate_growth@?$vector@IV?$allocator@I@std@@@std@@AEBA_K_K@Z
   9A0994 ?_Calculate_growth@?$vector@U_Grp_t@?$_Tgt_state_t@PEBD@std@@V?$allocator@U_Grp_t@?$_Tgt_state_t@PEBD@std@@@3@@std@@AEBA_K_K@Z
   9A0994 ?_Calculate_growth@?$vector@U_Loop_vals_t@std@@V?$allocator@U_Loop_vals_t@std@@@2@@std@@AEBA_K_K@Z
   9A0994 ?_Calculate_growth@?$vector@V?$sub_match@PEBD@std@@V?$allocator@V?$sub_match@PEBD@std@@@2@@std@@AEBA_K_K@Z
   9A0994 ?_Calculate_loop_simplicity@std@@YAXPEAV_Node_base@1@0PEAV_Node_rep@1@@Z
   9A0994 ?_Change_array@?$vector@IV?$allocator@I@std@@@std@@AEAAXQEAI_K1@Z
   9A0994 ?_Change_array@?$vector@U_Grp_t@?$_Tgt_state_t@PEBD@std@@V?$allocator@U_Grp_t@?$_Tgt_state_t@PEBD@std@@@3@@std@@AEAAXQEAU_Grp_t@?$_Tgt_state_t@PEBD@2@_K1@Z
   9A0994 ?_Change_array@?$vector@U_Loop_vals_t@std@@V?$allocator@U_Loop_vals_t@std@@@2@@std@@AEAAXQEAU_Loop_vals_t@2@_K1@Z
   9A0994 ?_Change_array@?$vector@V?$sub_match@PEBD@std@@V?$allocator@V?$sub_match@PEBD@std@@@2@@std@@AEAAXQEAV?$sub_match@PEBD@2@_K1@Z
   9A0994 ?_Char_to_elts@?$_Builder@PEBDDV?$regex_traits@D@std@@@std@@AEAAXPEBD0_JPEAPEAU?$_Sequence@D@2@@Z
   9A0994 ?_CharacterClass@?$_Parser@PEBDDV?$regex_traits@D@std@@@std@@AEAAXXZ
   9A0994 ?_CharacterClassEscape@?$_Parser@PEBDDV?$regex_traits@D@std@@@std@@AEAA_N_N@Z
   9A0994 ?_CharacterEscape@?$_Parser@PEBDDV?$regex_traits@D@std@@@std@@AEAA_NXZ
   9A0994 ?_Check_C_return@std@@YAHH@Z
   9A0994 ?_Check_memory_order@std@@YAXW4memory_order@1@@Z
   9A0994 ?_ClassAtom@?$_Parser@PEBDDV?$regex_traits@D@std@@@std@@AEAA?AW4_Prs_ret@2@XZ
   9A0994 ?_ClassEscape@?$_Parser@PEBDDV?$regex_traits@D@std@@@std@@AEAA?AW4_Prs_ret@2@_N@Z
   9A0994 ?_ClassRanges@?$_Parser@PEBDDV?$regex_traits@D@std@@@std@@AEAAXXZ
   9A0994 ?_Clear_and_reserve_geometric@?$vector@IV?$allocator@I@std@@@std@@AEAAX_K@Z
   9A0994 ?_Clear_and_reserve_geometric@?$vector@U_Grp_t@?$_Tgt_state_t@PEBD@std@@V?$allocator@U_Grp_t@?$_Tgt_state_t@PEBD@std@@@3@@std@@AEAAX_K@Z
   9A0994 ?_Compat@?$_String_const_iterator@V?$_String_val@U?$_Simple_types@D@std@@@std@@@std@@QEBAXAEBV12@@Z
   9A0994 ?_Compat@?$_Vb_const_iterator@U?$_Wrap_alloc@V?$allocator@I@std@@@std@@@std@@QEBAXAEBV12@@Z
   9A0994 ?_Compile@?$_Parser@PEBDDV?$regex_traits@D@std@@@std@@QEAAPEAV_Root_node@2@XZ
   9A0994 ?_Copy_assign@?$vector@IV?$allocator@I@std@@@std@@AEAAXAEBV12@U?$integral_constant@_N$0A@@2@@Z
   9A0994 ?_Copy_assign@?$vector@U_Grp_t@?$_Tgt_state_t@PEBD@std@@V?$allocator@U_Grp_t@?$_Tgt_state_t@PEBD@std@@@3@@std@@AEAAXAEBV12@U?$integral_constant@_N$0A@@2@@Z
   9A0994 ?_Dec@?$_Vb_const_iterator@U?$_Wrap_alloc@V?$allocator@I@std@@@std@@@std@@QEAAXXZ
   9A0994 ?_DecimalDigits@?$_Parser@PEBDDV?$regex_traits@D@std@@@std@@AEAA_NXZ
   9A0994 ?_Del@?$_Buf@D@std@@QEAADXZ
   9A0994 ?_Destroy@?$vector@DV?$allocator@D@std@@@std@@AEAAXPEAD0@Z
   9A0994 ?_Destroy@?$vector@U_Grp_t@?$_Tgt_state_t@PEBD@std@@V?$allocator@U_Grp_t@?$_Tgt_state_t@PEBD@std@@@3@@std@@AEAAXPEAU_Grp_t@?$_Tgt_state_t@PEBD@2@0@Z
   9A0994 ?_Destroy@?$vector@U_Loop_vals_t@std@@V?$allocator@U_Loop_vals_t@std@@@2@@std@@AEAAXPEAU_Loop_vals_t@2@0@Z
   9A0994 ?_Destroy@?$vector@V?$sub_match@PEBD@std@@V?$allocator@V?$sub_match@PEBD@std@@@2@@std@@AEAAXPEAV?$sub_match@PEBD@2@0@Z
   9A0994 ?_Destroy_node@std@@YAXPEAV_Node_base@1@0@Z
   9A0994 ?_Disjunction@?$_Parser@PEBDDV?$regex_traits@D@std@@@std@@AEAAXXZ
   9A0994 ?_Do_assert_group@?$_Parser@PEBDDV?$regex_traits@D@std@@@std@@AEAAX_N@Z
   9A0994 ?_Do_capture_group@?$_Parser@PEBDDV?$regex_traits@D@std@@@std@@AEAAXXZ
   9A0994 ?_Do_class@?$_Matcher@PEBDDV?$regex_traits@D@std@@PEBD@std@@AEAA_NPEAV_Node_base@2@@Z
   9A0994 ?_Do_digits@?$_Parser@PEBDDV?$regex_traits@D@std@@@std@@AEAAHHH@Z
   9A0994 ?_Do_ex_class@?$_Parser@PEBDDV?$regex_traits@D@std@@@std@@AEAAXW4_Meta_type@2@@Z
   9A0994 ?_Do_ffn@?$_Parser@PEBDDV?$regex_traits@D@std@@@std@@AEAA_ND@Z
   9A0994 ?_Do_ffnx@?$_Parser@PEBDDV?$regex_traits@D@std@@@std@@AEAA_ND@Z
   9A0994 ?_Do_if@?$_Matcher@PEBDDV?$regex_traits@D@std@@PEBD@std@@AEAA_NPEAV_Node_if@2@@Z
   9A0994 ?_Do_noncapture_group@?$_Parser@PEBDDV?$regex_traits@D@std@@@std@@AEAAXXZ
   9A0994 ?_Do_rep0@?$_Matcher@PEBDDV?$regex_traits@D@std@@PEBD@std@@AEAA_NPEAV_Node_rep@2@_N@Z
   9A0994 ?_Do_rep@?$_Matcher@PEBDDV?$regex_traits@D@std@@PEBD@std@@AEAA_NPEAV_Node_rep@2@_NH@Z
   9A0994 ?_Else_if@?$_Builder@PEBDDV?$regex_traits@D@std@@@std@@QEAAXPEAV_Node_base@2@0@Z
   9A0994 ?_Empty@?$basic_regex@DV?$regex_traits@D@std@@@std@@QEBA_NXZ
   9A0994 ?_End_assert_group@?$_Builder@PEBDDV?$regex_traits@D@std@@@std@@QEAAXPEAV_Node_base@2@@Z
   9A0994 ?_End_group@?$_Builder@PEBDDV?$regex_traits@D@std@@@std@@QEAAXPEAV_Node_base@2@@Z
   9A0994 ?_End_pattern@?$_Builder@PEBDDV?$regex_traits@D@std@@@std@@QEAAPEAV_Root_node@2@XZ
   9A0994 ?_Eos@?$basic_string@DU?$char_traits@D@std@@V?$allocator@D@2@@std@@AEAAX_K@Z
   9A0994 ?_Equal@?$basic_string@DU?$char_traits@D@std@@V?$allocator@D@2@@std@@QEBA_NAEBV12@@Z
   9A0994 ?_Error@?$_Parser@PEBDDV?$regex_traits@D@std@@@std@@AEAAXW4error_type@regex_constants@2@@Z
   9A0994 ?_Expand@?$_Buf@D@std@@AEAAXI@Z
   9A0994 ?_Expect@?$_Parser@PEBDDV?$regex_traits@D@std@@@std@@AEAAXW4_Meta_type@2@W4error_type@regex_constants@2@@Z
   9A0994 ?_Fnv1a_append_bytes@std@@YA_K_KQEBE_K@Z
   9A0994 ?_Get@?$basic_regex@DV?$regex_traits@D@std@@@std@@QEBAPEAV_Root_node@2@XZ
   9A0994 ?_Get_bmax@?$_Builder@PEBDDV?$regex_traits@D@std@@@std@@AEBAIXZ
   9A0994 ?_Get_first@?$_Compressed_pair@U?$default_delete@V_Facet_base@std@@@std@@PEAV_Facet_base@2@$00@std@@QEAAAEAU?$default_delete@V_Facet_base@std@@@2@XZ
   9A0994 ?_Get_first@?$_Compressed_pair@U?$default_delete@V_Node_assert@std@@@std@@PEAV_Node_assert@2@$00@std@@QEAAAEAU?$default_delete@V_Node_assert@std@@@2@XZ
   9A0994 ?_Get_first@?$_Compressed_pair@V?$allocator@D@std@@V?$_String_val@U?$_Simple_types@D@std@@@2@$00@std@@QEAAAEAV?$allocator@D@2@XZ
   9A0994 ?_Get_first@?$_Compressed_pair@V?$allocator@D@std@@V?$_String_val@U?$_Simple_types@D@std@@@2@$00@std@@QEBAAEBV?$allocator@D@2@XZ
   9A0994 ?_Get_first@?$_Compressed_pair@V?$allocator@D@std@@V?$_Vector_val@U?$_Simple_types@D@std@@@2@$00@std@@QEAAAEAV?$allocator@D@2@XZ
   9A0994 ?_Get_first@?$_Compressed_pair@V?$allocator@D@std@@V?$_Vector_val@U?$_Simple_types@D@std@@@2@$00@std@@QEBAAEBV?$allocator@D@2@XZ
   9A0994 ?_Get_first@?$_Compressed_pair@V?$allocator@I@std@@V?$_Vector_val@U?$_Simple_types@I@std@@@2@$00@std@@QEBAAEBV?$allocator@I@2@XZ
   9A0994 ?_Get_first@?$_Compressed_pair@V?$allocator@U_Grp_t@?$_Tgt_state_t@PEBD@std@@@std@@V?$_Vector_val@U?$_Simple_types@U_Grp_t@?$_Tgt_state_t@PEBD@std@@@std@@@2@$00@std@@QEAAAEAV?$allocator@U_Grp_t@?$_Tgt_state_t@PEBD@std@@@2@XZ
   9A0994 ?_Get_first@?$_Compressed_pair@V?$allocator@U_Grp_t@?$_Tgt_state_t@PEBD@std@@@std@@V?$_Vector_val@U?$_Simple_types@U_Grp_t@?$_Tgt_state_t@PEBD@std@@@std@@@2@$00@std@@QEBAAEBV?$allocator@U_Grp_t@?$_Tgt_state_t@PEBD@std@@@2@XZ
   9A0994 ?_Get_first@?$_Compressed_pair@V?$allocator@U_Loop_vals_t@std@@@std@@V?$_Vector_val@U?$_Simple_types@U_Loop_vals_t@std@@@std@@@2@$00@std@@QEAAAEAV?$allocator@U_Loop_vals_t@std@@@2@XZ
   9A0994 ?_Get_first@?$_Compressed_pair@V?$allocator@U_Loop_vals_t@std@@@std@@V?$_Vector_val@U?$_Simple_types@U_Loop_vals_t@std@@@std@@@2@$00@std@@QEBAAEBV?$allocator@U_Loop_vals_t@std@@@2@XZ
   9A0994 ?_Get_first@?$_Compressed_pair@V?$allocator@V?$sub_match@PEBD@std@@@std@@V?$_Vector_val@U?$_Simple_types@V?$sub_match@PEBD@std@@@std@@@2@$00@std@@QEAAAEAV?$allocator@V?$sub_match@PEBD@std@@@2@XZ
   9A0994 ?_Get_first@?$_Compressed_pair@V?$allocator@V?$sub_match@PEBD@std@@@std@@V?$_Vector_val@U?$_Simple_types@V?$sub_match@PEBD@std@@@std@@@2@$00@std@@QEBAAEBV?$allocator@V?$sub_match@PEBD@std@@@2@XZ
   9A0994 ?_Get_ncap@?$_Matcher@PEBDDV?$regex_traits@D@std@@PEBD@std@@AEBAIXZ
   9A0994 ?_Get_tmax@?$_Builder@PEBDDV?$regex_traits@D@std@@@std@@AEBAIXZ
   9A0994 ?_Get_traits@?$basic_regex@DV?$regex_traits@D@std@@@std@@QEBAAEBV?$regex_traits@D@2@XZ
   9A0994 ?_Getal@?$basic_string@DU?$char_traits@D@std@@V?$allocator@D@2@@std@@AEAAAEAV?$allocator@D@2@XZ
   9A0994 ?_Getal@?$basic_string@DU?$char_traits@D@std@@V?$allocator@D@2@@std@@AEBAAEBV?$allocator@D@2@XZ
   9A0994 ?_Getal@?$vector@DV?$allocator@D@std@@@std@@AEAAAEAV?$allocator@D@2@XZ
   9A0994 ?_Getal@?$vector@DV?$allocator@D@std@@@std@@AEBAAEBV?$allocator@D@2@XZ
   9A0994 ?_Getal@?$vector@IV?$allocator@I@std@@@std@@AEBAAEBV?$allocator@I@2@XZ
   9A0994 ?_Getal@?$vector@U_Grp_t@?$_Tgt_state_t@PEBD@std@@V?$allocator@U_Grp_t@?$_Tgt_state_t@PEBD@std@@@3@@std@@AEAAAEAV?$allocator@U_Grp_t@?$_Tgt_state_t@PEBD@std@@@2@XZ
   9A0994 ?_Getal@?$vector@U_Grp_t@?$_Tgt_state_t@PEBD@std@@V?$allocator@U_Grp_t@?$_Tgt_state_t@PEBD@std@@@3@@std@@AEBAAEBV?$allocator@U_Grp_t@?$_Tgt_state_t@PEBD@std@@@2@XZ
   9A0994 ?_Getal@?$vector@U_Loop_vals_t@std@@V?$allocator@U_Loop_vals_t@std@@@2@@std@@AEAAAEAV?$allocator@U_Loop_vals_t@std@@@2@XZ
   9A0994 ?_Getal@?$vector@U_Loop_vals_t@std@@V?$allocator@U_Loop_vals_t@std@@@2@@std@@AEBAAEBV?$allocator@U_Loop_vals_t@std@@@2@XZ
   9A0994 ?_Getal@?$vector@V?$sub_match@PEBD@std@@V?$allocator@V?$sub_match@PEBD@std@@@2@@std@@AEAAAEAV?$allocator@V?$sub_match@PEBD@std@@@2@XZ
   9A0994 ?_Getal@?$vector@V?$sub_match@PEBD@std@@V?$allocator@V?$sub_match@PEBD@std@@@2@@std@@AEBAAEBV?$allocator@V?$sub_match@PEBD@std@@@2@XZ
   9A0994 ?_Getcat@?$collate@D@std@@SA_KPEAPEBVfacet@locale@2@PEBV42@@Z
   9A0994 ?_Getcoll@?$_Regex_traits@D@std@@QEBAPEBV?$collate@D@2@XZ
   9A0994 ?_Getcont@_Iterator_base0@std@@QEBAPEBU_Container_base0@2@XZ
   9A0994 ?_Getctype@?$_Regex_traits@D@std@@QEBAPEBV?$ctype@D@2@XZ
   9A0994 ?_Getfacet@locale@std@@QEBAPEBVfacet@12@_K@Z
   9A0994 ?_Getmark@?$_Builder@PEBDDV?$regex_traits@D@std@@@std@@QEBAPEAV_Node_base@2@XZ
   9A0994 ?_Getptr@?$_Vb_reference@U?$_Wrap_alloc@V?$allocator@I@std@@@std@@@std@@QEBAPEBIXZ
   9A0994 ?_HexDigits@?$_Parser@PEBDDV?$regex_traits@D@std@@@std@@AEAAXH@Z
   9A0994 ?_IdentityEscape@?$_Parser@PEBDDV?$regex_traits@D@std@@@std@@AEAA_NXZ
   9A0994 ?_Inc@?$_Vb_const_iterator@U?$_Wrap_alloc@V?$allocator@I@std@@@std@@@std@@QEAAXXZ
   9A0994 ?_Init@?$collate@D@std@@IEAAXAEBV_Locinfo@2@@Z
   9A0994 ?_Insert@?$_Buf@D@std@@QEAAXD@Z
   9A0994 ?_Insert_n@?$vector@_NV?$allocator@_N@std@@@std@@QEAA?AV?$_Vb_iterator@U?$_Wrap_alloc@V?$allocator@I@std@@@std@@@2@V?$_Vb_const_iterator@U?$_Wrap_alloc@V?$allocator@I@std@@@std@@@2@_KAEB_N@Z
   9A0994 ?_Insert_node@?$_Builder@PEBDDV?$regex_traits@D@std@@@std@@CAXPEAV_Node_base@2@0@Z
   9A0994 ?_Insert_x@?$vector@_NV?$allocator@_N@std@@@std@@QEAA_KV?$_Vb_const_iterator@U?$_Wrap_alloc@V?$allocator@I@std@@@std@@@2@_K@Z
   9A0994 ?_IsIdentityEscape@?$_Parser@PEBDDV?$regex_traits@D@std@@@std@@AEBA_NXZ
   9A0994 ?_Is_esc@?$_Parser@PEBDDV?$regex_traits@D@std@@@std@@AEBA_NXZ
   9A0994 ?_Is_wbound@?$_Matcher@PEBDDV?$regex_traits@D@std@@PEBD@std@@AEBA_NXZ
   9A0994 ?_Is_word@std@@YA_ND@Z
   9A0994 ?_Is_word@std@@YA_NE@Z
   9A0994 ?_Is_word_table@?1??_Is_word@std@@YA_NE@Z@4QB_NB
   9A0994 ?_Large_string_engaged@?$_String_val@U?$_Simple_types@D@std@@@std@@QEBA_NXZ
   9A0994 ?_Link_node@?$_Builder@PEBDDV?$regex_traits@D@std@@@std@@AEAAPEAV_Node_base@2@PEAV32@@Z
   9A0994 ?_Make_iter@?$vector@_NV?$allocator@_N@std@@@std@@QEAA?AV?$_Vb_iterator@U?$_Wrap_alloc@V?$allocator@I@std@@@std@@@2@V?$_Vb_const_iterator@U?$_Wrap_alloc@V?$allocator@I@std@@@std@@@2@@Z
   9A0994 ?_Maklocwcs@std@@YAPEA_WPEB_W@Z
   9A0994 ?_Mark_count@?$_Parser@PEBDDV?$regex_traits@D@std@@@std@@QEBAIXZ
   9A0994 ?_Mark_final@?$_Builder@PEBDDV?$regex_traits@D@std@@@std@@QEAAXXZ
   9A0994 ?_Mask@?$_Vb_reference@U?$_Wrap_alloc@V?$allocator@I@std@@@std@@@std@@IEBAIXZ
   9A0994 ?_Match_pat@?$_Matcher@PEBDDV?$regex_traits@D@std@@PEBD@std@@AEAA_NPEAV_Node_base@2@@Z
   9A0994 ?_Memcpy_val_from@?$basic_string@DU?$char_traits@D@std@@V?$allocator@D@2@@std@@AEAAXAEBV12@@Z
   9A0994 ?_Meta_map@?1??_Trans@?$_Parser@PEBDDV?$regex_traits@D@std@@@std@@AEAAXXZ@4QBDB
   9A0994 ?_Move_assign@?$basic_string@DU?$char_traits@D@std@@V?$allocator@D@2@@std@@AEAAXAEAV12@U_Equal_allocators@2@@Z
   9A0994 ?_Mymtx@_Mutex_base@std@@AEAAPEAU_Mtx_internal_imp_t@@XZ
   9A0994 ?_Myptr@?$_String_val@U?$_Simple_types@D@std@@@std@@QEAAPEADXZ
   9A0994 ?_Myptr@?$_String_val@U?$_Simple_types@D@std@@@std@@QEBAPEBDXZ
   9A0994 ?_Names@?1???$lookup_classname@PEBD@?$_Regex_traits@D@std@@QEBAFPEBD0_N@Z@4QBU_Cl_names@2@B
   9A0994 ?_Negate@?$_Atomic_integral_facade@_K@std@@SA_K_K@Z
   9A0994 ?_Negate@?$_Builder@PEBDDV?$regex_traits@D@std@@@std@@QEAAXXZ
   9A0994 ?_New_node@?$_Builder@PEBDDV?$regex_traits@D@std@@@std@@AEAAPEAV_Node_base@2@W4_Node_type@2@@Z
   9A0994 ?_Next@?$_Parser@PEBDDV?$regex_traits@D@std@@@std@@AEAAXXZ
   9A0994 ?_Null@?$match_results@PEBDV?$allocator@V?$sub_match@PEBD@std@@@std@@@std@@QEAAAEAV?$sub_match@PEBD@2@XZ
   9A0994 ?_Nw@?$_Vb_val@V?$allocator@_N@std@@@std@@SA_K_K@Z
   9A0994 ?_OctalDigits@?$_Parser@PEBDDV?$regex_traits@D@std@@@std@@AEAA_NXZ
   9A0994 ?_Orphan_range@?$vector@IV?$allocator@I@std@@@std@@AEBAXPEAI0@Z
   9A0994 ?_Orphan_range@?$vector@U_Grp_t@?$_Tgt_state_t@PEBD@std@@V?$allocator@U_Grp_t@?$_Tgt_state_t@PEBD@std@@@3@@std@@AEBAXPEAU_Grp_t@?$_Tgt_state_t@PEBD@2@0@Z
   9A0994 ?_Orphan_range@?$vector@U_Loop_vals_t@std@@V?$allocator@U_Loop_vals_t@std@@@2@@std@@AEBAXPEAU_Loop_vals_t@2@0@Z
   9A0994 ?_Orphan_range@?$vector@V?$sub_match@PEBD@std@@V?$allocator@V?$sub_match@PEBD@std@@@2@@std@@AEBAXPEAV?$sub_match@PEBD@2@0@Z
   9A0994 ?_Pfx@?$match_results@PEBDV?$allocator@V?$sub_match@PEBD@std@@@std@@@std@@QEAAAEAV?$sub_match@PEBD@2@XZ
   9A0994 ?_Psave@?$_Facetptr@V?$collate@D@std@@@std@@2PEBVfacet@locale@2@EB
   9A0994 ?_Psave@?$_Facetptr@V?$ctype@D@std@@@std@@2PEBVfacet@locale@2@EB
   9A0994 ?_Quantifier@?$_Parser@PEBDDV?$regex_traits@D@std@@@std@@AEAAXXZ
   9A0994 ?_Release@?$_Uninitialized_backout_al@V?$allocator@I@std@@@std@@QEAAPEAIXZ
   9A0994 ?_Release@?$_Uninitialized_backout_al@V?$allocator@U_Grp_t@?$_Tgt_state_t@PEBD@std@@@std@@@std@@QEAAPEAU_Grp_t@?$_Tgt_state_t@PEBD@2@XZ
   9A0994 ?_Release@?$_Uninitialized_backout_al@V?$allocator@U_Loop_vals_t@std@@@std@@@std@@QEAAPEAU_Loop_vals_t@2@XZ
   9A0994 ?_Release@?$_Uninitialized_backout_al@V?$allocator@V?$sub_match@PEBD@std@@@std@@@std@@QEAAPEAV?$sub_match@PEBD@2@XZ
   9A0994 ?_Release@_Fake_proxy_ptr_impl@std@@QEAAXXZ
   9A0994 ?_Reset@?$basic_regex@DV?$regex_traits@D@std@@@std@@AEAAXPEAV_Root_node@2@@Z
   9A0994 ?_Resize@?$match_results@PEBDV?$allocator@V?$sub_match@PEBD@std@@@std@@@std@@QEAAXI@Z
   9A0994 ?_Setlong@?$_Builder@PEBDDV?$regex_traits@D@std@@@std@@QEAAXXZ
   9A0994 ?_Sfx@?$match_results@PEBDV?$allocator@V?$sub_match@PEBD@std@@@std@@@std@@QEAAAEAV?$sub_match@PEBD@2@XZ
   9A0994 ?_Size@?$_Buf@D@std@@QEBAIXZ
   9A0994 ?_Str@?$_Buf@D@std@@QEBAPEBDXZ
   9A0994 ?_Take_contents@?$basic_string@DU?$char_traits@D@std@@V?$allocator@D@2@@std@@AEAAXAEAV12@U?$integral_constant@_N$00@2@@Z
   9A0994 ?_Throw_bad_array_new_length@std@@YAXXZ
   9A0994 ?_Throw_bad_cast@std@@YAXXZ
   9A0994 ?_Tidy@?$_Builder@PEBDDV?$regex_traits@D@std@@@std@@QEAAXXZ
   9A0994 ?_Tidy@?$_Node_class@DV?$regex_traits@D@std@@@std@@QEAAXPEAU?$_Sequence@D@2@@Z
   9A0994 ?_Tidy@?$basic_regex@DV?$regex_traits@D@std@@@std@@AEAAXXZ
   9A0994 ?_Tidy@?$vector@DV?$allocator@D@std@@@std@@AEAAXXZ
   9A0994 ?_Tidy@?$vector@U_Grp_t@?$_Tgt_state_t@PEBD@std@@V?$allocator@U_Grp_t@?$_Tgt_state_t@PEBD@std@@@3@@std@@AEAAXXZ
   9A0994 ?_Tidy@?$vector@U_Loop_vals_t@std@@V?$allocator@U_Loop_vals_t@std@@@2@@std@@AEAAXXZ
   9A0994 ?_Tidy@?$vector@V?$sub_match@PEBD@std@@V?$allocator@V?$sub_match@PEBD@std@@@2@@std@@AEAAXXZ
   9A0994 ?_Tidy_deallocate@?$basic_string@DU?$char_traits@D@std@@V?$allocator@D@2@@std@@AEAAXXZ
   9A0994 ?_Tidy_init@?$basic_string@DU?$char_traits@D@std@@V?$allocator@D@2@@std@@AEAAXXZ
   9A0994 ?_Trans@?$_Parser@PEBDDV?$regex_traits@D@std@@@std@@AEAAXXZ
   9A0994 ?_Trim@?$vector@_NV?$allocator@_N@std@@@std@@QEAAX_K@Z
   9A0994 ?_Ufill@?$vector@IV?$allocator@I@std@@@std@@AEAAPEAIPEAI_KAEBI@Z
   9A0994 ?_Ufill@?$vector@U_Grp_t@?$_Tgt_state_t@PEBD@std@@V?$allocator@U_Grp_t@?$_Tgt_state_t@PEBD@std@@@3@@std@@AEAAPEAU_Grp_t@?$_Tgt_state_t@PEBD@2@PEAU342@_KU_Value_init_tag@2@@Z
   9A0994 ?_Ufill@?$vector@U_Loop_vals_t@std@@V?$allocator@U_Loop_vals_t@std@@@2@@std@@AEAAPEAU_Loop_vals_t@2@PEAU32@_KU_Value_init_tag@2@@Z
   9A0994 ?_Ufill@?$vector@V?$sub_match@PEBD@std@@V?$allocator@V?$sub_match@PEBD@std@@@2@@std@@AEAAPEAV?$sub_match@PEBD@2@PEAV32@_KU_Value_init_tag@2@@Z
   9A0994 ?_Umove_if_noexcept1@?$vector@IV?$allocator@I@std@@@std@@AEAAXPEAI00U?$integral_constant@_N$00@2@@Z
   9A0994 ?_Umove_if_noexcept1@?$vector@U_Grp_t@?$_Tgt_state_t@PEBD@std@@V?$allocator@U_Grp_t@?$_Tgt_state_t@PEBD@std@@@3@@std@@AEAAXPEAU_Grp_t@?$_Tgt_state_t@PEBD@2@00U?$integral_constant@_N$00@2@@Z
   9A0994 ?_Umove_if_noexcept1@?$vector@U_Loop_vals_t@std@@V?$allocator@U_Loop_vals_t@std@@@2@@std@@AEAAXPEAU_Loop_vals_t@2@00U?$integral_constant@_N$00@2@@Z
   9A0994 ?_Umove_if_noexcept1@?$vector@V?$sub_match@PEBD@std@@V?$allocator@V?$sub_match@PEBD@std@@@2@@std@@AEAAXPEAV?$sub_match@PEBD@2@00U?$integral_constant@_N$00@2@@Z
   9A0994 ?_Umove_if_noexcept@?$vector@IV?$allocator@I@std@@@std@@AEAAXPEAI00@Z
   9A0994 ?_Umove_if_noexcept@?$vector@U_Grp_t@?$_Tgt_state_t@PEBD@std@@V?$allocator@U_Grp_t@?$_Tgt_state_t@PEBD@std@@@3@@std@@AEAAXPEAU_Grp_t@?$_Tgt_state_t@PEBD@2@00@Z
   9A0994 ?_Umove_if_noexcept@?$vector@U_Loop_vals_t@std@@V?$allocator@U_Loop_vals_t@std@@@2@@std@@AEAAXPEAU_Loop_vals_t@2@00@Z
   9A0994 ?_Umove_if_noexcept@?$vector@V?$sub_match@PEBD@std@@V?$allocator@V?$sub_match@PEBD@std@@@2@@std@@AEAAXPEAV?$sub_match@PEBD@2@00@Z
   9A0994 ?_Unwrapped@?$_String_iterator@V?$_String_val@U?$_Simple_types@D@std@@@std@@@std@@QEBAPEADXZ
   9A0994 ?_Verify_offset@?$_Vector_const_iterator@V?$_Vector_val@U?$_Simple_types@I@std@@@std@@@std@@QEBAX_J@Z
   9A0994 ?_Wrapped_disjunction@?$_Parser@PEBDDV?$regex_traits@D@std@@@std@@AEAA_NXZ
   9A0994 ?_Xlen@?$vector@_NV?$allocator@_N@std@@@std@@QEBAXXZ
   9A0994 ?_Xlen_string@std@@YAXXZ
   9A0994 ?_Xlength@?$vector@DV?$allocator@D@std@@@std@@CAXXZ
   9A0994 ?_Xlength@?$vector@IV?$allocator@I@std@@@std@@CAXXZ
   9A0994 ?_Xlength@?$vector@U_Grp_t@?$_Tgt_state_t@PEBD@std@@V?$allocator@U_Grp_t@?$_Tgt_state_t@PEBD@std@@@3@@std@@CAXXZ
   9A0994 ?_Xlength@?$vector@U_Loop_vals_t@std@@V?$allocator@U_Loop_vals_t@std@@@2@@std@@CAXXZ
   9A0994 ?_Xlength@?$vector@V?$sub_match@PEBD@std@@V?$allocator@V?$sub_match@PEBD@std@@@2@@std@@CAXXZ
   9A0994 ?acquireNextImage@@YAXPEAURenderer@@PEAUSwapChain@@PEAUSemaphore@@PEAUFence@@PEAI@Z
   9A0994 ?addBuffer@@YAXPEAURenderer@@PEBUBufferDesc@@PEAPEAUBuffer@@@Z
   9A0994 ?addCmd@@YAXPEAURenderer@@PEBUCmdDesc@@PEAPEAUCmd@@@Z
   9A0994 ?addCmdPool@@YAXPEAURenderer@@PEBUCmdPoolDesc@@PEAPEAUCmdPool@@@Z
   9A0994 ?addCmd_n@@YAXPEAURenderer@@PEBUCmdDesc@@IPEAPEAPEAUCmd@@@Z
   9A0994 ?addComputePipeline@@YAXPEAURenderer@@PEBUPipelineDesc@@PEAPEAUPipeline@@@Z
   9A0994 ?addDescriptorSet@@YAXPEAURenderer@@PEBUDescriptorSetDesc@@PEAPEAUDescriptorSet@@@Z
   9A0994 ?addFence@@YAXPEAURenderer@@PEAPEAUFence@@@Z
   9A0994 ?addGraphicsPipeline@@YAXPEAURenderer@@PEBUPipelineDesc@@PEAPEAUPipeline@@@Z
   9A0994 ?addIndirectCommandSignature@@YAXPEAURenderer@@PEBUCommandSignatureDesc@@PEAPEAUCommandSignature@@@Z
   9A0994 ?addPage@@YAPEAUVirtualTexturePage@@PEAURenderer@@PEAUTexture@@UD3D12_TILED_RESOURCE_COORDINATE@@2III@Z
   9A0994 ?addPipeline@@YAXPEAURenderer@@PEBUPipelineDesc@@PEAPEAUPipeline@@@Z
   9A0994 ?addPipelineCache@@YAXPEAURenderer@@PEBUPipelineCacheDesc@@PEAPEAUPipelineCache@@@Z
   9A0994 ?addQueryPool@@YAXPEAURenderer@@PEBUQueryPoolDesc@@PEAPEAUQueryPool@@@Z
   9A0994 ?addQueue@@YAXPEAURenderer@@PEAUQueueDesc@@PEAPEAUQueue@@@Z
   9A0994 ?addRenderTarget@@YAXPEAURenderer@@PEBURenderTargetDesc@@PEAPEAURenderTarget@@@Z
   9A0994 ?addRootSignature@@YAXPEAURenderer@@PEBURootSignatureDesc@@PEAPEAURootSignature@@@Z
   9A0994 ?addSampler@@YAXPEAURenderer@@PEBUSamplerDesc@@PEAPEAUSampler@@@Z
   9A0994 ?addSemaphore@@YAXPEAURenderer@@PEAPEAUSemaphore@@@Z
   9A0994 ?addShaderBinary@@YAXPEAURenderer@@PEBUBinaryShaderDesc@@PEAPEAUShader@@@Z
   9A0994 ?addSwapChain@@YAXPEAURenderer@@PEBUSwapChainDesc@@PEAPEAUSwapChain@@@Z
   9A0994 ?addTexture@@YAXPEAURenderer@@PEBUTextureDesc@@PEAPEAUTexture@@@Z
   9A0994 ?addVirtualTexture@@YAXPEAUCmd@@PEBUTextureDesc@@PEAPEAUTexture@@PEAX@Z
   9A0994 ?alignedDivision@@YAXAEBUD3D12_TILED_RESOURCE_COORDINATE@@0PEAU1@@Z
   9A0994 ?allocate@?$allocator@D@std@@QEAAPEAD_K@Z
   9A0994 ?allocate@?$allocator@I@std@@QEAAPEAI_K@Z
   9A0994 ?allocate@?$allocator@U_Grp_t@?$_Tgt_state_t@PEBD@std@@@std@@QEAAPEAU_Grp_t@?$_Tgt_state_t@PEBD@2@_K@Z
   9A0994 ?allocate@?$allocator@U_Loop_vals_t@std@@@std@@QEAAPEAU_Loop_vals_t@2@_K@Z
   9A0994 ?allocate@?$allocator@V?$sub_match@PEBD@std@@@std@@QEAAPEAV?$sub_match@PEBD@2@_K@Z
   9A0994 ?allocateVirtualPage@@YA_NPEAURenderer@@PEAUTexture@@AEAUVirtualTexturePage@@@Z
   9A0994 ?append@?$basic_string@DU?$char_traits@D@std@@V?$allocator@D@2@@std@@QEAAAEAV12@_KD@Z
   9A0994 ?assign@?$_Narrow_char_traits@DH@std@@SAPEADQEAD_KD@Z
   9A0994 ?assign@?$_Narrow_char_traits@DH@std@@SAXAEADAEBD@Z
   9A0994 ?assign@?$basic_string@DU?$char_traits@D@std@@V?$allocator@D@2@@std@@QEAAAEAV12@QEBD@Z
   9A0994 ?assign@?$basic_string@DU?$char_traits@D@std@@V?$allocator@D@2@@std@@QEAAAEAV12@QEBD_K@Z
   9A0994 ?back@?$Vector@PEAVNormalBlock@D3D12MA@@@D3D12MA@@QEAAAEAPEAVNormalBlock@2@XZ
   9A0994 ?back@?$Vector@UItemBlock@?$PoolAllocator@UItem@?$List@USuballocation@D3D12MA@@@D3D12MA@@@D3D12MA@@@D3D12MA@@QEAAAEAUItemBlock@?$PoolAllocator@UItem@?$List@USuballocation@D3D12MA@@@D3D12MA@@@2@XZ
   9A0994 ?back@?$Vector@UItemBlock@?$PoolAllocator@VAllocation@D3D12MA@@@D3D12MA@@@D3D12MA@@QEAAAEAUItemBlock@?$PoolAllocator@VAllocation@D3D12MA@@@2@XZ
   9A0994 ?back@?$Vector@UStackItem@JsonWriter@D3D12MA@@@D3D12MA@@QEAAAEAUStackItem@JsonWriter@2@XZ
   9A0994 ?back@?$Vector@Viterator@?$List@USuballocation@D3D12MA@@@D3D12MA@@@D3D12MA@@QEBAAEBViterator@?$List@USuballocation@D3D12MA@@@2@XZ
   9A0994 ?back@?$vector@UDescriptorHandle@DescriptorHeap@@Vallocator_forge@eastl@@@eastl@@QEAAAEAUDescriptorHandle@DescriptorHeap@@XZ
   9A0994 ?back@?$vector@UVirtualTexturePage@@Vallocator_forge@eastl@@@eastl@@QEAAAEAUVirtualTexturePage@@XZ
   9A0994 ?base@?$generic_iterator@PEAIX@eastl@@QEBAAEBQEAIXZ
   9A0994 ?base@?$generic_iterator@PEAPEB_WX@eastl@@QEBAAEBQEAPEB_WXZ
   9A0994 ?base@?$generic_iterator@PEAU?$pair@PEAUShaderResource@@PEAUSampler@@@eastl@@X@eastl@@QEBAAEBQEAU?$pair@PEAUShaderResource@@PEAUSampler@@@2@XZ
   9A0994 ?base@?$generic_iterator@PEAU?$pair@UShaderResource@@PEAUDescriptorInfo@@@eastl@@X@eastl@@QEBAAEBQEAU?$pair@UShaderResource@@PEAUDescriptorInfo@@@2@XZ
   9A0994 ?base@?$generic_iterator@PEAUD3D12_TILED_RESOURCE_COORDINATE@@X@eastl@@QEBAAEBQEAUD3D12_TILED_RESOURCE_COORDINATE@@XZ
   9A0994 ?base@?$generic_iterator@PEAUD3D12_TILE_REGION_SIZE@@X@eastl@@QEBAAEBQEAUD3D12_TILE_REGION_SIZE@@XZ
   9A0994 ?base@?$generic_iterator@PEAUDescriptorHandle@DescriptorHeap@@X@eastl@@QEBAAEBQEAUDescriptorHandle@DescriptorHeap@@XZ
   9A0994 ?base@?$generic_iterator@PEAUShaderResource@@X@eastl@@QEBAAEBQEAUShaderResource@@XZ
   9A0994 ?base@?$generic_iterator@PEAUVirtualTexturePage@@X@eastl@@QEBAAEBQEAUVirtualTexturePage@@XZ
   9A0994 ?base@?$generic_iterator@PEAW4D3D12_TILE_RANGE_FLAGS@@X@eastl@@QEBAAEBQEAW4D3D12_TILE_RANGE_FLAGS@@XZ
   9A0994 ?base@?$generic_iterator@V?$move_iterator@PEAI@eastl@@X@eastl@@QEBAAEBV?$move_iterator@PEAI@2@XZ
   9A0994 ?base@?$generic_iterator@V?$move_iterator@PEAUD3D12_TILED_RESOURCE_COORDINATE@@@eastl@@X@eastl@@QEBAAEBV?$move_iterator@PEAUD3D12_TILED_RESOURCE_COORDINATE@@@2@XZ
   9A0994 ?base@?$generic_iterator@V?$move_iterator@PEAUD3D12_TILE_REGION_SIZE@@@eastl@@X@eastl@@QEBAAEBV?$move_iterator@PEAUD3D12_TILE_REGION_SIZE@@@2@XZ
   9A0994 ?base@?$generic_iterator@V?$move_iterator@PEAUVirtualTexturePage@@@eastl@@X@eastl@@QEBAAEBV?$move_iterator@PEAUVirtualTexturePage@@@2@XZ
   9A0994 ?base@?$generic_iterator@V?$move_iterator@PEAW4D3D12_TILE_RANGE_FLAGS@@@eastl@@X@eastl@@QEBAAEBV?$move_iterator@PEAW4D3D12_TILE_RANGE_FLAGS@@@2@XZ
   9A0994 ?base@?$move_iterator@PEAI@eastl@@QEBAPEAIXZ
   9A0994 ?base@?$move_iterator@PEAUD3D12_TILED_RESOURCE_COORDINATE@@@eastl@@QEBAPEAUD3D12_TILED_RESOURCE_COORDINATE@@XZ
   9A0994 ?base@?$move_iterator@PEAUD3D12_TILE_REGION_SIZE@@@eastl@@QEBAPEAUD3D12_TILE_REGION_SIZE@@XZ
   9A0994 ?base@?$move_iterator@PEAUVirtualTexturePage@@@eastl@@QEBAPEAUVirtualTexturePage@@XZ
   9A0994 ?base@?$move_iterator@PEAW4D3D12_TILE_RANGE_FLAGS@@@eastl@@QEBAPEAW4D3D12_TILE_RANGE_FLAGS@@XZ
   9A0994 ?begin@?$List@USuballocation@D3D12MA@@@D3D12MA@@QEAA?AViterator@12@XZ
   9A0994 ?begin@?$Vector@PEAVAllocation@D3D12MA@@@D3D12MA@@QEAAPEAPEAVAllocation@2@XZ
   9A0994 ?begin@?$Vector@PEAVPool@D3D12MA@@@D3D12MA@@QEAAPEAPEAVPool@2@XZ
   9A0994 ?begin@?$basic_string@DU?$char_traits@D@std@@V?$allocator@D@2@@std@@QEAA?AV?$_String_iterator@V?$_String_val@U?$_Simple_types@D@std@@@std@@@2@XZ
   9A0994 ?begin@?$hashtable@PEBDU?$pair@QEBDI@eastl@@Vallocator_forge@2@U?$use_first@U?$pair@QEBDI@eastl@@@2@U?$str_equal_to@PEBD@2@U?$hash@PEBD@2@Umod_range_hashing@2@Udefault_ranged_hash@2@Uprime_rehash_policy@2@$0A@$00$00@eastl@@QEAA?AU?$hashtable_iterator@U?$pair@QEBDI@eastl@@$0A@$0A@@2@XZ
   9A0994 ?begin@?$hashtable@PEBDU?$pair@QEBDI@eastl@@Vallocator_forge@2@U?$use_first@U?$pair@QEBDI@eastl@@@2@U?$str_equal_to@PEBD@2@U?$hash@PEBD@2@Umod_range_hashing@2@Udefault_ranged_hash@2@Uprime_rehash_policy@2@$0A@$00$00@eastl@@QEBA?AU?$hashtable_iterator@U?$pair@QEBDI@eastl@@$00$0A@@2@XZ
   9A0994 ?begin@?$hashtable@PEBDU?$pair@QEBDPEAUSampler@@@eastl@@Vallocator_forge@2@U?$use_first@U?$pair@QEBDPEAUSampler@@@eastl@@@2@U?$str_equal_to@PEBD@2@U?$hash@PEBD@2@Umod_range_hashing@2@Udefault_ranged_hash@2@Uprime_rehash_policy@2@$0A@$00$00@eastl@@QEAA?AU?$hashtable_iterator@U?$pair@QEBDPEAUSampler@@@eastl@@$0A@$0A@@2@XZ
   9A0994 ?begin@?$vector@IV?$allocator@I@std@@@std@@QEAA?AV?$_Vector_iterator@V?$_Vector_val@U?$_Simple_types@I@std@@@std@@@2@XZ
   9A0994 ?begin@?$vector@IVallocator_forge@eastl@@@eastl@@QEAAPEAIXZ
   9A0994 ?begin@?$vector@U?$pair@UShaderResource@@PEAUDescriptorInfo@@@eastl@@Vallocator_forge@2@@eastl@@QEAAPEAU?$pair@UShaderResource@@PEAUDescriptorInfo@@@2@XZ
   9A0994 ?begin@?$vector@UD3D12_TILED_RESOURCE_COORDINATE@@Vallocator_forge@eastl@@@eastl@@QEAAPEAUD3D12_TILED_RESOURCE_COORDINATE@@XZ
   9A0994 ?begin@?$vector@UD3D12_TILE_REGION_SIZE@@Vallocator_forge@eastl@@@eastl@@QEAAPEAUD3D12_TILE_REGION_SIZE@@XZ
   9A0994 ?begin@?$vector@UShaderResource@@Vallocator_forge@eastl@@@eastl@@QEAAPEAUShaderResource@@XZ
   9A0994 ?begin@?$vector@UVirtualTexturePage@@Vallocator_forge@eastl@@@eastl@@QEAAPEAUVirtualTexturePage@@XZ
   9A0994 ?begin@?$vector@W4D3D12_TILE_RANGE_FLAGS@@Vallocator_forge@eastl@@@eastl@@QEAAPEAW4D3D12_TILE_RANGE_FLAGS@@XZ
   9A0994 ?begin@?$vector@_NV?$allocator@_N@std@@@std@@QEAA?AV?$_Vb_iterator@U?$_Wrap_alloc@V?$allocator@I@std@@@std@@@2@XZ
   9A0994 ?beginCmd@@YAXPEAUCmd@@@Z
   9A0994 ?bucket_index@?$hash_code_base@PEAUDescriptorInfo@@U?$pair@QEAUDescriptorInfo@@I@eastl@@U?$use_first@U?$pair@QEAUDescriptorInfo@@I@eastl@@@3@U?$equal_to@PEAUDescriptorInfo@@@3@U?$hash@PEAUDescriptorInfo@@@3@Umod_range_hashing@3@Udefault_ranged_hash@3@$0A@@eastl@@IEBAIAEBQEAUDescriptorInfo@@_KI@Z
   9A0994 ?bucket_index@?$hash_code_base@PEAUDescriptorInfo@@U?$pair@QEAUDescriptorInfo@@I@eastl@@U?$use_first@U?$pair@QEAUDescriptorInfo@@I@eastl@@@3@U?$equal_to@PEAUDescriptorInfo@@@3@U?$hash@PEAUDescriptorInfo@@@3@Umod_range_hashing@3@Udefault_ranged_hash@3@$0A@@eastl@@IEBAIPEBU?$hash_node@U?$pair@QEAUDescriptorInfo@@I@eastl@@$0A@@2@I@Z
   9A0994 ?bucket_index@?$hash_code_base@PEBDU?$pair@QEBDI@eastl@@U?$use_first@U?$pair@QEBDI@eastl@@@2@U?$str_equal_to@PEBD@2@U?$hash@PEBD@2@Umod_range_hashing@2@Udefault_ranged_hash@2@$0A@@eastl@@IEBAIAEBQEBD_KI@Z
   9A0994 ?bucket_index@?$hash_code_base@PEBDU?$pair@QEBDI@eastl@@U?$use_first@U?$pair@QEBDI@eastl@@@2@U?$str_equal_to@PEBD@2@U?$hash@PEBD@2@Umod_range_hashing@2@Udefault_ranged_hash@2@$0A@@eastl@@IEBAIPEBU?$hash_node@U?$pair@QEBDI@eastl@@$0A@@2@I@Z
   9A0994 ?bucket_index@?$hash_code_base@PEBDU?$pair@QEBDPEAUSampler@@@eastl@@U?$use_first@U?$pair@QEBDPEAUSampler@@@eastl@@@2@U?$str_equal_to@PEBD@2@U?$hash@PEBD@2@Umod_range_hashing@2@Udefault_ranged_hash@2@$0A@@eastl@@IEBAIAEBQEBD_KI@Z
   9A0994 ?bucket_index@?$hash_code_base@PEBDU?$pair@QEBDPEAUSampler@@@eastl@@U?$use_first@U?$pair@QEBDPEAUSampler@@@eastl@@@2@U?$str_equal_to@PEBD@2@U?$hash@PEBD@2@Umod_range_hashing@2@Udefault_ranged_hash@2@$0A@@eastl@@IEBAIPEBU?$hash_node@U?$pair@QEBDPEAUSampler@@@eastl@@$0A@@2@I@Z
   9A0994 ?c_str@?$basic_string@DU?$char_traits@D@std@@V?$allocator@D@2@@std@@QEBAPEBDXZ
   9A0994 ?calculateMemoryStats@@YAXPEAURenderer@@PEAPEAD@Z
   9A0994 ?calculateMemoryUse@@YAXPEAURenderer@@PEA_K1@Z
   9A0994 ?calculate_root_signature_size@@YAIPEAUUpdateFrequencyLayoutInfo@@I@Z
   9A0994 ?capacity@?$vector@IV?$allocator@I@std@@@std@@QEBA_KXZ
   9A0994 ?capacity@?$vector@U_Grp_t@?$_Tgt_state_t@PEBD@std@@V?$allocator@U_Grp_t@?$_Tgt_state_t@PEBD@std@@@3@@std@@QEBA_KXZ
   9A0994 ?capacity@?$vector@U_Loop_vals_t@std@@V?$allocator@U_Loop_vals_t@std@@@2@@std@@QEBA_KXZ
   9A0994 ?capacity@?$vector@V?$sub_match@PEBD@std@@V?$allocator@V?$sub_match@PEBD@std@@@2@@std@@QEBA_KXZ
   9A0994 ?cbegin@?$List@USuballocation@D3D12MA@@@D3D12MA@@QEBA?AVconst_iterator@12@XZ
   9A0994 ?cend@?$List@USuballocation@D3D12MA@@@D3D12MA@@QEBA?AVconst_iterator@12@XZ
   9A0994 ?checkForActiveGPU@@YA_NPEBDAEAUGPUVendorPreset@@@Z
   9A0994 ?checkForPresetLevel@@YAXPEBDPEAURenderer@@IPEAUGPUSettings@@@Z
   9A0994 ?clear@?$Vector@UItemBlock@?$PoolAllocator@UItem@?$List@USuballocation@D3D12MA@@@D3D12MA@@@D3D12MA@@@D3D12MA@@QEAAX_N@Z
   9A0994 ?clear@?$Vector@UItemBlock@?$PoolAllocator@VAllocation@D3D12MA@@@D3D12MA@@@D3D12MA@@QEAAX_N@Z
   9A0994 ?clear@?$hashtable@PEAUDescriptorInfo@@U?$pair@QEAUDescriptorInfo@@I@eastl@@Vallocator_forge@3@U?$use_first@U?$pair@QEAUDescriptorInfo@@I@eastl@@@3@U?$equal_to@PEAUDescriptorInfo@@@3@U?$hash@PEAUDescriptorInfo@@@3@Umod_range_hashing@3@Udefault_ranged_hash@3@Uprime_rehash_policy@3@$0A@$00$00@eastl@@QEAAXXZ
   9A0994 ?clear@?$hashtable@PEBDU?$pair@QEBDI@eastl@@Vallocator_forge@2@U?$use_first@U?$pair@QEBDI@eastl@@@2@U?$str_equal_to@PEBD@2@U?$hash@PEBD@2@Umod_range_hashing@2@Udefault_ranged_hash@2@Uprime_rehash_policy@2@$0A@$00$00@eastl@@QEAAXXZ
   9A0994 ?clear@?$hashtable@PEBDU?$pair@QEBDI@eastl@@Vallocator_forge@2@U?$use_first@U?$pair@QEBDI@eastl@@@2@U?$str_equal_to@PEBD@2@U?$hash@PEBD@2@Umod_range_hashing@2@Udefault_ranged_hash@2@Uprime_rehash_policy@2@$0A@$00$00@eastl@@QEAAX_N@Z
   9A0994 ?clear@?$hashtable@PEBDU?$pair@QEBDPEAUSampler@@@eastl@@Vallocator_forge@2@U?$use_first@U?$pair@QEBDPEAUSampler@@@eastl@@@2@U?$str_equal_to@PEBD@2@U?$hash@PEBD@2@Umod_range_hashing@2@Udefault_ranged_hash@2@Uprime_rehash_policy@2@$0A@$00$00@eastl@@QEAAXXZ
   9A0994 ?clear@?$string_hash_map@IU?$hash@PEBD@eastl@@U?$str_equal_to@PEBD@2@Vallocator_forge@2@@eastl@@QEAAXXZ
   9A0994 ?clear@?$string_hash_map@IU?$hash@PEBD@eastl@@U?$str_equal_to@PEBD@2@Vallocator_forge@2@@eastl@@QEAAX_N@Z
   9A0994 ?clear@?$string_hash_map@PEAUSampler@@U?$hash@PEBD@eastl@@U?$str_equal_to@PEBD@3@Vallocator_forge@3@@eastl@@QEAAXXZ
   9A0994 ?clear@?$vector@IVallocator_forge@eastl@@@eastl@@QEAAXXZ
   9A0994 ?clear@?$vector@UD3D12_TILED_RESOURCE_COORDINATE@@Vallocator_forge@eastl@@@eastl@@QEAAXXZ
   9A0994 ?clear@?$vector@UD3D12_TILE_REGION_SIZE@@Vallocator_forge@eastl@@@eastl@@QEAAXXZ
   9A0994 ?clear@?$vector@UVirtualTexturePage@@Vallocator_forge@eastl@@@eastl@@QEAAXXZ
   9A0994 ?clear@?$vector@W4D3D12_TILE_RANGE_FLAGS@@Vallocator_forge@eastl@@@eastl@@QEAAXXZ
   9A0994 ?cmdAddDebugMarker@@YAXPEAUCmd@@MMMPEBD@Z
   9A0994 ?cmdBeginDebugMarker@@YAXPEAUCmd@@MMMPEBD@Z
   9A0994 ?cmdBeginQuery@@YAXPEAUCmd@@PEAUQueryPool@@PEAUQueryDesc@@@Z
   9A0994 ?cmdBindDescriptorSet@@YAXPEAUCmd@@IPEAUDescriptorSet@@@Z
   9A0994 ?cmdBindIndexBuffer@@YAXPEAUCmd@@PEAUBuffer@@I_K@Z
   9A0994 ?cmdBindPipeline@@YAXPEAUCmd@@PEAUPipeline@@@Z
   9A0994 ?cmdBindPushConstants@@YAXPEAUCmd@@PEAURootSignature@@PEBDPEBX@Z
   9A0994 ?cmdBindPushConstantsByIndex@@YAXPEAUCmd@@PEAURootSignature@@IPEBX@Z
   9A0994 ?cmdBindRenderTargets@@YAXPEAUCmd@@IPEAPEAURenderTarget@@PEAU2@PEBULoadActionsDesc@@PEAI4II@Z
   9A0994 ?cmdBindVertexBuffer@@YAXPEAUCmd@@IPEAPEAUBuffer@@PEBIPEB_K@Z
   9A0994 ?cmdDispatch@@YAXPEAUCmd@@III@Z
   9A0994 ?cmdDraw@@YAXPEAUCmd@@II@Z
   9A0994 ?cmdDrawIndexed@@YAXPEAUCmd@@III@Z
   9A0994 ?cmdDrawIndexedInstanced@@YAXPEAUCmd@@IIIII@Z
   9A0994 ?cmdDrawInstanced@@YAXPEAUCmd@@IIII@Z
   9A0994 ?cmdEndDebugMarker@@YAXPEAUCmd@@@Z
   9A0994 ?cmdEndQuery@@YAXPEAUCmd@@PEAUQueryPool@@PEAUQueryDesc@@@Z
   9A0994 ?cmdExecuteIndirect@@YAXPEAUCmd@@PEAUCommandSignature@@IPEAUBuffer@@_K23@Z
   9A0994 ?cmdResetQueryPool@@YAXPEAUCmd@@PEAUQueryPool@@II@Z
   9A0994 ?cmdResolveQuery@@YAXPEAUCmd@@PEAUQueryPool@@PEAUBuffer@@II@Z
   9A0994 ?cmdResourceBarrier@@YAXPEAUCmd@@IPEAUBufferBarrier@@IPEAUTextureBarrier@@IPEAURenderTargetBarrier@@@Z
   9A0994 ?cmdSetScissor@@YAXPEAUCmd@@IIII@Z
   9A0994 ?cmdSetViewport@@YAXPEAUCmd@@MMMMMM@Z
   9A0994 ?cmdUpdateBuffer@@YAXPEAUCmd@@PEAUBuffer@@_K122@Z
   9A0994 ?cmdUpdateSubresource@@YAXPEAUCmd@@PEAUTexture@@PEAUBuffer@@PEBUSubresourceDataDesc@@@Z
   9A0994 ?cmdUpdateVirtualTexture@@YAXPEAUCmd@@PEAUTexture@@@Z
   9A0994 ?compare@?$_Narrow_char_traits@DH@std@@SAHQEBD0_K@Z
   9A0994 ?compare@?$hash_code_base@PEAUDescriptorInfo@@U?$pair@QEAUDescriptorInfo@@I@eastl@@U?$use_first@U?$pair@QEAUDescriptorInfo@@I@eastl@@@3@U?$equal_to@PEAUDescriptorInfo@@@3@U?$hash@PEAUDescriptorInfo@@@3@Umod_range_hashing@3@Udefault_ranged_hash@3@$0A@@eastl@@IEBA_NAEBQEAUDescriptorInfo@@_KPEAU?$hash_node@U?$pair@QEAUDescriptorInfo@@I@eastl@@$0A@@2@@Z
   9A0994 ?compare@?$hash_code_base@PEBDU?$pair@QEBDI@eastl@@U?$use_first@U?$pair@QEBDI@eastl@@@2@U?$str_equal_to@PEBD@2@U?$hash@PEBD@2@Umod_range_hashing@2@Udefault_ranged_hash@2@$0A@@eastl@@IEBA_NAEBQEBD_KPEAU?$hash_node@U?$pair@QEBDI@eastl@@$0A@@2@@Z
   9A0994 ?compare@?$hash_code_base@PEBDU?$pair@QEBDPEAUSampler@@@eastl@@U?$use_first@U?$pair@QEBDPEAUSampler@@@eastl@@@2@U?$str_equal_to@PEBD@2@U?$hash@PEBD@2@Umod_range_hashing@2@Udefault_ranged_hash@2@$0A@@eastl@@IEBA_NAEBQEBD_KPEAU?$hash_node@U?$pair@QEBDPEAUSampler@@@eastl@@$0A@@2@@Z
   9A0994 ?compileShader@@YAXPEAURenderer@@W4ShaderTarget@@W4ShaderStage@@PEBDI3_NIPEAUShaderMacro@@PEAUBinaryShaderStageDesc@@3@Z
   9A0994 ?copy@?$_Narrow_char_traits@DH@std@@SAPEADQEADQEBD_K@Z
   9A0994 ?create_descriptor_table@@YAXIPEAU?$pair@UShaderResource@@PEAUDescriptorInfo@@@eastl@@PEAUD3D12_DESCRIPTOR_RANGE1@@PEAUD3D12_ROOT_PARAMETER1@@@Z
   9A0994 ?create_root_constant@@YAXPEBU?$pair@UShaderResource@@PEAUDescriptorInfo@@@eastl@@PEAUD3D12_ROOT_PARAMETER1@@@Z
   9A0994 ?create_root_descriptor@@YAXPEBU?$pair@UShaderResource@@PEAUDescriptorInfo@@@eastl@@PEAUD3D12_ROOT_PARAMETER1@@@Z
   9A0994 ?data@?$Vector@Viterator@?$List@USuballocation@D3D12MA@@@D3D12MA@@@D3D12MA@@QEAAPEAViterator@?$List@USuballocation@D3D12MA@@@2@XZ
   9A0994 ?data@?$Vector@_W@D3D12MA@@QEAAPEA_WXZ
   9A0994 ?data@?$Vector@_W@D3D12MA@@QEBAPEB_WXZ
   9A0994 ?data@?$vector@DV?$allocator@D@std@@@std@@QEAAPEADXZ
   9A0994 ?data@?$vector@IV?$allocator@I@std@@@std@@QEAAPEAIXZ
   9A0994 ?data@?$vector@IVallocator_forge@eastl@@@eastl@@QEAAPEAIXZ
   9A0994 ?data@?$vector@PEB_WVallocator_forge@eastl@@@eastl@@QEAAPEAPEB_WXZ
   9A0994 ?data@?$vector@U?$pair@UShaderResource@@PEAUDescriptorInfo@@@eastl@@Vallocator_forge@2@@eastl@@QEAAPEAU?$pair@UShaderResource@@PEAUDescriptorInfo@@@2@XZ
   9A0994 ?data@?$vector@UD3D12_TILED_RESOURCE_COORDINATE@@Vallocator_forge@eastl@@@eastl@@QEAAPEAUD3D12_TILED_RESOURCE_COORDINATE@@XZ
   9A0994 ?data@?$vector@UD3D12_TILE_REGION_SIZE@@Vallocator_forge@eastl@@@eastl@@QEAAPEAUD3D12_TILE_REGION_SIZE@@XZ
   9A0994 ?data@?$vector@W4D3D12_TILE_RANGE_FLAGS@@Vallocator_forge@eastl@@@eastl@@QEAAPEAW4D3D12_TILE_RANGE_FLAGS@@XZ
   9A0994 ?deallocate@?$allocator@D@std@@QEAAXQEAD_K@Z
   9A0994 ?deallocate@?$allocator@U_Grp_t@?$_Tgt_state_t@PEBD@std@@@std@@QEAAXQEAU_Grp_t@?$_Tgt_state_t@PEBD@2@_K@Z
   9A0994 ?deallocate@?$allocator@U_Loop_vals_t@std@@@std@@QEAAXQEAU_Loop_vals_t@2@_K@Z
   9A0994 ?deallocate@?$allocator@V?$sub_match@PEBD@std@@@std@@QEAAXQEAV?$sub_match@PEBD@2@_K@Z
   9A0994 ?do_compare@?$collate@D@std@@MEBAHPEBD000@Z
   9A0994 ?do_hash@?$collate@D@std@@MEBAJPEBD0@Z
   9A0994 ?do_transform@?$collate@D@std@@MEBA?AV?$basic_string@DU?$char_traits@D@std@@V?$allocator@D@2@@2@PEBD0@Z
   9A0994 ?empty@?$List@USuballocation@D3D12MA@@@D3D12MA@@QEBA_NXZ
   9A0994 ?empty@?$Vector@PEAVAllocation@D3D12MA@@@D3D12MA@@QEBA_NXZ
   9A0994 ?empty@?$Vector@PEAVNormalBlock@D3D12MA@@@D3D12MA@@QEBA_NXZ
   9A0994 ?empty@?$Vector@PEAVPool@D3D12MA@@@D3D12MA@@QEBA_NXZ
   9A0994 ?empty@?$Vector@UItemBlock@?$PoolAllocator@UItem@?$List@USuballocation@D3D12MA@@@D3D12MA@@@D3D12MA@@@D3D12MA@@QEBA_NXZ
   9A0994 ?empty@?$Vector@UItemBlock@?$PoolAllocator@VAllocation@D3D12MA@@@D3D12MA@@@D3D12MA@@QEBA_NXZ
   9A0994 ?empty@?$Vector@UStackItem@JsonWriter@D3D12MA@@@D3D12MA@@QEBA_NXZ
   9A0994 ?empty@?$Vector@Viterator@?$List@USuballocation@D3D12MA@@@D3D12MA@@@D3D12MA@@QEBA_NXZ
   9A0994 ?empty@?$vector@_NV?$allocator@_N@std@@@std@@QEBA_NXZ
   9A0994 ?end@?$List@USuballocation@D3D12MA@@@D3D12MA@@QEAA?AViterator@12@XZ
   9A0994 ?end@?$Vector@PEAVAllocation@D3D12MA@@@D3D12MA@@QEAAPEAPEAVAllocation@2@XZ
   9A0994 ?end@?$Vector@PEAVPool@D3D12MA@@@D3D12MA@@QEAAPEAPEAVPool@2@XZ
   9A0994 ?end@?$basic_string@DU?$char_traits@D@std@@V?$allocator@D@2@@std@@QEAA?AV?$_String_iterator@V?$_String_val@U?$_Simple_types@D@std@@@std@@@2@XZ
   9A0994 ?end@?$hashtable@PEBDU?$pair@QEBDI@eastl@@Vallocator_forge@2@U?$use_first@U?$pair@QEBDI@eastl@@@2@U?$str_equal_to@PEBD@2@U?$hash@PEBD@2@Umod_range_hashing@2@Udefault_ranged_hash@2@Uprime_rehash_policy@2@$0A@$00$00@eastl@@QEAA?AU?$hashtable_iterator@U?$pair@QEBDI@eastl@@$0A@$0A@@2@XZ
   9A0994 ?end@?$hashtable@PEBDU?$pair@QEBDI@eastl@@Vallocator_forge@2@U?$use_first@U?$pair@QEBDI@eastl@@@2@U?$str_equal_to@PEBD@2@U?$hash@PEBD@2@Umod_range_hashing@2@Udefault_ranged_hash@2@Uprime_rehash_policy@2@$0A@$00$00@eastl@@QEBA?AU?$hashtable_iterator@U?$pair@QEBDI@eastl@@$00$0A@@2@XZ
   9A0994 ?end@?$hashtable@PEBDU?$pair@QEBDPEAUSampler@@@eastl@@Vallocator_forge@2@U?$use_first@U?$pair@QEBDPEAUSampler@@@eastl@@@2@U?$str_equal_to@PEBD@2@U?$hash@PEBD@2@Umod_range_hashing@2@Udefault_ranged_hash@2@Uprime_rehash_policy@2@$0A@$00$00@eastl@@QEAA?AU?$hashtable_iterator@U?$pair@QEBDPEAUSampler@@@eastl@@$0A@$0A@@2@XZ
   9A0994 ?end@?$vector@IV?$allocator@I@std@@@std@@QEAA?AV?$_Vector_iterator@V?$_Vector_val@U?$_Simple_types@I@std@@@std@@@2@XZ
   9A0994 ?end@?$vector@IVallocator_forge@eastl@@@eastl@@QEAAPEAIXZ
   9A0994 ?end@?$vector@PEB_WVallocator_forge@eastl@@@eastl@@QEAAPEAPEB_WXZ
   9A0994 ?end@?$vector@U?$pair@UShaderResource@@PEAUDescriptorInfo@@@eastl@@Vallocator_forge@2@@eastl@@QEAAPEAU?$pair@UShaderResource@@PEAUDescriptorInfo@@@2@XZ
   9A0994 ?end@?$vector@UD3D12_TILED_RESOURCE_COORDINATE@@Vallocator_forge@eastl@@@eastl@@QEAAPEAUD3D12_TILED_RESOURCE_COORDINATE@@XZ
   9A0994 ?end@?$vector@UD3D12_TILE_REGION_SIZE@@Vallocator_forge@eastl@@@eastl@@QEAAPEAUD3D12_TILE_REGION_SIZE@@XZ
   9A0994 ?end@?$vector@UShaderResource@@Vallocator_forge@eastl@@@eastl@@QEAAPEAUShaderResource@@XZ
   9A0994 ?end@?$vector@UVirtualTexturePage@@Vallocator_forge@eastl@@@eastl@@QEAAPEAUVirtualTexturePage@@XZ
   9A0994 ?end@?$vector@W4D3D12_TILE_RANGE_FLAGS@@Vallocator_forge@eastl@@@eastl@@QEAAPEAW4D3D12_TILE_RANGE_FLAGS@@XZ
   9A0994 ?end@?$vector@_NV?$allocator@_N@std@@@std@@QEAA?AV?$_Vb_iterator@U?$_Wrap_alloc@V?$allocator@I@std@@@std@@@2@XZ
   9A0994 ?endCmd@@YAXPEAUCmd@@@Z
   9A0994 ?erase@?$List@USuballocation@D3D12MA@@@D3D12MA@@QEAAXViterator@12@@Z
   9A0994 ?erase@?$vector@IV?$allocator@I@std@@@std@@QEAA?AV?$_Vector_iterator@V?$_Vector_val@U?$_Simple_types@I@std@@@std@@@2@V?$_Vector_const_iterator@V?$_Vector_val@U?$_Simple_types@I@std@@@std@@@2@0@Z
   9A0994 ?erase@?$vector@_NV?$allocator@_N@std@@@std@@QEAA?AV?$_Vb_iterator@U?$_Wrap_alloc@V?$allocator@I@std@@@std@@@2@V?$_Vb_const_iterator@U?$_Wrap_alloc@V?$allocator@I@std@@@std@@@2@0@Z
   9A0994 ?fetch_add@?$_Atomic_integral@_K$07@std@@QEAA_K_KW4memory_order@2@@Z
   9A0994 ?fetch_sub@?$_Atomic_integral_facade@_K@std@@QEAA_K_K@Z
   9A0994 ?fillVirtualTexture@@YAXPEAUCmd@@PEAUTexture@@PEAUFence@@@Z
   9A0994 ?fillVirtualTextureLevel@@YAXPEAUCmd@@PEAUTexture@@I@Z
   9A0994 ?find@?$hashtable@PEBDU?$pair@QEBDI@eastl@@Vallocator_forge@2@U?$use_first@U?$pair@QEBDI@eastl@@@2@U?$str_equal_to@PEBD@2@U?$hash@PEBD@2@Umod_range_hashing@2@Udefault_ranged_hash@2@Uprime_rehash_policy@2@$0A@$00$00@eastl@@QEAA?AU?$hashtable_iterator@U?$pair@QEBDI@eastl@@$0A@$0A@@2@AEBQEBD@Z
   9A0994 ?find@?$hashtable@PEBDU?$pair@QEBDPEAUSampler@@@eastl@@Vallocator_forge@2@U?$use_first@U?$pair@QEBDPEAUSampler@@@eastl@@@2@U?$str_equal_to@PEBD@2@U?$hash@PEBD@2@Umod_range_hashing@2@Udefault_ranged_hash@2@Uprime_rehash_policy@2@$0A@$00$00@eastl@@QEAA?AU?$hashtable_iterator@U?$pair@QEBDPEAUSampler@@@eastl@@$0A@$0A@@2@AEBQEBD@Z
   9A0994 ?first@?$compressed_pair@PEAIVallocator_forge@eastl@@@eastl@@QEAAAEAPEAIXZ
   9A0994 ?first@?$compressed_pair@PEAU?$pair@PEAUShaderResource@@PEAUSampler@@@eastl@@Vallocator_forge@2@@eastl@@QEAAAEAPEAU?$pair@PEAUShaderResource@@PEAUSampler@@@2@XZ
   9A0994 ?first@?$compressed_pair@PEAU?$pair@UShaderResource@@PEAUDescriptorInfo@@@eastl@@Vallocator_forge@2@@eastl@@QEAAAEAPEAU?$pair@UShaderResource@@PEAUDescriptorInfo@@@2@XZ
   9A0994 ?first@?$compressed_pair@PEAUD3D12_SUBRESOURCE_TILING@@Vallocator_forge@eastl@@@eastl@@QEAAAEAPEAUD3D12_SUBRESOURCE_TILING@@XZ
   9A0994 ?first@?$compressed_pair@PEAUD3D12_TILED_RESOURCE_COORDINATE@@Vallocator_forge@eastl@@@eastl@@QEAAAEAPEAUD3D12_TILED_RESOURCE_COORDINATE@@XZ
   9A0994 ?first@?$compressed_pair@PEAUD3D12_TILE_REGION_SIZE@@Vallocator_forge@eastl@@@eastl@@QEAAAEAPEAUD3D12_TILE_REGION_SIZE@@XZ
   9A0994 ?first@?$compressed_pair@PEAUDescriptorHandle@DescriptorHeap@@Vallocator_forge@eastl@@@eastl@@QEAAAEAPEAUDescriptorHandle@DescriptorHeap@@XZ
   9A0994 ?first@?$compressed_pair@PEAUShaderResource@@Vallocator_forge@eastl@@@eastl@@QEAAAEAPEAUShaderResource@@XZ
   9A0994 ?first@?$compressed_pair@PEAUVirtualTexturePage@@Vallocator_forge@eastl@@@eastl@@QEAAAEAPEAUVirtualTexturePage@@XZ
   9A0994 ?first@?$compressed_pair@PEAW4D3D12_TILE_RANGE_FLAGS@@Vallocator_forge@eastl@@@eastl@@QEAAAEAPEAW4D3D12_TILE_RANGE_FLAGS@@XZ
   9A0994 ?first@?$compressed_pair_imp@PEAIVallocator_forge@eastl@@$01@eastl@@QEAAAEAPEAIXZ
   9A0994 ?first@?$compressed_pair_imp@PEAU?$pair@PEAUShaderResource@@PEAUSampler@@@eastl@@Vallocator_forge@2@$01@eastl@@QEAAAEAPEAU?$pair@PEAUShaderResource@@PEAUSampler@@@2@XZ
   9A0994 ?first@?$compressed_pair_imp@PEAU?$pair@UShaderResource@@PEAUDescriptorInfo@@@eastl@@Vallocator_forge@2@$01@eastl@@QEAAAEAPEAU?$pair@UShaderResource@@PEAUDescriptorInfo@@@2@XZ
   9A0994 ?first@?$compressed_pair_imp@PEAUD3D12_SUBRESOURCE_TILING@@Vallocator_forge@eastl@@$01@eastl@@QEAAAEAPEAUD3D12_SUBRESOURCE_TILING@@XZ
   9A0994 ?first@?$compressed_pair_imp@PEAUD3D12_TILED_RESOURCE_COORDINATE@@Vallocator_forge@eastl@@$01@eastl@@QEAAAEAPEAUD3D12_TILED_RESOURCE_COORDINATE@@XZ
   9A0994 ?first@?$compressed_pair_imp@PEAUD3D12_TILE_REGION_SIZE@@Vallocator_forge@eastl@@$01@eastl@@QEAAAEAPEAUD3D12_TILE_REGION_SIZE@@XZ
   9A0994 ?first@?$compressed_pair_imp@PEAUDescriptorHandle@DescriptorHeap@@Vallocator_forge@eastl@@$01@eastl@@QEAAAEAPEAUDescriptorHandle@DescriptorHeap@@XZ
   9A0994 ?first@?$compressed_pair_imp@PEAUShaderResource@@Vallocator_forge@eastl@@$01@eastl@@QEAAAEAPEAUShaderResource@@XZ
   9A0994 ?first@?$compressed_pair_imp@PEAUVirtualTexturePage@@Vallocator_forge@eastl@@$01@eastl@@QEAAAEAPEAUVirtualTexturePage@@XZ
   9A0994 ?first@?$compressed_pair_imp@PEAW4D3D12_TILE_RANGE_FLAGS@@Vallocator_forge@eastl@@$01@eastl@@QEAAAEAPEAW4D3D12_TILE_RANGE_FLAGS@@XZ
   9A0994 ?flags@?$basic_regex@DV?$regex_traits@D@std@@@std@@QEBA?AW4syntax_option_type@regex_constants@2@XZ
   9A0994 ?fnD3D12CreateRootSignatureDeserializer@@3P6AJPEBX_KAEBU_GUID@@PEAPEAX@ZEA
   9A0994 ?fnD3D12CreateVersionedRootSignatureDeserializer@@3P6AJPEBX_KAEBU_GUID@@PEAPEAX@ZEA
   9A0994 ?fnD3D12SerializeVersionedRootSignature@@3P6AJPEBUD3D12_VERSIONED_ROOT_SIGNATURE_DESC@@PEAPEAUID3D10Blob@@1@ZEA
   9A0994 ?freeMemoryStats@@YAXPEAURenderer@@PEAD@Z
   9A0994 ?gCpuDescriptorHeapProperties@@3PAUDescriptorHeapProperties@@A
   9A0994 ?gDefaultBlendDesc@@3UD3D12_BLEND_DESC@@A
   9A0994 ?gDefaultDepthDesc@@3UD3D12_DEPTH_STENCIL_DESC@@A
   9A0994 ?gDefaultRasterizerDesc@@3UD3D12_RASTERIZER_DESC@@A
   9A0994 ?gDx12BlendConstantTranslator@@3PAW4D3D12_BLEND@@A
   9A0994 ?gDx12BlendOpTranslator@@3PAW4D3D12_BLEND_OP@@A
   9A0994 ?gDx12ComparisonFuncTranslator@@3PAW4D3D12_COMPARISON_FUNC@@A
   9A0994 ?gDx12CullModeTranslator@@3PAW4D3D12_CULL_MODE@@A
   9A0994 ?gDx12FillModeTranslator@@3PAW4D3D12_FILL_MODE@@A
   9A0994 ?gDx12StencilOpTranslator@@3PAW4D3D12_STENCIL_OP@@A
   9A0994 ?getActiveGpuConfig@@YA_NAEAUGPUVendorPreset@@@Z
   9A0994 ?getFenceStatus@@YAXPEAURenderer@@PEAUFence@@PEAW4FenceStatus@@@Z
   9A0994 ?getGPUPresetLevel@@YA?AW4GPUPresetLevel@@PEBD00@Z
   9A0994 ?getGPUPresetLevel@@YA?AW4GPUPresetLevel@@V?$basic_string@DVallocator_forge@eastl@@@eastl@@00@Z
   9A0994 ?getPipelineCacheData@@YAXPEAURenderer@@PEAUPipelineCache@@PEA_KPEAX@Z
   9A0994 ?getRecommendedSwapchainFormat@@YA?AW4TinyImageFormat@@_N@Z
   9A0994 ?getSinglePresetLevel@@YA?AW4GPUPresetLevel@@PEBD000@Z
   9A0994 ?getTimestampFrequency@@YAXPEAUQueue@@PEAN@Z
   9A0994 ?get_allocator@?$hashtable@PEBDU?$pair@QEBDI@eastl@@Vallocator_forge@2@U?$use_first@U?$pair@QEBDI@eastl@@@2@U?$str_equal_to@PEBD@2@U?$hash@PEBD@2@Umod_range_hashing@2@Udefault_ranged_hash@2@Uprime_rehash_policy@2@$0A@$00$00@eastl@@QEAAAEAVallocator_forge@2@XZ
   9A0994 ?get_allocator@?$hashtable@PEBDU?$pair@QEBDPEAUSampler@@@eastl@@Vallocator_forge@2@U?$use_first@U?$pair@QEBDPEAUSampler@@@eastl@@@2@U?$str_equal_to@PEBD@2@U?$hash@PEBD@2@Umod_range_hashing@2@Udefault_ranged_hash@2@Uprime_rehash_policy@2@$0A@$00$00@eastl@@QEAAAEAVallocator_forge@2@XZ
   9A0994 ?get_base@?$is_iterator_wrapper_helper@PEAI$0A@@eastl@@SAPEAIPEAI@Z
   9A0994 ?get_base@?$is_iterator_wrapper_helper@PEAPEB_W$0A@@eastl@@SAPEAPEB_WPEAPEB_W@Z
   9A0994 ?get_base@?$is_iterator_wrapper_helper@PEAU?$pair@UShaderResource@@PEAUDescriptorInfo@@@eastl@@$0A@@eastl@@SAPEAU?$pair@UShaderResource@@PEAUDescriptorInfo@@@2@PEAU32@@Z
   9A0994 ?get_base@?$is_iterator_wrapper_helper@PEAUD3D12_TILED_RESOURCE_COORDINATE@@$0A@@eastl@@SAPEAUD3D12_TILED_RESOURCE_COORDINATE@@PEAU3@@Z
   9A0994 ?get_base@?$is_iterator_wrapper_helper@PEAUD3D12_TILE_REGION_SIZE@@$0A@@eastl@@SAPEAUD3D12_TILE_REGION_SIZE@@PEAU3@@Z
   9A0994 ?get_base@?$is_iterator_wrapper_helper@PEAUDescriptorHandle@DescriptorHeap@@$0A@@eastl@@SAPEAUDescriptorHandle@DescriptorHeap@@PEAU34@@Z
   9A0994 ?get_base@?$is_iterator_wrapper_helper@PEAUShaderResource@@$0A@@eastl@@SAPEAUShaderResource@@PEAU3@@Z
   9A0994 ?get_base@?$is_iterator_wrapper_helper@PEAUVirtualTexturePage@@$0A@@eastl@@SAPEAUVirtualTexturePage@@PEAU3@@Z
   9A0994 ?get_base@?$is_iterator_wrapper_helper@PEAW4D3D12_TILE_RANGE_FLAGS@@$0A@@eastl@@SAPEAW4D3D12_TILE_RANGE_FLAGS@@PEAW43@@Z
   9A0994 ?get_base@?$is_iterator_wrapper_helper@V?$generic_iterator@PEAIX@eastl@@$00@eastl@@SAPEAIV?$generic_iterator@PEAIX@2@@Z
   9A0994 ?get_base@?$is_iterator_wrapper_helper@V?$generic_iterator@PEAPEB_WX@eastl@@$00@eastl@@SAPEAPEB_WV?$generic_iterator@PEAPEB_WX@2@@Z
   9A0994 ?get_base@?$is_iterator_wrapper_helper@V?$generic_iterator@PEAUD3D12_TILED_RESOURCE_COORDINATE@@X@eastl@@$00@eastl@@SAPEAUD3D12_TILED_RESOURCE_COORDINATE@@V?$generic_iterator@PEAUD3D12_TILED_RESOURCE_COORDINATE@@X@2@@Z
   9A0994 ?get_base@?$is_iterator_wrapper_helper@V?$generic_iterator@PEAUD3D12_TILE_REGION_SIZE@@X@eastl@@$00@eastl@@SAPEAUD3D12_TILE_REGION_SIZE@@V?$generic_iterator@PEAUD3D12_TILE_REGION_SIZE@@X@2@@Z
   9A0994 ?get_base@?$is_iterator_wrapper_helper@V?$generic_iterator@PEAUDescriptorHandle@DescriptorHeap@@X@eastl@@$00@eastl@@SAPEAUDescriptorHandle@DescriptorHeap@@V?$generic_iterator@PEAUDescriptorHandle@DescriptorHeap@@X@2@@Z
   9A0994 ?get_base@?$is_iterator_wrapper_helper@V?$generic_iterator@PEAUShaderResource@@X@eastl@@$00@eastl@@SAPEAUShaderResource@@V?$generic_iterator@PEAUShaderResource@@X@2@@Z
   9A0994 ?get_base@?$is_iterator_wrapper_helper@V?$generic_iterator@PEAUVirtualTexturePage@@X@eastl@@$00@eastl@@SAPEAUVirtualTexturePage@@V?$generic_iterator@PEAUVirtualTexturePage@@X@2@@Z
   9A0994 ?get_base@?$is_iterator_wrapper_helper@V?$generic_iterator@PEAW4D3D12_TILE_RANGE_FLAGS@@X@eastl@@$00@eastl@@SAPEAW4D3D12_TILE_RANGE_FLAGS@@V?$generic_iterator@PEAW4D3D12_TILE_RANGE_FLAGS@@X@2@@Z
   9A0994 ?get_base@?$is_iterator_wrapper_helper@V?$generic_iterator@V?$move_iterator@PEAI@eastl@@X@eastl@@$00@eastl@@SA?AV?$move_iterator@PEAI@2@V?$generic_iterator@V?$move_iterator@PEAI@eastl@@X@2@@Z
   9A0994 ?get_base@?$is_iterator_wrapper_helper@V?$generic_iterator@V?$move_iterator@PEAUD3D12_TILED_RESOURCE_COORDINATE@@@eastl@@X@eastl@@$00@eastl@@SA?AV?$move_iterator@PEAUD3D12_TILED_RESOURCE_COORDINATE@@@2@V?$generic_iterator@V?$move_iterator@PEAUD3D12_TILED_RESOURCE_COORDINATE@@@eastl@@X@2@@Z
   9A0994 ?get_base@?$is_iterator_wrapper_helper@V?$generic_iterator@V?$move_iterator@PEAUD3D12_TILE_REGION_SIZE@@@eastl@@X@eastl@@$00@eastl@@SA?AV?$move_iterator@PEAUD3D12_TILE_REGION_SIZE@@@2@V?$generic_iterator@V?$move_iterator@PEAUD3D12_TILE_REGION_SIZE@@@eastl@@X@2@@Z
   9A0994 ?get_base@?$is_iterator_wrapper_helper@V?$generic_iterator@V?$move_iterator@PEAUVirtualTexturePage@@@eastl@@X@eastl@@$00@eastl@@SA?AV?$move_iterator@PEAUVirtualTexturePage@@@2@V?$generic_iterator@V?$move_iterator@PEAUVirtualTexturePage@@@eastl@@X@2@@Z
   9A0994 ?get_base@?$is_iterator_wrapper_helper@V?$generic_iterator@V?$move_iterator@PEAW4D3D12_TILE_RANGE_FLAGS@@@eastl@@X@eastl@@$00@eastl@@SA?AV?$move_iterator@PEAW4D3D12_TILE_RANGE_FLAGS@@@2@V?$generic_iterator@V?$move_iterator@PEAW4D3D12_TILE_RANGE_FLAGS@@@eastl@@X@2@@Z
   9A0994 ?get_base@?$is_iterator_wrapper_helper@V?$move_iterator@PEAI@eastl@@$00@eastl@@SAPEAIV?$move_iterator@PEAI@2@@Z
   9A0994 ?get_base@?$is_iterator_wrapper_helper@V?$move_iterator@PEAUD3D12_TILED_RESOURCE_COORDINATE@@@eastl@@$00@eastl@@SAPEAUD3D12_TILED_RESOURCE_COORDINATE@@V?$move_iterator@PEAUD3D12_TILED_RESOURCE_COORDINATE@@@2@@Z
   9A0994 ?get_base@?$is_iterator_wrapper_helper@V?$move_iterator@PEAUD3D12_TILE_REGION_SIZE@@@eastl@@$00@eastl@@SAPEAUD3D12_TILE_REGION_SIZE@@V?$move_iterator@PEAUD3D12_TILE_REGION_SIZE@@@2@@Z
   9A0994 ?get_base@?$is_iterator_wrapper_helper@V?$move_iterator@PEAUVirtualTexturePage@@@eastl@@$00@eastl@@SAPEAUVirtualTexturePage@@V?$move_iterator@PEAUVirtualTexturePage@@@2@@Z
   9A0994 ?get_base@?$is_iterator_wrapper_helper@V?$move_iterator@PEAW4D3D12_TILE_RANGE_FLAGS@@@eastl@@$00@eastl@@SAPEAW4D3D12_TILE_RANGE_FLAGS@@V?$move_iterator@PEAW4D3D12_TILE_RANGE_FLAGS@@@2@@Z
   9A0994 ?get_default_allocator@eastl@@YAPEAVallocator_forge@1@PEBV21@@Z
   9A0994 ?get_deleter@?$unique_ptr@V_Node_assert@std@@U?$default_delete@V_Node_assert@std@@@2@@std@@QEAAAEAU?$default_delete@V_Node_assert@std@@@2@XZ
   9A0994 ?get_descriptor@@YAPEBUDescriptorInfo@@PEBURootSignature@@PEBD@Z
   9A0994 ?get_hash_code@?$hash_code_base@PEAUDescriptorInfo@@U?$pair@QEAUDescriptorInfo@@I@eastl@@U?$use_first@U?$pair@QEAUDescriptorInfo@@I@eastl@@@3@U?$equal_to@PEAUDescriptorInfo@@@3@U?$hash@PEAUDescriptorInfo@@@3@Umod_range_hashing@3@Udefault_ranged_hash@3@$0A@@eastl@@IEBA_KAEBQEAUDescriptorInfo@@@Z
   9A0994 ?get_hash_code@?$hash_code_base@PEBDU?$pair@QEBDI@eastl@@U?$use_first@U?$pair@QEBDI@eastl@@@2@U?$str_equal_to@PEBD@2@U?$hash@PEBD@2@Umod_range_hashing@2@Udefault_ranged_hash@2@$0A@@eastl@@IEBA_KAEBQEBD@Z
   9A0994 ?get_hash_code@?$hash_code_base@PEBDU?$pair@QEBDPEAUSampler@@@eastl@@U?$use_first@U?$pair@QEBDPEAUSampler@@@eastl@@@2@U?$str_equal_to@PEBD@2@U?$hash@PEBD@2@Umod_range_hashing@2@Udefault_ranged_hash@2@$0A@@eastl@@IEBA_KAEBQEBD@Z
   9A0994 ?increment@?$hashtable_iterator_base@U?$pair@QEBDI@eastl@@$0A@@eastl@@QEAAXXZ
   9A0994 ?increment@?$hashtable_iterator_base@U?$pair@QEBDPEAUSampler@@@eastl@@$0A@@eastl@@QEAAXXZ
   9A0994 ?increment_bucket@?$hashtable_iterator_base@U?$pair@QEBDI@eastl@@$0A@@eastl@@QEAAXXZ
   9A0994 ?increment_bucket@?$hashtable_iterator_base@U?$pair@QEBDPEAUSampler@@@eastl@@$0A@@eastl@@QEAAXXZ
   9A0994 ?initRenderer@@YAXPEBDPEBURendererDesc@@PEAPEAURenderer@@@Z
   9A0994 ?insert@?$List@USuballocation@D3D12MA@@@D3D12MA@@QEAA?AViterator@12@V312@AEBUSuballocation@2@@Z
   9A0994 ?insert@?$Vector@PEAVAllocation@D3D12MA@@@D3D12MA@@QEAAX_KAEBQEAVAllocation@2@@Z
   9A0994 ?insert@?$Vector@PEAVPool@D3D12MA@@@D3D12MA@@QEAAX_KAEBQEAVPool@2@@Z
   9A0994 ?insert@?$Vector@Viterator@?$List@USuballocation@D3D12MA@@@D3D12MA@@@D3D12MA@@QEAAX_KAEBViterator@?$List@USuballocation@D3D12MA@@@2@@Z
   9A0994 ?insert@?$hashtable@PEBDU?$pair@QEBDI@eastl@@Vallocator_forge@2@U?$use_first@U?$pair@QEBDI@eastl@@@2@U?$str_equal_to@PEBD@2@U?$hash@PEBD@2@Umod_range_hashing@2@Udefault_ranged_hash@2@Uprime_rehash_policy@2@$0A@$00$00@eastl@@QEAA?AU?$pair@U?$hashtable_iterator@U?$pair@QEBDI@eastl@@$0A@$0A@@eastl@@_N@2@$$QEAU?$pair@QEBDI@2@@Z
   9A0994 ?insert@?$hashtable@PEBDU?$pair@QEBDPEAUSampler@@@eastl@@Vallocator_forge@2@U?$use_first@U?$pair@QEBDPEAUSampler@@@eastl@@@2@U?$str_equal_to@PEBD@2@U?$hash@PEBD@2@Umod_range_hashing@2@Udefault_ranged_hash@2@Uprime_rehash_policy@2@$0A@$00$00@eastl@@QEAA?AU?$pair@U?$hashtable_iterator@U?$pair@QEBDPEAUSampler@@@eastl@@$0A@$0A@@eastl@@_N@2@$$QEAU?$pair@QEBDPEAUSampler@@@2@@Z
   9A0994 ?insert@?$string_hash_map@IU?$hash@PEBD@eastl@@U?$str_equal_to@PEBD@2@Vallocator_forge@2@@eastl@@QEAA?AU?$pair@U?$hashtable_iterator@U?$pair@QEBDI@eastl@@$0A@$0A@@eastl@@_N@2@PEBDAEBI@Z
   9A0994 ?insert@?$string_hash_map@PEAUSampler@@U?$hash@PEBD@eastl@@U?$str_equal_to@PEBD@3@Vallocator_forge@3@@eastl@@QEAA?AU?$pair@U?$hashtable_iterator@U?$pair@QEBDPEAUSampler@@@eastl@@$0A@$0A@@eastl@@_N@2@PEBDAEBQEAUSampler@@@Z
   9A0994 ?internalAllocator@?$VectorBase@IVallocator_forge@eastl@@@eastl@@IEAAAEAVallocator_forge@2@XZ
   9A0994 ?internalAllocator@?$VectorBase@U?$pair@PEAUShaderResource@@PEAUSampler@@@eastl@@Vallocator_forge@2@@eastl@@IEAAAEAVallocator_forge@2@XZ
   9A0994 ?internalAllocator@?$VectorBase@U?$pair@UShaderResource@@PEAUDescriptorInfo@@@eastl@@Vallocator_forge@2@@eastl@@IEAAAEAVallocator_forge@2@XZ
   9A0994 ?internalAllocator@?$VectorBase@UD3D12_SUBRESOURCE_TILING@@Vallocator_forge@eastl@@@eastl@@IEAAAEAVallocator_forge@2@XZ
   9A0994 ?internalAllocator@?$VectorBase@UD3D12_TILED_RESOURCE_COORDINATE@@Vallocator_forge@eastl@@@eastl@@IEAAAEAVallocator_forge@2@XZ
   9A0994 ?internalAllocator@?$VectorBase@UD3D12_TILE_REGION_SIZE@@Vallocator_forge@eastl@@@eastl@@IEAAAEAVallocator_forge@2@XZ
   9A0994 ?internalAllocator@?$VectorBase@UDescriptorHandle@DescriptorHeap@@Vallocator_forge@eastl@@@eastl@@IEAAAEAVallocator_forge@2@XZ
   9A0994 ?internalAllocator@?$VectorBase@UShaderResource@@Vallocator_forge@eastl@@@eastl@@IEAAAEAVallocator_forge@2@XZ
   9A0994 ?internalAllocator@?$VectorBase@UVirtualTexturePage@@Vallocator_forge@eastl@@@eastl@@IEAAAEAVallocator_forge@2@XZ
   9A0994 ?internalAllocator@?$VectorBase@W4D3D12_TILE_RANGE_FLAGS@@Vallocator_forge@eastl@@@eastl@@IEAAAEAVallocator_forge@2@XZ
   9A0994 ?internalCapacityPtr@?$VectorBase@IVallocator_forge@eastl@@@eastl@@IEAAAEAPEAIXZ
   9A0994 ?internalCapacityPtr@?$VectorBase@U?$pair@PEAUShaderResource@@PEAUSampler@@@eastl@@Vallocator_forge@2@@eastl@@IEAAAEAPEAU?$pair@PEAUShaderResource@@PEAUSampler@@@2@XZ
   9A0994 ?internalCapacityPtr@?$VectorBase@U?$pair@UShaderResource@@PEAUDescriptorInfo@@@eastl@@Vallocator_forge@2@@eastl@@IEAAAEAPEAU?$pair@UShaderResource@@PEAUDescriptorInfo@@@2@XZ
   9A0994 ?internalCapacityPtr@?$VectorBase@UD3D12_SUBRESOURCE_TILING@@Vallocator_forge@eastl@@@eastl@@IEAAAEAPEAUD3D12_SUBRESOURCE_TILING@@XZ
   9A0994 ?internalCapacityPtr@?$VectorBase@UD3D12_TILED_RESOURCE_COORDINATE@@Vallocator_forge@eastl@@@eastl@@IEAAAEAPEAUD3D12_TILED_RESOURCE_COORDINATE@@XZ
   9A0994 ?internalCapacityPtr@?$VectorBase@UD3D12_TILE_REGION_SIZE@@Vallocator_forge@eastl@@@eastl@@IEAAAEAPEAUD3D12_TILE_REGION_SIZE@@XZ
   9A0994 ?internalCapacityPtr@?$VectorBase@UDescriptorHandle@DescriptorHeap@@Vallocator_forge@eastl@@@eastl@@IEAAAEAPEAUDescriptorHandle@DescriptorHeap@@XZ
   9A0994 ?internalCapacityPtr@?$VectorBase@UShaderResource@@Vallocator_forge@eastl@@@eastl@@IEAAAEAPEAUShaderResource@@XZ
   9A0994 ?internalCapacityPtr@?$VectorBase@UVirtualTexturePage@@Vallocator_forge@eastl@@@eastl@@IEAAAEAPEAUVirtualTexturePage@@XZ
   9A0994 ?internalCapacityPtr@?$VectorBase@W4D3D12_TILE_RANGE_FLAGS@@Vallocator_forge@eastl@@@eastl@@IEAAAEAPEAW4D3D12_TILE_RANGE_FLAGS@@XZ
   9A0994 ?isctype@?$_Regex_traits@D@std@@QEBA_NDF@Z
   9A0994 ?length@?$_Narrow_char_traits@DH@std@@SA_KQEBD@Z
   9A0994 ?length@?$_Regex_traits@D@std@@SA_KPEBD@Z
   9A0994 ?length@?$basic_string@DU?$char_traits@D@std@@V?$allocator@D@2@@std@@QEBA_KXZ
   9A0994 ?load@?$_Atomic_storage@I$03@std@@QEBAIXZ
   9A0994 ?load@?$_Atomic_storage@_K$07@std@@QEBA_KXZ
   9A0994 ?lock@_Mutex_base@std@@QEAAXXZ
   9A0994 ?make_lower@?$basic_string@DVallocator_forge@eastl@@@eastl@@QEAAXXZ
   9A0994 ?mapBuffer@@YAXPEAURenderer@@PEAUBuffer@@PEAUReadRange@@@Z
   9A0994 ?mark_count@?$basic_regex@DV?$regex_traits@D@std@@@std@@QEBAIXZ
   9A0994 ?max@?$numeric_limits@D@std@@SADXZ
   9A0994 ?max@?$numeric_limits@E@std@@SAEXZ
   9A0994 ?max@?$numeric_limits@_J@std@@SA_JXZ
   9A0994 ?max_size@?$_Default_allocator_traits@V?$allocator@D@std@@@std@@SA_KAEBV?$allocator@D@2@@Z
   9A0994 ?max_size@?$_Default_allocator_traits@V?$allocator@I@std@@@std@@SA_KAEBV?$allocator@I@2@@Z
   9A0994 ?max_size@?$_Default_allocator_traits@V?$allocator@U_Grp_t@?$_Tgt_state_t@PEBD@std@@@std@@@std@@SA_KAEBV?$allocator@U_Grp_t@?$_Tgt_state_t@PEBD@std@@@2@@Z
   9A0994 ?max_size@?$_Default_allocator_traits@V?$allocator@U_Loop_vals_t@std@@@std@@@std@@SA_KAEBV?$allocator@U_Loop_vals_t@std@@@2@@Z
   9A0994 ?max_size@?$_Default_allocator_traits@V?$allocator@V?$sub_match@PEBD@std@@@std@@@std@@SA_KAEBV?$allocator@V?$sub_match@PEBD@std@@@2@@Z
   9A0994 ?max_size@?$basic_string@DU?$char_traits@D@std@@V?$allocator@D@2@@std@@QEBA_KXZ
   9A0994 ?max_size@?$vector@DV?$allocator@D@std@@@std@@QEBA_KXZ
   9A0994 ?max_size@?$vector@IV?$allocator@I@std@@@std@@QEBA_KXZ
   9A0994 ?max_size@?$vector@U_Grp_t@?$_Tgt_state_t@PEBD@std@@V?$allocator@U_Grp_t@?$_Tgt_state_t@PEBD@std@@@3@@std@@QEBA_KXZ
   9A0994 ?max_size@?$vector@U_Loop_vals_t@std@@V?$allocator@U_Loop_vals_t@std@@@2@@std@@QEBA_KXZ
   9A0994 ?max_size@?$vector@V?$sub_match@PEBD@std@@V?$allocator@V?$sub_match@PEBD@std@@@2@@std@@QEBA_KXZ
   9A0994 ?max_size@?$vector@_NV?$allocator@_N@std@@@std@@QEBA_KXZ
   9A0994 ?move@?$_Narrow_char_traits@DH@std@@SAPEADQEADQEBD_K@Z
   9A0994 ?name@locale@std@@QEBA?AV?$basic_string@DU?$char_traits@D@std@@V?$allocator@D@2@@2@XZ
   9A0994 ?parseConfigLine@@YA_NPEBD00QEAD111PEAW4GPUPresetLevel@@@Z
   9A0994 ?pop_back@?$Vector@PEAVNormalBlock@D3D12MA@@@D3D12MA@@QEAAXXZ
   9A0994 ?pop_back@?$Vector@UStackItem@JsonWriter@D3D12MA@@@D3D12MA@@QEAAXXZ
   9A0994 ?pop_back@?$vector@UDescriptorHandle@DescriptorHeap@@Vallocator_forge@eastl@@@eastl@@QEAAXXZ
   9A0994 ?presetLevelToString@@YAPEBDW4GPUPresetLevel@@@Z
   9A0994 ?push_back@?$List@USuballocation@D3D12MA@@@D3D12MA@@QEAAXAEBUSuballocation@2@@Z
   9A0994 ?push_back@?$Vector@PEAVNormalBlock@D3D12MA@@@D3D12MA@@QEAAXAEBQEAVNormalBlock@2@@Z
   9A0994 ?push_back@?$Vector@UItemBlock@?$PoolAllocator@UItem@?$List@USuballocation@D3D12MA@@@D3D12MA@@@D3D12MA@@@D3D12MA@@QEAAXAEBUItemBlock@?$PoolAllocator@UItem@?$List@USuballocation@D3D12MA@@@D3D12MA@@@2@@Z
   9A0994 ?push_back@?$Vector@UItemBlock@?$PoolAllocator@VAllocation@D3D12MA@@@D3D12MA@@@D3D12MA@@QEAAXAEBUItemBlock@?$PoolAllocator@VAllocation@D3D12MA@@@2@@Z
   9A0994 ?push_back@?$Vector@UStackItem@JsonWriter@D3D12MA@@@D3D12MA@@QEAAXAEBUStackItem@JsonWriter@2@@Z
   9A0994 ?push_back@?$Vector@Viterator@?$List@USuballocation@D3D12MA@@@D3D12MA@@@D3D12MA@@QEAAXAEBViterator@?$List@USuballocation@D3D12MA@@@2@@Z
   9A0994 ?push_back@?$Vector@_W@D3D12MA@@QEAAXAEB_W@Z
   9A0994 ?push_back@?$basic_string@DU?$char_traits@D@std@@V?$allocator@D@2@@std@@QEAAXD@Z
   9A0994 ?push_back@?$vector@IVallocator_forge@eastl@@@eastl@@QEAAX$$QEAI@Z
   9A0994 ?push_back@?$vector@IVallocator_forge@eastl@@@eastl@@QEAAXAEBI@Z
   9A0994 ?push_back@?$vector@PEB_WVallocator_forge@eastl@@@eastl@@QEAAXAEBQEB_W@Z
   9A0994 ?push_back@?$vector@U?$pair@PEAUShaderResource@@PEAUSampler@@@eastl@@Vallocator_forge@2@@eastl@@QEAAX$$QEAU?$pair@PEAUShaderResource@@PEAUSampler@@@2@@Z
   9A0994 ?push_back@?$vector@U?$pair@UShaderResource@@PEAUDescriptorInfo@@@eastl@@Vallocator_forge@2@@eastl@@QEAAX$$QEAU?$pair@UShaderResource@@PEAUDescriptorInfo@@@2@@Z
   9A0994 ?push_back@?$vector@UD3D12_TILED_RESOURCE_COORDINATE@@Vallocator_forge@eastl@@@eastl@@QEAAXAEBUD3D12_TILED_RESOURCE_COORDINATE@@@Z
   9A0994 ?push_back@?$vector@UD3D12_TILE_REGION_SIZE@@Vallocator_forge@eastl@@@eastl@@QEAAXAEBUD3D12_TILE_REGION_SIZE@@@Z
   9A0994 ?push_back@?$vector@UDescriptorHandle@DescriptorHeap@@Vallocator_forge@eastl@@@eastl@@QEAAX$$QEAUDescriptorHandle@DescriptorHeap@@@Z
   9A0994 ?push_back@?$vector@UShaderResource@@Vallocator_forge@eastl@@@eastl@@QEAAXAEBUShaderResource@@@Z
   9A0994 ?push_back@?$vector@UVirtualTexturePage@@Vallocator_forge@eastl@@@eastl@@QEAAXAEBUVirtualTexturePage@@@Z
   9A0994 ?push_back@?$vector@W4D3D12_TILE_RANGE_FLAGS@@Vallocator_forge@eastl@@@eastl@@QEAAXAEBW4D3D12_TILE_RANGE_FLAGS@@@Z
   9A0994 ?queuePresent@@YAXPEAUQueue@@PEBUQueuePresentDesc@@@Z
   9A0994 ?queueSubmit@@YAXPEAUQueue@@PEBUQueueSubmitDesc@@@Z
   9A0994 ?release@?$unique_ptr@V_Facet_base@std@@U?$default_delete@V_Facet_base@std@@@2@@std@@QEAAPEAV_Facet_base@2@XZ
   9A0994 ?release@?$unique_ptr@V_Node_assert@std@@U?$default_delete@V_Node_assert@std@@@2@@std@@QEAAPEAV_Node_assert@2@XZ
   9A0994 ?releasePage@@YAXPEAUCmd@@PEAUTexture@@@Z
   9A0994 ?releaseVirtualPage@@YAXPEAURenderer@@AEAUVirtualTexturePage@@_N@Z
   9A0994 ?remove@?$Vector@PEAVAllocation@D3D12MA@@@D3D12MA@@QEAAX_K@Z
   9A0994 ?remove@?$Vector@PEAVNormalBlock@D3D12MA@@@D3D12MA@@QEAAX_K@Z
   9A0994 ?remove@?$Vector@PEAVPool@D3D12MA@@@D3D12MA@@QEAAX_K@Z
   9A0994 ?remove@?$Vector@Viterator@?$List@USuballocation@D3D12MA@@@D3D12MA@@@D3D12MA@@QEAAX_K@Z
   9A0994 ?removeBuffer@@YAXPEAURenderer@@PEAUBuffer@@@Z
   9A0994 ?removeCmd@@YAXPEAURenderer@@PEAUCmd@@@Z
   9A0994 ?removeCmdPool@@YAXPEAURenderer@@PEAUCmdPool@@@Z
   9A0994 ?removeCmd_n@@YAXPEAURenderer@@IPEAPEAUCmd@@@Z
   9A0994 ?removeDescriptorSet@@YAXPEAURenderer@@PEAUDescriptorSet@@@Z
   9A0994 ?removeFence@@YAXPEAURenderer@@PEAUFence@@@Z
   9A0994 ?removeIndirectCommandSignature@@YAXPEAURenderer@@PEAUCommandSignature@@@Z
   9A0994 ?removePipeline@@YAXPEAURenderer@@PEAUPipeline@@@Z
   9A0994 ?removePipelineCache@@YAXPEAURenderer@@PEAUPipelineCache@@@Z
   9A0994 ?removeQueryPool@@YAXPEAURenderer@@PEAUQueryPool@@@Z
   9A0994 ?removeQueue@@YAXPEAURenderer@@PEAUQueue@@@Z
   9A0994 ?removeRenderTarget@@YAXPEAURenderer@@PEAURenderTarget@@@Z
   9A0994 ?removeRenderer@@YAXPEAURenderer@@@Z
   9A0994 ?removeRootSignature@@YAXPEAURenderer@@PEAURootSignature@@@Z
   9A0994 ?removeSampler@@YAXPEAURenderer@@PEAUSampler@@@Z
   9A0994 ?removeSemaphore@@YAXPEAURenderer@@PEAUSemaphore@@@Z
   9A0994 ?removeShader@@YAXPEAURenderer@@PEAUShader@@@Z
   9A0994 ?removeSwapChain@@YAXPEAURenderer@@PEAUSwapChain@@@Z
   9A0994 ?removeTexture@@YAXPEAURenderer@@PEAUTexture@@@Z
   9A0994 ?removeVirtualTexture@@YAXPEAURenderer@@PEAUVirtualTexture@@@Z
   9A0994 ?resetCmdPool@@YAXPEAURenderer@@PEAUCmdPool@@@Z
   9A0994 ?reset_lose_memory@?$hashtable@PEAUDescriptorInfo@@U?$pair@QEAUDescriptorInfo@@I@eastl@@Vallocator_forge@3@U?$use_first@U?$pair@QEAUDescriptorInfo@@I@eastl@@@3@U?$equal_to@PEAUDescriptorInfo@@@3@U?$hash@PEAUDescriptorInfo@@@3@Umod_range_hashing@3@Udefault_ranged_hash@3@Uprime_rehash_policy@3@$0A@$00$00@eastl@@QEAAXXZ
   9A0994 ?reset_lose_memory@?$hashtable@PEBDU?$pair@QEBDI@eastl@@Vallocator_forge@2@U?$use_first@U?$pair@QEBDI@eastl@@@2@U?$str_equal_to@PEBD@2@U?$hash@PEBD@2@Umod_range_hashing@2@Udefault_ranged_hash@2@Uprime_rehash_policy@2@$0A@$00$00@eastl@@QEAAXXZ
   9A0994 ?reset_lose_memory@?$hashtable@PEBDU?$pair@QEBDPEAUSampler@@@eastl@@Vallocator_forge@2@U?$use_first@U?$pair@QEBDPEAUSampler@@@eastl@@@2@U?$str_equal_to@PEBD@2@U?$hash@PEBD@2@Umod_range_hashing@2@Udefault_ranged_hash@2@Uprime_rehash_policy@2@$0A@$00$00@eastl@@QEAAXXZ
   9A0994 ?reset_root_signature@@YA_NPEAUCmd@@W4PipelineType@@PEAUID3D12RootSignature@@@Z
   9A0994 ?resize@?$Vector@PEAVAllocation@D3D12MA@@@D3D12MA@@QEAAX_K_N@Z
   9A0994 ?resize@?$Vector@PEAVNormalBlock@D3D12MA@@@D3D12MA@@QEAAX_K_N@Z
   9A0994 ?resize@?$Vector@PEAVPool@D3D12MA@@@D3D12MA@@QEAAX_K_N@Z
   9A0994 ?resize@?$Vector@UItemBlock@?$PoolAllocator@UItem@?$List@USuballocation@D3D12MA@@@D3D12MA@@@D3D12MA@@@D3D12MA@@QEAAX_K_N@Z
   9A0994 ?resize@?$Vector@UItemBlock@?$PoolAllocator@VAllocation@D3D12MA@@@D3D12MA@@@D3D12MA@@QEAAX_K_N@Z
   9A0994 ?resize@?$Vector@UStackItem@JsonWriter@D3D12MA@@@D3D12MA@@QEAAX_K_N@Z
   9A0994 ?resize@?$Vector@Viterator@?$List@USuballocation@D3D12MA@@@D3D12MA@@@D3D12MA@@QEAAX_K_N@Z
   9A0994 ?resize@?$Vector@_W@D3D12MA@@QEAAX_K_N@Z
   9A0994 ?resize@?$basic_string@DU?$char_traits@D@std@@V?$allocator@D@2@@std@@QEAAX_KD@Z
   9A0994 ?resize@?$vector@IV?$allocator@I@std@@@std@@QEAAX_KAEBI@Z
   9A0994 ?resize@?$vector@IVallocator_forge@eastl@@@eastl@@QEAAX_K@Z
   9A0994 ?resize@?$vector@PEB_WVallocator_forge@eastl@@@eastl@@QEAAX_K@Z
   9A0994 ?resize@?$vector@UD3D12_TILED_RESOURCE_COORDINATE@@Vallocator_forge@eastl@@@eastl@@QEAAX_K@Z
   9A0994 ?resize@?$vector@UD3D12_TILE_REGION_SIZE@@Vallocator_forge@eastl@@@eastl@@QEAAX_K@Z
   9A0994 ?resize@?$vector@UVirtualTexturePage@@Vallocator_forge@eastl@@@eastl@@QEAAX_K@Z
   9A0994 ?resize@?$vector@U_Grp_t@?$_Tgt_state_t@PEBD@std@@V?$allocator@U_Grp_t@?$_Tgt_state_t@PEBD@std@@@3@@std@@QEAAX_K@Z
   9A0994 ?resize@?$vector@U_Loop_vals_t@std@@V?$allocator@U_Loop_vals_t@std@@@2@@std@@QEAAX_K@Z
   9A0994 ?resize@?$vector@V?$sub_match@PEBD@std@@V?$allocator@V?$sub_match@PEBD@std@@@2@@std@@QEAAX_K@Z
   9A0994 ?resize@?$vector@W4D3D12_TILE_RANGE_FLAGS@@Vallocator_forge@eastl@@@eastl@@QEAAX_K@Z
   9A0994 ?resize@?$vector@_NV?$allocator@_N@std@@@std@@QEAAX_K_N@Z
   9A0994 ?return_cpu_descriptor_handles@@YAXPEAUDescriptorHeap@@UD3D12_CPU_DESCRIPTOR_HANDLE@@I@Z
   9A0994 ?second@?$compressed_pair@PEAIVallocator_forge@eastl@@@eastl@@QEAAAEAVallocator_forge@2@XZ
   9A0994 ?second@?$compressed_pair@PEAU?$pair@PEAUShaderResource@@PEAUSampler@@@eastl@@Vallocator_forge@2@@eastl@@QEAAAEAVallocator_forge@2@XZ
   9A0994 ?second@?$compressed_pair@PEAU?$pair@UShaderResource@@PEAUDescriptorInfo@@@eastl@@Vallocator_forge@2@@eastl@@QEAAAEAVallocator_forge@2@XZ
   9A0994 ?second@?$compressed_pair@PEAUD3D12_SUBRESOURCE_TILING@@Vallocator_forge@eastl@@@eastl@@QEAAAEAVallocator_forge@2@XZ
   9A0994 ?second@?$compressed_pair@PEAUD3D12_TILED_RESOURCE_COORDINATE@@Vallocator_forge@eastl@@@eastl@@QEAAAEAVallocator_forge@2@XZ
   9A0994 ?second@?$compressed_pair@PEAUD3D12_TILE_REGION_SIZE@@Vallocator_forge@eastl@@@eastl@@QEAAAEAVallocator_forge@2@XZ
   9A0994 ?second@?$compressed_pair@PEAUDescriptorHandle@DescriptorHeap@@Vallocator_forge@eastl@@@eastl@@QEAAAEAVallocator_forge@2@XZ
   9A0994 ?second@?$compressed_pair@PEAUShaderResource@@Vallocator_forge@eastl@@@eastl@@QEAAAEAVallocator_forge@2@XZ
   9A0994 ?second@?$compressed_pair@PEAUVirtualTexturePage@@Vallocator_forge@eastl@@@eastl@@QEAAAEAVallocator_forge@2@XZ
   9A0994 ?second@?$compressed_pair@PEAW4D3D12_TILE_RANGE_FLAGS@@Vallocator_forge@eastl@@@eastl@@QEAAAEAVallocator_forge@2@XZ
   9A0994 ?second@?$compressed_pair_imp@PEAIVallocator_forge@eastl@@$01@eastl@@QEAAAEAVallocator_forge@2@XZ
   9A0994 ?second@?$compressed_pair_imp@PEAU?$pair@PEAUShaderResource@@PEAUSampler@@@eastl@@Vallocator_forge@2@$01@eastl@@QEAAAEAVallocator_forge@2@XZ
   9A0994 ?second@?$compressed_pair_imp@PEAU?$pair@UShaderResource@@PEAUDescriptorInfo@@@eastl@@Vallocator_forge@2@$01@eastl@@QEAAAEAVallocator_forge@2@XZ
   9A0994 ?second@?$compressed_pair_imp@PEAUD3D12_SUBRESOURCE_TILING@@Vallocator_forge@eastl@@$01@eastl@@QEAAAEAVallocator_forge@2@XZ
   9A0994 ?second@?$compressed_pair_imp@PEAUD3D12_TILED_RESOURCE_COORDINATE@@Vallocator_forge@eastl@@$01@eastl@@QEAAAEAVallocator_forge@2@XZ
   9A0994 ?second@?$compressed_pair_imp@PEAUD3D12_TILE_REGION_SIZE@@Vallocator_forge@eastl@@$01@eastl@@QEAAAEAVallocator_forge@2@XZ
   9A0994 ?second@?$compressed_pair_imp@PEAUDescriptorHandle@DescriptorHeap@@Vallocator_forge@eastl@@$01@eastl@@QEAAAEAVallocator_forge@2@XZ
   9A0994 ?second@?$compressed_pair_imp@PEAUShaderResource@@Vallocator_forge@eastl@@$01@eastl@@QEAAAEAVallocator_forge@2@XZ
   9A0994 ?second@?$compressed_pair_imp@PEAUVirtualTexturePage@@Vallocator_forge@eastl@@$01@eastl@@QEAAAEAVallocator_forge@2@XZ
   9A0994 ?second@?$compressed_pair_imp@PEAW4D3D12_TILE_RANGE_FLAGS@@Vallocator_forge@eastl@@$01@eastl@@QEAAAEAVallocator_forge@2@XZ
   9A0994 ?selectActiveGpu@@YAXPEAUGPUSettings@@PEAII@Z
   9A0994 ?select_on_container_copy_construction@?$_Default_allocator_traits@V?$allocator@I@std@@@std@@SA?AV?$allocator@I@2@AEBV32@@Z
   9A0994 ?select_on_container_copy_construction@?$_Default_allocator_traits@V?$allocator@U_Grp_t@?$_Tgt_state_t@PEBD@std@@@std@@@std@@SA?AV?$allocator@U_Grp_t@?$_Tgt_state_t@PEBD@std@@@2@AEBV32@@Z
   9A0994 ?setBufferName@@YAXPEAURenderer@@PEAUBuffer@@PEBD@Z
   9A0994 ?setGPUPresetLevel@@YAXPEAURenderer@@IPEAUGPUSettings@@@Z
   9A0994 ?setPipelineName@@YAXPEAURenderer@@PEAUPipeline@@PEBD@Z
   9A0994 ?setRenderTargetName@@YAXPEAURenderer@@PEAURenderTarget@@PEBD@Z
   9A0994 ?setTextureName@@YAXPEAURenderer@@PEAUTexture@@PEBD@Z
   9A0994 ?set_capacity@?$vector@IVallocator_forge@eastl@@@eastl@@QEAAX_K@Z
   9A0994 ?set_capacity@?$vector@UD3D12_TILED_RESOURCE_COORDINATE@@Vallocator_forge@eastl@@@eastl@@QEAAX_K@Z
   9A0994 ?set_capacity@?$vector@UD3D12_TILE_REGION_SIZE@@Vallocator_forge@eastl@@@eastl@@QEAAX_K@Z
   9A0994 ?set_capacity@?$vector@UVirtualTexturePage@@Vallocator_forge@eastl@@@eastl@@QEAAX_K@Z
   9A0994 ?set_capacity@?$vector@W4D3D12_TILE_RANGE_FLAGS@@Vallocator_forge@eastl@@@eastl@@QEAAX_K@Z
   9A0994 ?set_code@?$hash_code_base@PEAUDescriptorInfo@@U?$pair@QEAUDescriptorInfo@@I@eastl@@U?$use_first@U?$pair@QEAUDescriptorInfo@@I@eastl@@@3@U?$equal_to@PEAUDescriptorInfo@@@3@U?$hash@PEAUDescriptorInfo@@@3@Umod_range_hashing@3@Udefault_ranged_hash@3@$0A@@eastl@@IEBAXPEAU?$hash_node@U?$pair@QEAUDescriptorInfo@@I@eastl@@$0A@@2@_K@Z
   9A0994 ?set_code@?$hash_code_base@PEBDU?$pair@QEBDI@eastl@@U?$use_first@U?$pair@QEBDI@eastl@@@2@U?$str_equal_to@PEBD@2@U?$hash@PEBD@2@Umod_range_hashing@2@Udefault_ranged_hash@2@$0A@@eastl@@IEBAXPEAU?$hash_node@U?$pair@QEBDI@eastl@@$0A@@2@_K@Z
   9A0994 ?set_code@?$hash_code_base@PEBDU?$pair@QEBDPEAUSampler@@@eastl@@U?$use_first@U?$pair@QEBDPEAUSampler@@@eastl@@@2@U?$str_equal_to@PEBD@2@U?$hash@PEBD@2@Umod_range_hashing@2@Udefault_ranged_hash@2@$0A@@eastl@@IEBAXPEAU?$hash_node@U?$pair@QEBDPEAUSampler@@@eastl@@$0A@@2@_K@Z
   9A0994 ?shrink_to_fit@?$vector@IVallocator_forge@eastl@@@eastl@@QEAAXXZ
   9A0994 ?shrink_to_fit@?$vector@UD3D12_TILED_RESOURCE_COORDINATE@@Vallocator_forge@eastl@@@eastl@@QEAAXXZ
   9A0994 ?shrink_to_fit@?$vector@UD3D12_TILE_REGION_SIZE@@Vallocator_forge@eastl@@@eastl@@QEAAXXZ
   9A0994 ?shrink_to_fit@?$vector@UVirtualTexturePage@@Vallocator_forge@eastl@@@eastl@@QEAAXXZ
   9A0994 ?shrink_to_fit@?$vector@W4D3D12_TILE_RANGE_FLAGS@@Vallocator_forge@eastl@@@eastl@@QEAAXXZ
   9A0994 ?size@?$List@USuballocation@D3D12MA@@@D3D12MA@@QEBA_KXZ
   9A0994 ?size@?$Vector@PEAVAllocation@D3D12MA@@@D3D12MA@@QEBA_KXZ
   9A0994 ?size@?$Vector@PEAVNormalBlock@D3D12MA@@@D3D12MA@@QEBA_KXZ
   9A0994 ?size@?$Vector@PEAVPool@D3D12MA@@@D3D12MA@@QEBA_KXZ
   9A0994 ?size@?$Vector@UItemBlock@?$PoolAllocator@UItem@?$List@USuballocation@D3D12MA@@@D3D12MA@@@D3D12MA@@@D3D12MA@@QEBA_KXZ
   9A0994 ?size@?$Vector@UItemBlock@?$PoolAllocator@VAllocation@D3D12MA@@@D3D12MA@@@D3D12MA@@QEBA_KXZ
   9A0994 ?size@?$Vector@UStackItem@JsonWriter@D3D12MA@@@D3D12MA@@QEBA_KXZ
   9A0994 ?size@?$Vector@Viterator@?$List@USuballocation@D3D12MA@@@D3D12MA@@@D3D12MA@@QEBA_KXZ
   9A0994 ?size@?$Vector@_W@D3D12MA@@QEBA_KXZ
   9A0994 ?size@?$basic_string@DU?$char_traits@D@std@@V?$allocator@D@2@@std@@QEBA_KXZ
   9A0994 ?size@?$vector@DV?$allocator@D@std@@@std@@QEBA_KXZ
   9A0994 ?size@?$vector@IVallocator_forge@eastl@@@eastl@@QEBA_KXZ
   9A0994 ?size@?$vector@PEB_WVallocator_forge@eastl@@@eastl@@QEBA_KXZ
   9A0994 ?size@?$vector@U?$pair@PEAUShaderResource@@PEAUSampler@@@eastl@@Vallocator_forge@2@@eastl@@QEBA_KXZ
   9A0994 ?size@?$vector@U?$pair@UShaderResource@@PEAUDescriptorInfo@@@eastl@@Vallocator_forge@2@@eastl@@QEBA_KXZ
   9A0994 ?size@?$vector@UD3D12_TILED_RESOURCE_COORDINATE@@Vallocator_forge@eastl@@@eastl@@QEBA_KXZ
   9A0994 ?size@?$vector@UDescriptorHandle@DescriptorHeap@@Vallocator_forge@eastl@@@eastl@@QEBA_KXZ
   9A0994 ?size@?$vector@UShaderResource@@Vallocator_forge@eastl@@@eastl@@QEBA_KXZ
   9A0994 ?size@?$vector@V?$sub_match@PEBD@std@@V?$allocator@V?$sub_match@PEBD@std@@@2@@std@@QEBA_KXZ
   9A0994 ?size@?$vector@_NV?$allocator@_N@std@@@std@@QEBA_KXZ
   9A0994 ?store@?$_Atomic_storage@I$03@std@@QEAAXI@Z
   9A0994 ?store@?$_Atomic_storage@_K$07@std@@QEAAX_K@Z
   9A0994 ?strduplicate@?$string_hash_map@IU?$hash@PEBD@eastl@@U?$str_equal_to@PEBD@2@Vallocator_forge@2@@eastl@@AEAAPEADPEBD@Z
   9A0994 ?strduplicate@?$string_hash_map@PEAUSampler@@U?$hash@PEBD@eastl@@U?$str_equal_to@PEBD@3@Vallocator_forge@3@@eastl@@AEAAPEADPEBD@Z
   9A0994 ?stringToPresetLevel@@YA?AW4GPUPresetLevel@@PEBD@Z
   9A0994 ?swap@?$compressed_pair@PEAIVallocator_forge@eastl@@@eastl@@QEAAXAEAV12@@Z
   9A0994 ?swap@?$compressed_pair@PEAUD3D12_TILED_RESOURCE_COORDINATE@@Vallocator_forge@eastl@@@eastl@@QEAAXAEAV12@@Z
   9A0994 ?swap@?$compressed_pair@PEAUD3D12_TILE_REGION_SIZE@@Vallocator_forge@eastl@@@eastl@@QEAAXAEAV12@@Z
   9A0994 ?swap@?$compressed_pair@PEAUVirtualTexturePage@@Vallocator_forge@eastl@@@eastl@@QEAAXAEAV12@@Z
   9A0994 ?swap@?$compressed_pair@PEAW4D3D12_TILE_RANGE_FLAGS@@Vallocator_forge@eastl@@@eastl@@QEAAXAEAV12@@Z
   9A0994 ?swap@?$compressed_pair_imp@PEAIVallocator_forge@eastl@@$01@eastl@@QEAAXAEAV?$compressed_pair@PEAIVallocator_forge@eastl@@@2@@Z
   9A0994 ?swap@?$compressed_pair_imp@PEAUD3D12_TILED_RESOURCE_COORDINATE@@Vallocator_forge@eastl@@$01@eastl@@QEAAXAEAV?$compressed_pair@PEAUD3D12_TILED_RESOURCE_COORDINATE@@Vallocator_forge@eastl@@@2@@Z
   9A0994 ?swap@?$compressed_pair_imp@PEAUD3D12_TILE_REGION_SIZE@@Vallocator_forge@eastl@@$01@eastl@@QEAAXAEAV?$compressed_pair@PEAUD3D12_TILE_REGION_SIZE@@Vallocator_forge@eastl@@@2@@Z
   9A0994 ?swap@?$compressed_pair_imp@PEAUVirtualTexturePage@@Vallocator_forge@eastl@@$01@eastl@@QEAAXAEAV?$compressed_pair@PEAUVirtualTexturePage@@Vallocator_forge@eastl@@@2@@Z
   9A0994 ?swap@?$compressed_pair_imp@PEAW4D3D12_TILE_RANGE_FLAGS@@Vallocator_forge@eastl@@$01@eastl@@QEAAXAEAV?$compressed_pair@PEAW4D3D12_TILE_RANGE_FLAGS@@Vallocator_forge@eastl@@@2@@Z
   9A0994 ?swprintf@@YAHQEA_WQEB_WZZ
   9A0994 ?toggleVSync@@YAXPEAURenderer@@PEAPEAUSwapChain@@@Z
   9A0994 ?transform@?$collate@D@std@@QEBA?AV?$basic_string@DU?$char_traits@D@std@@V?$allocator@D@2@@2@PEBD0@Z
   9A0994 ?translate@?$_Regex_traits@D@std@@QEBADD@Z
   9A0994 ?translate_nocase@?$_Regex_traits@D@std@@QEBADD@Z
   9A0994 ?unlock@_Mutex_base@std@@QEAAXXZ
   9A0994 ?unmapBuffer@@YAXPEAURenderer@@PEAUBuffer@@@Z
   9A0994 ?updateDescriptorSet@@YAXPEAURenderer@@IPEAUDescriptorSet@@IPEBUDescriptorData@@@Z
   9A0994 ?util_calculate_node_mask@@YAIPEAURenderer@@I@Z
   9A0994 ?util_calculate_shared_node_mask@@YAIPEAURenderer@@@Z
   9A0994 ?util_dx_determine_storage_counter_offset@@YA_K_K@Z
   9A0994 ?util_to_blend_desc@@YA?AUD3D12_BLEND_DESC@@PEBUBlendStateDesc@@@Z
   9A0994 ?util_to_depth_desc@@YA?AUD3D12_DEPTH_STENCIL_DESC@@PEBUDepthStateDesc@@@Z
   9A0994 ?util_to_dx_descriptor_range@@YA?AW4D3D12_DESCRIPTOR_RANGE_TYPE@@W4DescriptorType@@@Z
   9A0994 ?util_to_dx_dsv_format@@YA?AW4DXGI_FORMAT@@W41@@Z
   9A0994 ?util_to_dx_filter@@YA?AW4D3D12_FILTER@@W4FilterType@@0W4MipMapMode@@_N2@Z
   9A0994 ?util_to_dx_primitive_topology_type@@YA?AW4D3D12_PRIMITIVE_TOPOLOGY_TYPE@@W4PrimitiveTopology@@@Z
   9A0994 ?util_to_dx_query_heap_type@@YA?AW4D3D12_QUERY_HEAP_TYPE@@W4QueryType@@@Z
   9A0994 ?util_to_dx_query_type@@YA?AW4D3D12_QUERY_TYPE@@W4QueryType@@@Z
   9A0994 ?util_to_dx_resource_state@@YA?AW4D3D12_RESOURCE_STATES@@W4ResourceState@@@Z
   9A0994 ?util_to_dx_shader_visibility@@YA?AW4D3D12_SHADER_VISIBILITY@@W4ShaderStage@@@Z
   9A0994 ?util_to_dx_srv_format@@YA?AW4DXGI_FORMAT@@W41@@Z
   9A0994 ?util_to_dx_stencil_format@@YA?AW4DXGI_FORMAT@@W41@@Z
   9A0994 ?util_to_dx_swapchain_format@@YA?AW4DXGI_FORMAT@@W4TinyImageFormat@@@Z
   9A0994 ?util_to_dx_texture_address_mode@@YA?AW4D3D12_TEXTURE_ADDRESS_MODE@@W4AddressMode@@@Z
   9A0994 ?util_to_dx_uav_format@@YA?AW4DXGI_FORMAT@@W41@@Z
   9A0994 ?util_to_rasterizer_desc@@YA?AUD3D12_RASTERIZER_DESC@@PEBURasterizerStateDesc@@@Z
   9A0994 ?utils_caps_builder@@YAXPEAURenderer@@@Z
   9A0994 ?value@?$regex_traits@D@std@@QEBAHDH@Z
   9A0994 ?waitForFences@@YAXPEAURenderer@@IPEAPEAUFence@@@Z
   9A0994 ?waitQueueIdle@@YAXPEAUQueue@@@Z
   9A0994 ?what@exception@std@@UEBAPEBDXZ
   9A0994 IsEqualGUID
   9A0994 _CT??_R0?AVbad_alloc@std@@@8??0bad_alloc@std@@QEAA@AEBV01@@Z24
   9A0994 _CT??_R0?AVbad_array_new_length@std@@@8??0bad_array_new_length@std@@QEAA@AEBV01@@Z24
   9A0994 _CT??_R0?AVbad_cast@std@@@8??0bad_cast@std@@QEAA@AEBV01@@Z24
   9A0994 _CT??_R0?AVexception@std@@@8??0exception@std@@QEAA@AEBV01@@Z24
   9A0994 _CTA2?AVbad_cast@std@@
   9A0994 _CTA3?AVbad_array_new_length@std@@
   9A0994 _GUID_0a753dcf_c4d8_4b91_adf6_be5a60d95a76
   9A0994 _GUID_0d9658ae_ed45_469e_a61d_970ec583cab4
   9A0994 _GUID_3c8d99d1_4fbf_4181_a82c_af66bf7bd24e
   9A0994 _GUID_4605c4cb_2019_492a_ada4_65f20bb7d67f
   9A0994 _GUID_6102dee4_af59_4b09_b999_b44d73f09b24
   9A0994 _GUID_645967a4_1392_4310_a798_8053ce3e93fd
   9A0994 _GUID_696442be_a72e_4059_bc79_5b5c98040fad
   9A0994 _GUID_6b3b2502_6e51_45b3_90ee_9884265e8df3
   9A0994 _GUID_77acce80_638e_4e65_8895_c1f23386863e
   9A0994 _GUID_8c210bf3_011f_4422_8d70_6f9acb8db617
   9A0994 _GUID_8efb471d_616c_4f49_90f7_127bb763fa51
   9A0994 _GUID_94d99bdb_f1f8_4ab0_b236_7da0170edab1
   9A0994 _GUID_c1b6694f_ff09_44a9_b03c_77900a0a1d17
   9A0994 _GUID_c36a797c_ec80_4f0a_8985_a7b2475082d1
   9A0994 _GUID_c54a6b66_72df_4ee8_8be5_a946a1429214
   9A0994 _GUID_c64226a8_9201_46af_b4cc_53fb9ff7414f
   9A0994 _TI2?AVbad_cast@std@@
   9A0994 _TI3?AVbad_array_new_length@std@@
   9A0994 _vswprintf_c_l
   9A0994 vswprintf
   9A0994 wmemcpy
   E95B28 ??_C@_0BI@HJKMOFON@destroyShaderReflection@
   E95B28 ??_C@_0BJ@LMALPEEG@createPipelineReflection@
   E95B28 ??_C@_0BK@FNDLIIBI@destroyPipelineReflection@
   E95B28 ??_C@_0BN@HEOENEEC@Parameter?5?8stageCount?8?5is?50?4@
   E95B28 ??_C@_0CB@HGKOIPCO@Parameter?5?8pReflection?8?5is?5NULL@
   E95B28 ??_C@_0CK@MHHCEKBB@Parameter?5?8pOutShaderReflection@
   E95B28 ??_C@_0DO@JLAEPHPK@C?3?2src?2The?9Forge?2Common_3?2Rende@
   E95B28 ??_C@_0EA@ILMKNLMJ@Duplicate?5shader?5stage?5was?5dete@
   E95B28 ?createPipelineReflection@@YAXPEAUShaderReflection@@IPEAUPipelineReflection@@@Z
   E95B28 ?destroyPipelineReflection@@YAXPEAUPipelineReflection@@@Z
   E95B28 ?destroyShaderReflection@@YAXPEAUShaderReflection@@@Z
